 Launcher

 Timestamp is 54abb0c1 (Tue Jan 06 17:54:09 2015)

 Preferred load address is 00400000

 Start         Length     Name                   Class
 0001:00000000 00073766H .text                   CODE
 0001:00073770 000040ccH .text$x                 CODE
 0001:00077840 00004284H .text$yc                CODE
 0001:0007bad0 000009daH .text$yd                CODE
 0002:00000000 00000974H .idata$5                DATA
 0002:00000980 00024dd4H .rdata                  DATA
 0002:00025754 00000058H .rdata$debug            DATA
 0002:000257ac 00000044H .rdata$r                DATA
 0002:000257f0 00000004H .rtc$IAA                DATA
 0002:000257f4 00000004H .rtc$IZZ                DATA
 0002:000257f8 00000004H .rtc$TAA                DATA
 0002:000257fc 00000004H .rtc$TZZ                DATA
 0002:00025800 00004648H .xdata$x                DATA
 0002:00029e48 00000000H ATL$__a                 DATA
 0002:00029e48 00000000H ATL$__z                 DATA
 0002:00029e48 00000140H .idata$2                DATA
 0002:00029f88 00000014H .idata$3                DATA
 0002:00029f9c 00000974H .idata$4                DATA
 0002:0002a910 00001c18H .idata$6                DATA
 0002:0002c528 00000000H .edata                  DATA
 0003:00000000 00000004H .CRT$XCA                DATA
 0003:00000004 00000004H .CRT$XCAA               DATA
 0003:00000008 00000008H .CRT$XCL                DATA
 0003:00000010 000004ccH .CRT$XCU                DATA
 0003:000004dc 00000004H .CRT$XCZ                DATA
 0003:000004e0 00000004H .CRT$XIA                DATA
 0003:000004e4 00000004H .CRT$XIZ                DATA
 0003:000004f0 0002eee0H .data                   DATA
 0003:0002f3e0 01ae3c24H .bss                    DATA
 0004:00000000 00000958H .rsrc$01                DATA
 0004:00000960 000103e8H .rsrc$02                DATA

  Address         Publics by Value              Rva+Base     Lib:Object

 0000:00000000       __except_list              00000000     <absolute>
 0000:00000000       ___safe_se_handler_table   00000000     <absolute>
 0000:00000000       ___safe_se_handler_count   00000000     <absolute>
 0000:00009876       __fltused                  00009876     <absolute>
 0000:00009876       __ldused                   00009876     <absolute>
 0000:00000000       ___ImageBase               00400000     <linker-defined>
 0001:00000000       ?GetMessageMap@CAutoPatchManApp@@MBEPBUAFX_MSGMAP@@XZ 00401000 f   AutoPatchMan.obj
 0001:00000010       ??0CAutoPatchManApp@@QAE@XZ 00401010 f   AutoPatchMan.obj
 0001:00000090       ??1CExplorer1@@UAE@XZ      00401090 f i AutoPatchMan.obj
 0001:000000a0       ?InitApplication@CAutoPatchManApp@@MAEHXZ 004010a0 f   AutoPatchMan.obj
 0001:000000d0       _Lz_Close                  004010d0 f i Fdi:lz.ord
 0001:000000d0       ??1CBit@SERVER_UTIL@@QAE@XZ 004010d0 f i NetClientLib:s_CBit.obj
 0001:000000d0       ??1minTea@@QAE@XZ          004010d0 f i NetClientLib:minTea.obj
 0001:000000d0       ??3@YAXPAX0@Z              004010d0 f i AutoPatchThread.obj
 0001:000000d0       ?ThreadMain@CLPatchThread@@MAEXXZ 004010d0 f i AutoPatchThread.obj
 0001:000000d0       ?AssertValid@CObject@@UBEXXZ 004010d0 f i AutoPatchMan.obj
 0001:000000d0       _Arith_Close               004010d0 f i Fdi:arith.ord
 0001:000000d0       ??1CCustomOccManager@@UAE@XZ 004010d0 f i AutoPatchMan.obj
 0001:000000e0       ??1CAutoPatchManApp@@UAE@XZ 004010e0 f   AutoPatchMan.obj
 0001:00000150       ??1CAutoPatchManDlg@@UAE@XZ 00401150 f i AutoPatchMan.obj
 0001:00000230       ??_GCAutoPatchManApp@@UAEPAXI@Z 00401230 f i AutoPatchMan.obj
 0001:00000230       ??_ECAutoPatchManApp@@UAEPAXI@Z 00401230 f i AutoPatchMan.obj
 0001:00000250       ??_ECCustomOccManager@@UAEPAXI@Z 00401250 f i AutoPatchMan.obj
 0001:00000250       ??_GCCustomOccManager@@UAEPAXI@Z 00401250 f i AutoPatchMan.obj
 0001:00000270       ?InitInstance@CAutoPatchManApp@@UAEHXZ 00401270 f   AutoPatchMan.obj
 0001:00000350       ?OnBnClickedButtonExit@CAutoPatchManDlg@@QAEXXZ 00401350 f   AutoPatchManButtonMsg.obj
 0001:00000410       ?OnBnClickedButtonOption@CAutoPatchManDlg@@QAEXXZ 00401410 f   AutoPatchManButtonMsg.obj
 0001:00000490       ?OnBnClickedButtonRetry@CAutoPatchManDlg@@QAEXXZ 00401490 f   AutoPatchManButtonMsg.obj
 0001:00000590       ??HATL@@YA?AV?$CStringT@DV?$StrTraitMFC_DLL@DV?$ChTraitsCRT@D@ATL@@@@@0@ABV10@PBD@Z 00401590 f i AutoPatchManButtonMsg.obj
 0001:00000630       ??HATL@@YA?AV?$CStringT@DV?$StrTraitMFC_DLL@DV?$ChTraitsCRT@D@ATL@@@@@0@PBDABV10@@Z 00401630 f i AutoPatchManButtonMsg.obj
 0001:000006d0       ?OnLButtonDown@CAutoPatchManDlg@@QAEXIVCPoint@@@Z 004016d0 f   AutoPatchManButtonMsg.obj
 0001:00000710       ?OnMouseMove@CAutoPatchManDlg@@QAEXIVCPoint@@@Z 00401710 f   AutoPatchManButtonMsg.obj
 0001:00000790       ?OnLButtonUp@CAutoPatchManDlg@@QAEXIVCPoint@@@Z 00401790 f   AutoPatchManButtonMsg.obj
 0001:000007c0       ?OnBnClickedButtonStart@CAutoPatchManDlg@@QAEXXZ 004017c0 f   AutoPatchManButtonMsg.obj
 0001:00000b40       ??1CAboutDlg@@UAE@XZ       00401b40 f i AutoPatchManDlg.obj
 0001:00000b50       ?InitDlgText@CAboutDlg@@AAEXXZ 00401b50 f   AutoPatchManDlg.obj
 0001:00000bb0       ?GetMessageMap@CAboutDlg@@MBEPBUAFX_MSGMAP@@XZ 00401bb0 f   AutoPatchManDlg.obj
 0001:00000bc0       ?Create@CExplorer1@@UAEHPBD0KABUtagRECT@@PAVCWnd@@IPAUCCreateContext@@@Z 00401bc0 f i AutoPatchManDlg.obj
 0001:00000bf0       ?GetMessageMap@CAutoPatchManDlg@@MBEPBUAFX_MSGMAP@@XZ 00401bf0 f   AutoPatchManDlg.obj
 0001:00000c00       ?UPDATE_TIME@CAutoPatchManDlg@@AAEXI@Z 00401c00 f   AutoPatchManDlg.obj
 0001:00000c40       ?OnQueryDragIcon@CAutoPatchManDlg@@IAEPAUHICON__@@XZ 00401c40 f   AutoPatchManDlg.obj
 0001:00000c50       ?PreTranslateMessage@CAutoPatchManDlg@@MAEHPAUtagMSG@@@Z 00401c50 f   AutoPatchManDlg.obj
 0001:00000d20       ?OnBnClickedButtonPatch@CAutoPatchManDlg@@QAEXXZ 00401d20 f   AutoPatchManDlg.obj
 0001:00000d30       ??3CObject@@SGXPAX@Z       00401d30 f i AutoPatchManDlg.obj
 0001:00000d40       ?BeginModalState@CWnd@@UAEXXZ 00401d40 f i AutoPatchManDlg.obj
 0001:00000d50       ?EndModalState@CWnd@@UAEXXZ 00401d50 f i AutoPatchManDlg.obj
 0001:00000d60       ?Create@CDialog@@UAEHIPAVCWnd@@@Z 00401d60 f i AutoPatchManDlg.obj
 0001:00000d80       ??_GCButton@@UAEPAXI@Z     00401d80 f i AutoPatchManDlg.obj
 0001:00000d80       ??_ECButton@@UAEPAXI@Z     00401d80 f i AutoPatchManDlg.obj
 0001:00000da0       ??_GCListBox@@UAEPAXI@Z    00401da0 f i AutoPatchManDlg.obj
 0001:00000da0       ??_ECListBox@@UAEPAXI@Z    00401da0 f i AutoPatchManDlg.obj
 0001:00000dc0       ??_ECProgressCtrl@@UAEPAXI@Z 00401dc0 f i AutoPatchManDlg.obj
 0001:00000dc0       ??_GCProgressCtrl@@UAEPAXI@Z 00401dc0 f i AutoPatchManDlg.obj
 0001:00000de0       ?StringCopyWorkerA@@YGJPADIPBD@Z 00401de0 f i AutoPatchManDlg.obj
 0001:00000e30       ??_GCAboutDlg@@UAEPAXI@Z   00401e30 f i AutoPatchManDlg.obj
 0001:00000e30       ??_ECAboutDlg@@UAEPAXI@Z   00401e30 f i AutoPatchManDlg.obj
 0001:00000e50       ?DoDataExchange@CWnd@@MAEXPAVCDataExchange@@@Z 00401e50 f   AutoPatchManDlg.obj
 0001:00000e50       ?Serialize@CObject@@UAEXAAVCArchive@@@Z 00401e50 f   AutoPatchMan.obj
 0001:00000e50       ?DoDataExchange@CAboutDlg@@MAEXPAVCDataExchange@@@Z 00401e50 f   AutoPatchManDlg.obj
 0001:00000e50       ?Dump@CObject@@UBEXAAVCDumpContext@@@Z 00401e50 f   AutoPatchMan.obj
 0001:00000e60       ?OnInitDialog@CAboutDlg@@UAEHXZ 00401e60 f   AutoPatchManDlg.obj
 0001:00000e80       ??0CAutoPatchManDlg@@QAE@PAVCWnd@@@Z 00401e80 f   AutoPatchManDlg.obj
 0001:00001020       ??_GCAutoPatchManDlg@@UAEPAXI@Z 00402020 f i AutoPatchManDlg.obj
 0001:00001020       ??_ECAutoPatchManDlg@@UAEPAXI@Z 00402020 f i AutoPatchManDlg.obj
 0001:00001040       ??_ECExplorer1@@UAEPAXI@Z  00402040 f i AutoPatchManDlg.obj
 0001:00001040       ??_GCExplorer1@@UAEPAXI@Z  00402040 f i AutoPatchManDlg.obj
 0001:00001060       ?DoDataExchange@CAutoPatchManDlg@@MAEXPAVCDataExchange@@@Z 00402060 f   AutoPatchManDlg.obj
 0001:00001100       ?OnSysCommand@CAutoPatchManDlg@@IAEXIJ@Z 00402100 f   AutoPatchManDlg.obj
 0001:00001190       ?OnPaint@CAutoPatchManDlg@@IAEXXZ 00402190 f   AutoPatchManDlg.obj
 0001:00001260       ?PostNcDestroy@CAutoPatchManDlg@@MAEXXZ 00402260 f   AutoPatchManDlg.obj
 0001:00001300       ?CREATEPROCESS_PATCHPRIME@CAutoPatchManDlg@@AAEHXZ 00402300 f   AutoPatchManDlg.obj
 0001:00001490       ?SetPath@CLauncherTextMan@@QAEXPBD@Z 00402490 f i AutoPatchManDlg.obj
 0001:000014d0       ??0CCustomControlSite@@QAE@PAVCOleControlContainer@@@Z 004024d0 f i AutoPatchManDlg.obj
 0001:00001500       ??_ECCustomControlSite@@UAEPAXI@Z 00402500 f i AutoPatchManDlg.obj
 0001:00001500       ??_GCCustomControlSite@@UAEPAXI@Z 00402500 f i AutoPatchManDlg.obj
 0001:00001520       ??1CCustomControlSite@@UAE@XZ 00402520 f i AutoPatchManDlg.obj
 0001:00001530       ?OnInitDialog@CAutoPatchManDlg@@MAEHXZ 00402530 f   AutoPatchManDlg.obj
 0001:00001900       ?OnCustomControlSiteMsg@CAutoPatchManDlg@@QAEJIJ@Z 00402900 f   AutoPatchManDlg.obj
 0001:00001980       ?OnLbnDblclkListLog@CAutoPatchManDlg@@QAEXXZ 00402980 f   AutoPatchManDlg.obj
 0001:00001ad0       ??HATL@@YA?AV?$CStringT@DV?$StrTraitMFC_DLL@DV?$ChTraitsCRT@D@ATL@@@@@0@ABV10@0@Z 00402ad0 f i AutoPatchManDlgCtrl.obj
 0001:00001b70       ?UpdateControls@CAutoPatchManDlg@@AAEXXZ 00402b70 f   AutoPatchManDlgCtrl.obj
 0001:00001c60       ?ListAddString@CAutoPatchManDlg@@QAEXABV?$CStringT@DV?$StrTraitMFC_DLL@DV?$ChTraitsCRT@D@ATL@@@@@ATL@@@Z 00402c60 f   AutoPatchManDlgCtrl.obj
 0001:00001d90       ?ListAddString@CAutoPatchManDlg@@QAEXQAD@Z 00402d90 f   AutoPatchManDlgCtrl.obj
 0001:00001ec0       ?FILEOUT@CAutoPatchManDlg@@AAEXABV?$CStringT@DV?$StrTraitMFC_DLL@DV?$ChTraitsCRT@D@ATL@@@@@ATL@@@Z 00402ec0 f   AutoPatchManDlgCtrl.obj
 0001:00001f90       ??$replace@Viterator@?$basic_string@DU?$char_traits@D@std@@V?$allocator@D@2@@std@@D@std@@YAXViterator@?$basic_string@DU?$char_traits@D@std@@V?$allocator@D@2@@0@0ABD1@Z 00402f90 f i AutoPatchManDlgCtrl.obj
 0001:00001fc0       ?GETFILE_USEHTTP@CAutoPatchManDlg@@AAEHPAVCHttpPatch@@V?$basic_string@DU?$char_traits@D@std@@V?$allocator@D@2@@std@@1V?$CStringT@DV?$StrTraitMFC_DLL@DV?$ChTraitsCRT@D@ATL@@@@@ATL@@@Z 00402fc0 f   AutoPatchManDlgCtrl.obj
 0001:00002580       ?InitDlgText@CAutoPatchManDlg@@AAEXXZ 00403580 f   AutoPatchManDlgEx.obj
 0001:00002670       ?SetAppPath@CAutoPatchManDlg@@AAEXXZ 00403670 f   AutoPatchManDlgEx.obj
 0001:00002870       ?CheckVersion@CAutoPatchManDlg@@AAEHXZ 00403870 f   AutoPatchManDlgEx.obj
 0001:00002b70       ?BEGIN_LAUNCHER_PATCH@CAutoPatchManDlg@@AAEHXZ 00403b70 f   AutoPatchManPatchFunc.obj
 0001:00002cf0       ?END_LAUNCHER_PATCH@CAutoPatchManDlg@@AAEXXZ 00403cf0 f   AutoPatchManPatchFunc.obj
 0001:00002f00       ?BEGIN_PATCH@CAutoPatchManDlg@@AAEXXZ 00403f00 f   AutoPatchManPatchFunc.obj
 0001:000030f0       ?END_PATCH@CAutoPatchManDlg@@AAEXXZ 004040f0 f   AutoPatchManPatchFunc.obj
 0001:00003290       ?EndThread@CAutoPatchManDlg@@IAEXAAPAVCLPatchThread@@@Z 00404290 f   AutoPatchManThread.obj
 0001:000032b0       ?BeginThread@CAutoPatchManDlg@@IAEXHAAPAVCLPatchThread@@PAXABV?$CStringT@DV?$StrTraitMFC_DLL@DV?$ChTraitsCRT@D@ATL@@@@@ATL@@@Z 004042b0 f   AutoPatchManThread.obj
 0001:00003450       ?GetCheck@CButton@@QBEHXZ  00404450 f i AutoPatchManTimerMsg.obj
 0001:00003470       ?UpdateCheckVersion@CAutoPatchManDlg@@AAEXXZ 00404470 f   AutoPatchManTimerMsg.obj
 0001:00003550       ?BEGIN_LOGIN_THREAD@CAutoPatchManDlg@@AAEXXZ 00404550 f   AutoPatchManTimerMsg.obj
 0001:000035f0       ?UpdateLoginConnect@CAutoPatchManDlg@@AAEXXZ 004045f0 f   AutoPatchManTimerMsg.obj
 0001:00003880       ?OnTimer@CAutoPatchManDlg@@QAEXI@Z 00404880 f   AutoPatchManTimerMsg.obj
 0001:00003a20       ?GetRuntimeClass@CExplorer1@@UBEPAUCRuntimeClass@@XZ 00404a20 f   explorer1.obj
 0001:00003a30       ?CreateObject@CExplorer1@@SGPAVCObject@@XZ 00404a30 f   explorer1.obj
 0001:00003a80       ??$?HDU?$char_traits@D@std@@V?$allocator@D@1@@std@@YA?AV?$basic_string@DU?$char_traits@D@std@@V?$allocator@D@2@@0@ABV10@PBD@Z 00404a80 f i stdafx.obj
 0001:00003b00       ?GetInterfaceMap@CCustomControlSite@@MBEPBUAFX_INTERFACEMAP@@XZ 00404b00 f   Custsite.obj
 0001:00003b10       ?GetExternal@XDocHostUIHandler@CCustomControlSite@@UAGJPAPAUIDispatch@@@Z 00404b10 f   Custsite.obj
 0001:00003b30       ?CustomControlSiteSendToAncestors@@YAHPAUHWND__@@IJ@Z 00404b30 f   Custsite.obj
 0001:00003b90       ??1AFX_MAINTAIN_STATE2@@QAE@XZ 00404b90 f i Custsite.obj
 0001:00003ba0       ?AddRef@XDocHostUIHandler@CCustomControlSite@@UAGKXZ 00404ba0 f   Custsite.obj
 0001:00003c00       ?Release@XDocHostUIHandler@CCustomControlSite@@UAGKXZ 00404c00 f   Custsite.obj
 0001:00003c60       ?QueryInterface@XDocHostUIHandler@CCustomControlSite@@UAGJABU_GUID@@PAPAX@Z 00404c60 f   Custsite.obj
 0001:00003cd0       ?GetHostInfo@XDocHostUIHandler@CCustomControlSite@@UAGJPAU_DOCHOSTUIINFO@@@Z 00404cd0 f   Custsite.obj
 0001:00003d10       ?ShowUI@XDocHostUIHandler@CCustomControlSite@@UAGJKPAUIOleInPlaceActiveObject@@PAUIOleCommandTarget@@PAUIOleInPlaceFrame@@PAUIOleInPlaceUIWindow@@@Z 00404d10 f   Custsite.obj
 0001:00003d40       ?UpdateUI@XDocHostUIHandler@CCustomControlSite@@UAGJXZ 00404d40 f   Custsite.obj
 0001:00003d40       ?HideUI@XDocHostUIHandler@CCustomControlSite@@UAGJXZ 00404d40 f   Custsite.obj
 0001:00003d70       ?OnFrameWindowActivate@XDocHostUIHandler@CCustomControlSite@@UAGJH@Z 00404d70 f   Custsite.obj
 0001:00003d70       ?EnableModeless@XDocHostUIHandler@CCustomControlSite@@UAGJH@Z 00404d70 f   Custsite.obj
 0001:00003d70       ?OnDocWindowActivate@XDocHostUIHandler@CCustomControlSite@@UAGJH@Z 00404d70 f   Custsite.obj
 0001:00003da0       ?ResizeBorder@XDocHostUIHandler@CCustomControlSite@@UAGJPBUtagRECT@@PAUIOleInPlaceUIWindow@@H@Z 00404da0 f   Custsite.obj
 0001:00003da0       ?TranslateUrl@XDocHostUIHandler@CCustomControlSite@@UAGJKPA_WPAPA_W@Z 00404da0 f   Custsite.obj
 0001:00003dd0       ?ShowContextMenu@XDocHostUIHandler@CCustomControlSite@@UAGJKPAUtagPOINT@@PAUIUnknown@@PAUIDispatch@@@Z 00404dd0 f   Custsite.obj
 0001:00003eb0       ?TranslateAcceleratorA@XDocHostUIHandler@CCustomControlSite@@UAGJPAUtagMSG@@PBU_GUID@@K@Z 00404eb0 f   Custsite.obj
 0001:00003ee0       ?GetDropTarget@XDocHostUIHandler@CCustomControlSite@@UAGJPAUIDropTarget@@PAPAU3@@Z 00404ee0 f   Custsite.obj
 0001:00003ee0       ?FilterDataObject@XDocHostUIHandler@CCustomControlSite@@UAGJPAUIDataObject@@PAPAU3@@Z 00404ee0 f   Custsite.obj
 0001:00003ee0       ?GetOptionKeyPath@XDocHostUIHandler@CCustomControlSite@@UAGJPAPA_WK@Z 00404ee0 f   Custsite.obj
 0001:00003f10       ?CreateSite@CCustomOccManager@@UAEPAVCOleControlSite@@PAVCOleControlContainer@@@Z 00404f10 f   Custsite.obj
 0001:00003f60       ??1CImpIDispatch@@QAE@XZ   00404f60 f   Idispimp.obj
 0001:00003f70       ?AddRef@CImpIDispatch@@UAGKXZ 00404f70 f   Idispimp.obj
 0001:00003f80       ?Release@CImpIDispatch@@UAGKXZ 00404f80 f   Idispimp.obj
 0001:00003f90       ?GetTypeInfoCount@CImpIDispatch@@UAGJPAI@Z 00404f90 f   Idispimp.obj
 0001:00003fa0       ?GetTypeInfo@CImpIDispatch@@UAGJIKPAPAUITypeInfo@@@Z 00404fa0 f   Idispimp.obj
 0001:00003fb0       ?GetIDsOfNames@CImpIDispatch@@UAGJABU_GUID@@PAPA_WIKPAJ@Z 00404fb0 f   Idispimp.obj
 0001:00004030       ?Invoke@CImpIDispatch@@UAGJJABU_GUID@@KGPAUtagDISPPARAMS@@PAUtagVARIANT@@PAUtagEXCEPINFO@@PAI@Z 00405030 f   Idispimp.obj
 0001:000040e0       ?QueryInterface@CImpIDispatch@@UAGJABU_GUID@@PAPAX@Z 004050e0 f   Idispimp.obj
 0001:00004130       ??0CImpIDispatch@@QAE@XZ   00405130 f   Idispimp.obj
 0001:00004140       ?GetRuntimeClass@CGameSetDlg@@UBEPAUCRuntimeClass@@XZ 00405140 f   GameSetDlg.obj
 0001:00004150       ?InitString@CGameSetDlg@@AAEXXZ 00405150 f   GameSetDlg.obj
 0001:00004510       ?GetMessageMap@CGameSetDlg@@MBEPBUAFX_MSGMAP@@XZ 00405510 f   GameSetDlg.obj
 0001:00004520       ?OnInitDialog@CGameSetDlg@@UAEHXZ 00405520 f   GameSetDlg.obj
 0001:00004630       ?OnBnClickedOk@CGameSetDlg@@QAEXXZ 00405630 f   GameSetDlg.obj
 0001:00004650       ?OnBnClickedCheckButton@CGameSetDlg@@QAEXXZ 00405650 f   GameSetDlg.obj
 0001:00004650       ?OnCbnSelchangeCombo@CGameSetDlg@@QAEXXZ 00405650 f   GameSetDlg.obj
 0001:00004680       ?SetHighLevel@CGameSetDlg@@AAEXXZ 00405680 f   GameSetDlg.obj
 0001:00004740       ?SetMediumLevel@CGameSetDlg@@AAEXXZ 00405740 f   GameSetDlg.obj
 0001:00004800       ?SetLowLevel@CGameSetDlg@@AAEXXZ 00405800 f   GameSetDlg.obj
 0001:000048c0       ?Render@CD3DApplication@@MAEJXZ 004058c0 f i EngineLib:d3dapp.obj
 0001:000048c0       ?ToUnknown@TiXmlNode@@UBEPBVTiXmlUnknown@@XZ 004058c0 f i EngineUILib:RanXMLParser.obj
 0001:000048c0       ?ToDocument@TiXmlNode@@UBEPBVTiXmlDocument@@XZ 004058c0 f i EngineUILib:tinyxml.obj
 0001:000048c0       ?FrameMove@CD3DApplication@@MAEJXZ 004058c0 f i EngineLib:d3dapp.obj
 0001:000048c0       ?DeleteDeviceObjects@DxObject@@UAEJXZ 004058c0 f i EngineLib:DxViewPort.obj
 0001:000048c0       ?FinalCleanup@DxObject@@UAEJXZ 004058c0 f i EngineLib:DxViewPort.obj
 0001:000048c0       ?ToElement@TiXmlNode@@UAEPAVTiXmlElement@@XZ 004058c0 f i EngineUILib:RanXMLParser.obj
 0001:000048c0       ?ToDeclaration@TiXmlNode@@UBEPBVTiXmlDeclaration@@XZ 004058c0 f i EngineUILib:RanXMLParser.obj
 0001:000048c0       ?ToText@TiXmlNode@@UBEPBVTiXmlText@@XZ 004058c0 f i EngineUILib:RanXMLParser.obj
 0001:000048c0       ?ToUnknown@TiXmlNode@@UAEPAVTiXmlUnknown@@XZ 004058c0 f i EngineUILib:RanXMLParser.obj
 0001:000048c0       ?RestoreDeviceObjects@CD3DApplication@@MAEJXZ 004058c0 f i EngineLib:d3dapp.obj
 0001:000048c0       ?ToComment@TiXmlNode@@UAEPAVTiXmlComment@@XZ 004058c0 f i EngineUILib:RanXMLParser.obj
 0001:000048c0       ?ToElement@TiXmlNode@@UBEPBVTiXmlElement@@XZ 004058c0 f i EngineUILib:RanXMLParser.obj
 0001:000048c0       ?ToDeclaration@TiXmlNode@@UAEPAVTiXmlDeclaration@@XZ 004058c0 f i EngineUILib:RanXMLParser.obj
 0001:000048c0       ?DeleteDeviceObjects@CD3DApplication@@MAEJXZ 004058c0 f i EngineLib:d3dapp.obj
 0001:000048c0       ?DefaultFindFunc@?$CMList@I@@KAHPAXAAI@Z 004058c0 f i GameSetDlg.obj
 0001:000048c0       ?OneTimeSceneInit@DxObject@@UAEJXZ 004058c0 f i EngineLib:DxViewPort.obj
 0001:000048c0       ?OneTimeSceneInit@CD3DApplication@@MAEJXZ 004058c0 f i EngineLib:d3dapp.obj
 0001:000048c0       ?FinalCleanup@CD3DApplication@@MAEJXZ 004058c0 f i EngineLib:d3dapp.obj
 0001:000048c0       ?DefaultFindFunc@?$CMList@PAUINFO@CDebugSet@@@@KAHPAXAAPAUINFO@CDebugSet@@@Z 004058c0 f i EngineLib:DebugSet.obj
 0001:000048c0       ?InitDeviceObjects@CD3DApplication@@MAEJXZ 004058c0 f i EngineLib:d3dapp.obj
 0001:000048c0       ?InvalidateDeviceObjects@DxObject@@UAEJXZ 004058c0 f i EngineLib:DxViewPort.obj
 0001:000048c0       ?ToText@TiXmlNode@@UAEPAVTiXmlText@@XZ 004058c0 f i EngineUILib:RanXMLParser.obj
 0001:000048c0       ?ToComment@TiXmlNode@@UBEPBVTiXmlComment@@XZ 004058c0 f i EngineUILib:RanXMLParser.obj
 0001:000048c0       ?InvalidateDeviceObjects@CD3DApplication@@MAEJXZ 004058c0 f i EngineLib:d3dapp.obj
 0001:000048c0       ?DeleteDeviceObjects@DxLightMan@@UAEJXZ 004058c0 f i EngineLib:DxLightMan.obj
 0001:000048c0       ?ToDocument@TiXmlNode@@UAEPAVTiXmlDocument@@XZ 004058c0 f i EngineUILib:tinyxml.obj
 0001:000048d0       ?DoDataExchange@CGameSetDlg@@MAEXPAVCDataExchange@@@Z 004058d0 f   GameSetDlg.obj
 0001:000048f0       ?OnBnClickedButtonCompatible@CGameSetDlg@@QAEXXZ 004058f0 f   GameSetDlg.obj
 0001:00004a90       ?OnCbnSelchangeComboHz@CGameSetDlg@@QAEXXZ 00405a90 f   GameSetDlg.obj
 0001:00004ad0       ?OnCbnSelchangeComboDefaultoption@CGameSetDlg@@QAEXXZ 00405ad0 f   GameSetDlg.obj
 0001:00004b60       ?RemoveAll@?$CMList@PAUINFO@CDebugSet@@@@QAEXXZ 00405b60 f i EngineLib:DebugSet.obj
 0001:00004b60       ?RemoveAll@?$CMList@I@@QAEXXZ 00405b60 f i GameSetDlg.obj
 0001:00004bc0       ??1?$CMList@I@@QAE@XZ      00405bc0 f i GameSetDlg.obj
 0001:00004bd0       ??1D3DModeInfo@@QAE@XZ     00405bd0 f i GameSetDlg.obj
 0001:00004be0       ?OnCbnSelchangeComboResolution@CGameSetDlg@@QAEXXZ 00405be0 f   GameSetDlg.obj
 0001:00004e90       ??1D3DDeviceInfo@@QAE@XZ   00405e90 f i GameSetDlg.obj
 0001:00004eb0       ??1D3DAdapterInfo@@QAE@XZ  00405eb0 f i GameSetDlg.obj
 0001:00004ed0       ??1CD3DApplication@@QAE@XZ 00405ed0 f i GameSetDlg.obj
 0001:00004ef0       ??1CGameSetDlg@@UAE@XZ     00405ef0 f   GameSetDlg.obj
 0001:00005010       ??0CGameSetDlg@@QAE@PAVCWnd@@@Z 00406010 f   GameSetDlg.obj
 0001:00005170       ??_ECGameSetDlg@@UAEPAXI@Z 00406170 f i GameSetDlg.obj
 0001:00005170       ??_GCGameSetDlg@@UAEPAXI@Z 00406170 f i GameSetDlg.obj
 0001:00005190       ?InitDlgText@CGameSetDlg@@AAEXXZ 00406190 f   GameSetDlgEx.obj
 0001:000054a0       ?PreTranslateMessage@CGameSetDlg@@UAEHPAUtagMSG@@@Z 004064a0 f   GameSetDlgEx.obj
 0001:00005600       ?InitCtrls@CGameSetDlg@@AAEHXZ 00406600 f   GameSetDlgEx.obj
 0001:000057c0       ?UpdateCtrls@CGameSetDlg@@AAEHXZ 004067c0 f   GameSetDlgEx.obj
 0001:00005bb0       ?InverseUpdateCtrls@CGameSetDlg@@AAEHXZ 00406bb0 f   GameSetDlgEx.obj
 0001:00005e90       ?SetProcessCurPosition@NS_LOG_CONTROL@@YAX_K0@Z 00406e90 f   LogControl.obj
 0001:00005ec0       ?GetProcessCurPosition@NS_LOG_CONTROL@@YAXPA_K0@Z 00406ec0 f   LogControl.obj
 0001:00005ef0       ?GetProcessCurPositionAddr@NS_LOG_CONTROL@@YAXPAPA_K0@Z 00406ef0 f   LogControl.obj
 0001:00005f10       ?SetProcessAllPosition@NS_LOG_CONTROL@@YAX_K0@Z 00406f10 f   LogControl.obj
 0001:00005f40       ?GetProcessAllPosition@NS_LOG_CONTROL@@YAXPA_K0@Z 00406f40 f   LogControl.obj
 0001:00005f70       ?GetRuntimeClass@CAutoPatchThread@@UBEPAUCRuntimeClass@@XZ 00406f70 f   AutoPatchThread.obj
 0001:00005f80       ?VersionUp@CAutoPatchThread@@IAEHH@Z 00406f80 f   AutoPatchThread.obj
 0001:00006080       ?GetMessageMap@CAutoPatchThread@@MBEPBUAFX_MSGMAP@@XZ 00407080 f   AutoPatchThread.obj
 0001:00006080       ?GetMessageMap@CHashCheckThread@@MBEPBUAFX_MSGMAP@@XZ 00407080 f   HashCheckThread.obj
 0001:00006090       ??R?$less@V?$basic_string@DU?$char_traits@D@std@@V?$allocator@D@2@@std@@@std@@QBE_NABV?$basic_string@DU?$char_traits@D@std@@V?$allocator@D@2@@1@0@Z 00407090 f i AutoPatchThread.obj
 0001:000060b0       ?_Max@?$_Tree@V?$_Tmap_traits@V?$basic_string@DU?$char_traits@D@std@@V?$allocator@D@2@@std@@KU?$less@V?$basic_string@DU?$char_traits@D@std@@V?$allocator@D@2@@std@@@2@V?$allocator@U?$pair@$$CBV?$basic_string@DU?$char_traits@D@std@@V?$allocator@D@2@@std@@K@std@@@2@$0A@@std@@@std@@KAPAU_Node@?$_Tree_nod@V?$_Tmap_traits@V?$basic_string@DU?$char_traits@D@std@@V?$allocator@D@2@@std@@KU?$less@V?$basic_string@DU?$char_traits@D@std@@V?$allocator@D@2@@std@@@2@V?$allocator@U?$pair@$$CBV?$basic_string@DU?$char_traits@D@std@@V?$allocator@D@2@@std@@K@std@@@2@$0A@@std@@@2@PAU342@@Z 004070b0 f i EngineLib:TextureManager.obj
 0001:000060b0       ?_Max@?$_Tree@V?$_Tmap_traits@V?$basic_string@DU?$char_traits@D@std@@V?$allocator@D@2@@std@@PAV?$multimap@V?$basic_string@DU?$char_traits@D@std@@V?$allocator@D@2@@std@@PAV?$vector@V?$basic_string@DU?$char_traits@D@std@@V?$allocator@D@2@@std@@V?$allocator@V?$basic_string@DU?$char_traits@D@std@@V?$allocator@D@2@@std@@@2@@2@U?$less@V?$basic_string@DU?$char_traits@D@std@@V?$allocator@D@2@@std@@@2@V?$allocator@U?$pair@$$CBV?$basic_string@DU?$char_traits@D@std@@V?$allocator@D@2@@std@@PAV?$vector@V?$basic_string@DU?$char_traits@D@std@@V?$allocator@D@2@@std@@V?$allocator@V?$basic_string@DU?$char_traits@D@std@@V?$allocator@D@2@@std@@@2@@2@@std@@@2@@2@U?$less@V?$basic_string@DU?$char_traits@D@std@@V?$allocator@D@2@@std@@@2@V?$allocator@U?$pair@$$CBV?$basic_string@DU?$char_traits@D@std@@V?$allocator@D@2@@std@@PAV?$multimap@V?$basic_string@DU?$char_traits@D@std@@V?$allocator@D@2@@std@@PAV?$vector@V?$basic_string@DU?$char_traits@D@std@@V?$allocator@D@2@@std@@V?$allocator@V?$basic_string@DU?$char_traits@D@std@@V?$allocator@D@2@@std@@@2@@2@U?$less@V?$basic_string@DU?$char_traits@D@std@@V?$allocator@D@2@@std@@@2@V?$allocator@U?$pair@$$CBV?$basic_string@DU?$char_traits@D@std@@V?$allocator@D@2@@std@@PAV?$vector@V?$basic_string@DU?$char_traits@D@std@@V?$allocator@D@2@@std@@V?$allocator@V?$basic_string@DU?$char_traits@D@std@@V?$allocator@D@2@@std@@@2@@2@@std@@@2@@2@@std@@@2@$0A@@std@@@std@@KAPAU_Node@?$_Tree_nod@V?$_Tmap_traits@V?$basic_string@DU?$char_traits@D@std@@V?$allocator@D@2@@std@@PAV?$multimap@V?$basic_string@DU?$char_traits@D@std@@V?$allocator@D@2@@std@@PAV?$vector@V?$basic_string@DU?$char_traits@D@std@@V?$allocator@D@2@@std@@V?$allocator@V?$basic_string@DU?$char_traits@D@std@@V?$allocator@D@2@@std@@@2@@2@U?$less@V?$basic_string@DU?$char_traits@D@std@@V?$allocator@D@2@@std@@@2@V?$allocator@U?$pair@$$CBV?$basic_string@DU?$char_traits@D@std@@V?$allocator@D@2@@std@@PAV?$vector@V?$basic_string@DU?$char_traits@D@std@@V?$allocator@D@2@@std@@V?$allocator@V?$basic_string@DU?$char_traits@D@std@@V?$allocator@D@2@@std@@@2@@2@@std@@@2@@2@U?$less@V?$basic_string@DU?$char_traits@D@std@@V?$allocator@D@2@@std@@@2@V?$allocator@U?$pair@$$CBV?$basic_string@DU?$char_traits@D@std@@V?$allocator@D@2@@std@@PAV?$multimap@V?$basic_string@DU?$char_traits@D@std@@V?$allocator@D@2@@std@@PAV?$vector@V?$basic_string@DU?$char_traits@D@std@@V?$allocator@D@2@@std@@V?$allocator@V?$basic_string@DU?$char_traits@D@std@@V?$allocator@D@2@@std@@@2@@2@U?$less@V?$basic_string@DU?$char_traits@D@std@@V?$allocator@D@2@@std@@@2@V?$allocator@U?$pair@$$CBV?$basic_string@DU?$char_traits@D@std@@V?$allocator@D@2@@std@@PAV?$vector@V?$basic_string@DU?$char_traits@D@std@@V?$allocator@D@2@@std@@V?$allocator@V?$basic_string@DU?$char_traits@D@std@@V?$allocator@D@2@@std@@@2@@2@@std@@@2@@2@@std@@@2@$0A@@std@@@2@PAU342@@Z 004070b0 f i EngineLib:IniLoader.obj
 0001:000060b0       ?_Max@?$_Tree@V?$_Tmap_traits@V?$basic_string@DU?$char_traits@D@std@@V?$allocator@D@2@@std@@PAUSTATICDATA@NSSTATICMESH@@U?$less@V?$basic_string@DU?$char_traits@D@std@@V?$allocator@D@2@@std@@@2@V?$allocator@U?$pair@$$CBV?$basic_string@DU?$char_traits@D@std@@V?$allocator@D@2@@std@@PAUSTATICDATA@NSSTATICMESH@@@std@@@2@$0A@@std@@@std@@KAPAU_Node@?$_Tree_nod@V?$_Tmap_traits@V?$basic_string@DU?$char_traits@D@std@@V?$allocator@D@2@@std@@PAUSTATICDATA@NSSTATICMESH@@U?$less@V?$basic_string@DU?$char_traits@D@std@@V?$allocator@D@2@@std@@@2@V?$allocator@U?$pair@$$CBV?$basic_string@DU?$char_traits@D@std@@V?$allocator@D@2@@std@@PAUSTATICDATA@NSSTATICMESH@@@std@@@2@$0A@@std@@@2@PAU342@@Z 004070b0 f i EngineLib:DxStaticMesh.obj
 0001:000060b0       ?_Max@?$_Tree@V?$_Tmap_traits@V?$basic_string@DU?$char_traits@D@std@@V?$allocator@D@2@@std@@PAUSFILENODE@@U?$less@V?$basic_string@DU?$char_traits@D@std@@V?$allocator@D@2@@std@@@2@V?$allocator@U?$pair@$$CBV?$basic_string@DU?$char_traits@D@std@@V?$allocator@D@2@@std@@PAUSFILENODE@@@std@@@2@$0A@@std@@@std@@KAPAU_Node@?$_Tree_nod@V?$_Tmap_traits@V?$basic_string@DU?$char_traits@D@std@@V?$allocator@D@2@@std@@PAUSFILENODE@@U?$less@V?$basic_string@DU?$char_traits@D@std@@V?$allocator@D@2@@std@@@2@V?$allocator@U?$pair@$$CBV?$basic_string@DU?$char_traits@D@std@@V?$allocator@D@2@@std@@PAUSFILENODE@@@std@@@2@$0A@@std@@@2@PAU342@@Z 004070b0 f i AutoPatchThread.obj
 0001:000060b0       ?_Max@?$_Tree@V?$_Tmap_traits@V?$basic_string@DU?$char_traits@D@std@@V?$allocator@D@2@@std@@PAVTextureContainer@TextureManager@@U?$less@V?$basic_string@DU?$char_traits@D@std@@V?$allocator@D@2@@std@@@2@V?$allocator@U?$pair@$$CBV?$basic_string@DU?$char_traits@D@std@@V?$allocator@D@2@@std@@PAVTextureContainer@TextureManager@@@std@@@2@$0A@@std@@@std@@KAPAU_Node@?$_Tree_nod@V?$_Tmap_traits@V?$basic_string@DU?$char_traits@D@std@@V?$allocator@D@2@@std@@PAVTextureContainer@TextureManager@@U?$less@V?$basic_string@DU?$char_traits@D@std@@V?$allocator@D@2@@std@@@2@V?$allocator@U?$pair@$$CBV?$basic_string@DU?$char_traits@D@std@@V?$allocator@D@2@@std@@PAVTextureContainer@TextureManager@@@std@@@2@$0A@@std@@@2@PAU342@@Z 004070b0 f i EngineLib:TextureManager.obj
 0001:000060b0       ?_Max@?$_Tree@V?$_Tmap_traits@V?$basic_string@DU?$char_traits@D@std@@V?$allocator@D@2@@std@@PAVCStringArray@@U?$less@V?$basic_string@DU?$char_traits@D@std@@V?$allocator@D@2@@std@@@2@V?$allocator@U?$pair@$$CBV?$basic_string@DU?$char_traits@D@std@@V?$allocator@D@2@@std@@PAVCStringArray@@@std@@@2@$0A@@std@@@std@@KAPAU_Node@?$_Tree_nod@V?$_Tmap_traits@V?$basic_string@DU?$char_traits@D@std@@V?$allocator@D@2@@std@@PAVCStringArray@@U?$less@V?$basic_string@DU?$char_traits@D@std@@V?$allocator@D@2@@std@@@2@V?$allocator@U?$pair@$$CBV?$basic_string@DU?$char_traits@D@std@@V?$allocator@D@2@@std@@PAVCStringArray@@@std@@@2@$0A@@std@@@2@PAU342@@Z 004070b0 f i LauncherText.obj
 0001:000060b0       ?_Max@?$_Tree@V?$_Tmap_traits@V?$basic_string@DU?$char_traits@D@std@@V?$allocator@D@2@@std@@PAV?$vector@V?$basic_string@DU?$char_traits@D@std@@V?$allocator@D@2@@std@@V?$allocator@V?$basic_string@DU?$char_traits@D@std@@V?$allocator@D@2@@std@@@2@@2@U?$less@V?$basic_string@DU?$char_traits@D@std@@V?$allocator@D@2@@std@@@2@V?$allocator@U?$pair@$$CBV?$basic_string@DU?$char_traits@D@std@@V?$allocator@D@2@@std@@PAV?$vector@V?$basic_string@DU?$char_traits@D@std@@V?$allocator@D@2@@std@@V?$allocator@V?$basic_string@DU?$char_traits@D@std@@V?$allocator@D@2@@std@@@2@@2@@std@@@2@$00@std@@@std@@KAPAU_Node@?$_Tree_nod@V?$_Tmap_traits@V?$basic_string@DU?$char_traits@D@std@@V?$allocator@D@2@@std@@PAV?$vector@V?$basic_string@DU?$char_traits@D@std@@V?$allocator@D@2@@std@@V?$allocator@V?$basic_string@DU?$char_traits@D@std@@V?$allocator@D@2@@std@@@2@@2@U?$less@V?$basic_string@DU?$char_traits@D@std@@V?$allocator@D@2@@std@@@2@V?$allocator@U?$pair@$$CBV?$basic_string@DU?$char_traits@D@std@@V?$allocator@D@2@@std@@PAV?$vector@V?$basic_string@DU?$char_traits@D@std@@V?$allocator@D@2@@std@@V?$allocator@V?$basic_string@DU?$char_traits@D@std@@V?$allocator@D@2@@std@@@2@@2@@std@@@2@$00@std@@@2@PAU342@@Z 004070b0 f i EngineLib:IniLoader.obj
 0001:000060d0       ??$fill@PAPAUSFILENODE@@PAU1@@std@@YAXPAPAUSFILENODE@@0ABQAU1@@Z 004070d0 f i AutoPatchThread.obj
 0001:000060d0       ??$fill@PAViterator@?$list@U?$pair@$$CBV?$basic_string@DU?$char_traits@D@std@@V?$allocator@D@2@@std@@PAUSSoundEx@@@std@@V?$allocator@U?$pair@$$CBV?$basic_string@DU?$char_traits@D@std@@V?$allocator@D@2@@std@@PAUSSoundEx@@@std@@@2@@std@@V123@@std@@YAXPAViterator@?$list@U?$pair@$$CBV?$basic_string@DU?$char_traits@D@std@@V?$allocator@D@2@@std@@PAUSSoundEx@@@std@@V?$allocator@U?$pair@$$CBV?$basic_string@DU?$char_traits@D@std@@V?$allocator@D@2@@std@@PAUSSoundEx@@@std@@@2@@0@0ABV120@@Z 004070d0 f i EngineSoundLib:DxSoundLib.obj
 0001:000060f0       ??1logic_error@std@@UAE@XZ 004070f0 f i AutoPatchThread.obj
 0001:00006150       ?what@logic_error@std@@UBEPBDXZ 00407150 f i AutoPatchThread.obj
 0001:00006160       ??_Glogic_error@std@@UAEPAXI@Z 00407160 f i AutoPatchThread.obj
 0001:00006160       ??_Elogic_error@std@@UAEPAXI@Z 00407160 f i AutoPatchThread.obj
 0001:00006180       ??_Glength_error@std@@UAEPAXI@Z 00407180 f i AutoPatchThread.obj
 0001:00006180       ??_Elength_error@std@@UAEPAXI@Z 00407180 f i AutoPatchThread.obj
 0001:000061a0       ??1length_error@std@@UAE@XZ 004071a0 f i AutoPatchThread.obj
 0001:000061b0       ??_Gout_of_range@std@@UAEPAXI@Z 004071b0 f i AutoPatchThread.obj
 0001:000061b0       ??_Eout_of_range@std@@UAEPAXI@Z 004071b0 f i AutoPatchThread.obj
 0001:000061d0       ??1out_of_range@std@@UAE@XZ 004071d0 f i AutoPatchThread.obj
 0001:000061e0       ??0SFILENODE@@QAE@XZ       004071e0 f i AutoPatchThread.obj
 0001:00006220       ?_Xlen@?$vector@PAUSFILENODE@@V?$allocator@PAUSFILENODE@@@std@@@std@@IBEXXZ 00407220 f i AutoPatchThread.obj
 0001:000062a0       ??0logic_error@std@@QAE@ABV01@@Z 004072a0 f i AutoPatchThread.obj
 0001:00006300       ??0length_error@std@@QAE@ABV01@@Z 00407300 f i AutoPatchThread.obj
 0001:00006320       ?_Inc@const_iterator@?$_Tree@V?$_Tmap_traits@V?$basic_string@DU?$char_traits@D@std@@V?$allocator@D@2@@std@@PAV?$vector@V?$basic_string@DU?$char_traits@D@std@@V?$allocator@D@2@@std@@V?$allocator@V?$basic_string@DU?$char_traits@D@std@@V?$allocator@D@2@@std@@@2@@2@U?$less@V?$basic_string@DU?$char_traits@D@std@@V?$allocator@D@2@@std@@@2@V?$allocator@U?$pair@$$CBV?$basic_string@DU?$char_traits@D@std@@V?$allocator@D@2@@std@@PAV?$vector@V?$basic_string@DU?$char_traits@D@std@@V?$allocator@D@2@@std@@V?$allocator@V?$basic_string@DU?$char_traits@D@std@@V?$allocator@D@2@@std@@@2@@2@@std@@@2@$00@std@@@std@@QAEXXZ 00407320 f i EngineLib:IniLoader.obj
 0001:00006320       ?_Inc@const_iterator@?$_Tree@V?$_Tmap_traits@V?$basic_string@DU?$char_traits@D@std@@V?$allocator@D@2@@std@@PAVTextureContainer@TextureManager@@U?$less@V?$basic_string@DU?$char_traits@D@std@@V?$allocator@D@2@@std@@@2@V?$allocator@U?$pair@$$CBV?$basic_string@DU?$char_traits@D@std@@V?$allocator@D@2@@std@@PAVTextureContainer@TextureManager@@@std@@@2@$0A@@std@@@std@@QAEXXZ 00407320 f i EngineLib:TextureManager.obj
 0001:00006320       ?_Inc@const_iterator@?$_Tree@V?$_Tmap_traits@V?$basic_string@DU?$char_traits@D@std@@V?$allocator@D@2@@std@@PAVCStringArray@@U?$less@V?$basic_string@DU?$char_traits@D@std@@V?$allocator@D@2@@std@@@2@V?$allocator@U?$pair@$$CBV?$basic_string@DU?$char_traits@D@std@@V?$allocator@D@2@@std@@PAVCStringArray@@@std@@@2@$0A@@std@@@std@@QAEXXZ 00407320 f i LauncherText.obj
 0001:00006320       ?_Inc@const_iterator@?$_Tree@V?$_Tmap_traits@V?$basic_string@DU?$char_traits@D@std@@V?$allocator@D@2@@std@@PAUSTATICDATA@NSSTATICMESH@@U?$less@V?$basic_string@DU?$char_traits@D@std@@V?$allocator@D@2@@std@@@2@V?$allocator@U?$pair@$$CBV?$basic_string@DU?$char_traits@D@std@@V?$allocator@D@2@@std@@PAUSTATICDATA@NSSTATICMESH@@@std@@@2@$0A@@std@@@std@@QAEXXZ 00407320 f i EngineLib:DxStaticMesh.obj
 0001:00006320       ?_Inc@const_iterator@?$_Tree@V?$_Tmap_traits@V?$basic_string@DU?$char_traits@D@std@@V?$allocator@D@2@@std@@PAUSFILENODE@@U?$less@V?$basic_string@DU?$char_traits@D@std@@V?$allocator@D@2@@std@@@2@V?$allocator@U?$pair@$$CBV?$basic_string@DU?$char_traits@D@std@@V?$allocator@D@2@@std@@PAUSFILENODE@@@std@@@2@$0A@@std@@@std@@QAEXXZ 00407320 f i AutoPatchThread.obj
 0001:00006320       ?_Inc@const_iterator@?$_Tree@V?$_Tmap_traits@V?$basic_string@DU?$char_traits@D@std@@V?$allocator@D@2@@std@@PAV?$multimap@V?$basic_string@DU?$char_traits@D@std@@V?$allocator@D@2@@std@@PAV?$vector@V?$basic_string@DU?$char_traits@D@std@@V?$allocator@D@2@@std@@V?$allocator@V?$basic_string@DU?$char_traits@D@std@@V?$allocator@D@2@@std@@@2@@2@U?$less@V?$basic_string@DU?$char_traits@D@std@@V?$allocator@D@2@@std@@@2@V?$allocator@U?$pair@$$CBV?$basic_string@DU?$char_traits@D@std@@V?$allocator@D@2@@std@@PAV?$vector@V?$basic_string@DU?$char_traits@D@std@@V?$allocator@D@2@@std@@V?$allocator@V?$basic_string@DU?$char_traits@D@std@@V?$allocator@D@2@@std@@@2@@2@@std@@@2@@2@U?$less@V?$basic_string@DU?$char_traits@D@std@@V?$allocator@D@2@@std@@@2@V?$allocator@U?$pair@$$CBV?$basic_string@DU?$char_traits@D@std@@V?$allocator@D@2@@std@@PAV?$multimap@V?$basic_string@DU?$char_traits@D@std@@V?$allocator@D@2@@std@@PAV?$vector@V?$basic_string@DU?$char_traits@D@std@@V?$allocator@D@2@@std@@V?$allocator@V?$basic_string@DU?$char_traits@D@std@@V?$allocator@D@2@@std@@@2@@2@U?$less@V?$basic_string@DU?$char_traits@D@std@@V?$allocator@D@2@@std@@@2@V?$allocator@U?$pair@$$CBV?$basic_string@DU?$char_traits@D@std@@V?$allocator@D@2@@std@@PAV?$vector@V?$basic_string@DU?$char_traits@D@std@@V?$allocator@D@2@@std@@V?$allocator@V?$basic_string@DU?$char_traits@D@std@@V?$allocator@D@2@@std@@@2@@2@@std@@@2@@2@@std@@@2@$0A@@std@@@std@@QAEXXZ 00407320 f i EngineLib:IniLoader.obj
 0001:00006320       ?_Inc@const_iterator@?$_Tree@V?$_Tmap_traits@V?$basic_string@DU?$char_traits@D@std@@V?$allocator@D@2@@std@@KU?$less@V?$basic_string@DU?$char_traits@D@std@@V?$allocator@D@2@@std@@@2@V?$allocator@U?$pair@$$CBV?$basic_string@DU?$char_traits@D@std@@V?$allocator@D@2@@std@@K@std@@@2@$0A@@std@@@std@@QAEXXZ 00407320 f i EngineLib:TextureManager.obj
 0001:00006380       ??$make_pair@V?$basic_string@DU?$char_traits@D@std@@V?$allocator@D@2@@std@@PAUSFILENODE@@@std@@YA?AU?$pair@V?$basic_string@DU?$char_traits@D@std@@V?$allocator@D@2@@std@@PAUSFILENODE@@@0@V?$basic_string@DU?$char_traits@D@std@@V?$allocator@D@2@@0@PAUSFILENODE@@@Z 00407380 f i AutoPatchThread.obj
 0001:000063f0       ??$copy_backward@PAPAUSFILENODE@@PAPAU1@@std@@YAPAPAUSFILENODE@@PAPAU1@00@Z 004073f0 f i AutoPatchThread.obj
 0001:00006420       ?_Buynode@?$_Tree@V?$_Tmap_traits@V?$basic_string@DU?$char_traits@D@std@@V?$allocator@D@2@@std@@PAUSFILENODE@@U?$less@V?$basic_string@DU?$char_traits@D@std@@V?$allocator@D@2@@std@@@2@V?$allocator@U?$pair@$$CBV?$basic_string@DU?$char_traits@D@std@@V?$allocator@D@2@@std@@PAUSFILENODE@@@std@@@2@$0A@@std@@@std@@IAEPAU_Node@?$_Tree_nod@V?$_Tmap_traits@V?$basic_string@DU?$char_traits@D@std@@V?$allocator@D@2@@std@@PAUSFILENODE@@U?$less@V?$basic_string@DU?$char_traits@D@std@@V?$allocator@D@2@@std@@@2@V?$allocator@U?$pair@$$CBV?$basic_string@DU?$char_traits@D@std@@V?$allocator@D@2@@std@@PAUSFILENODE@@@std@@@2@$0A@@std@@@2@PAU342@00ABU?$pair@$$CBV?$basic_string@DU?$char_traits@D@std@@V?$allocator@D@2@@std@@PAUSFILENODE@@@2@D@Z 00407420 f i AutoPatchThread.obj
 0001:000064c0       ?_Buynode@?$_Tree@V?$_Tmap_traits@V?$basic_string@DU?$char_traits@D@std@@V?$allocator@D@2@@std@@PAVTextureContainer@TextureManager@@U?$less@V?$basic_string@DU?$char_traits@D@std@@V?$allocator@D@2@@std@@@2@V?$allocator@U?$pair@$$CBV?$basic_string@DU?$char_traits@D@std@@V?$allocator@D@2@@std@@PAVTextureContainer@TextureManager@@@std@@@2@$0A@@std@@@std@@IAEPAU_Node@?$_Tree_nod@V?$_Tmap_traits@V?$basic_string@DU?$char_traits@D@std@@V?$allocator@D@2@@std@@PAVTextureContainer@TextureManager@@U?$less@V?$basic_string@DU?$char_traits@D@std@@V?$allocator@D@2@@std@@@2@V?$allocator@U?$pair@$$CBV?$basic_string@DU?$char_traits@D@std@@V?$allocator@D@2@@std@@PAVTextureContainer@TextureManager@@@std@@@2@$0A@@std@@@2@XZ 004074c0 f i EngineLib:TextureManager.obj
 0001:000064c0       ?_Buynode@?$_Tree@V?$_Tmap_traits@V?$basic_string@DU?$char_traits@D@std@@V?$allocator@D@2@@std@@PAUSTATICDATA@NSSTATICMESH@@U?$less@V?$basic_string@DU?$char_traits@D@std@@V?$allocator@D@2@@std@@@2@V?$allocator@U?$pair@$$CBV?$basic_string@DU?$char_traits@D@std@@V?$allocator@D@2@@std@@PAUSTATICDATA@NSSTATICMESH@@@std@@@2@$0A@@std@@@std@@IAEPAU_Node@?$_Tree_nod@V?$_Tmap_traits@V?$basic_string@DU?$char_traits@D@std@@V?$allocator@D@2@@std@@PAUSTATICDATA@NSSTATICMESH@@U?$less@V?$basic_string@DU?$char_traits@D@std@@V?$allocator@D@2@@std@@@2@V?$allocator@U?$pair@$$CBV?$basic_string@DU?$char_traits@D@std@@V?$allocator@D@2@@std@@PAUSTATICDATA@NSSTATICMESH@@@std@@@2@$0A@@std@@@2@XZ 004074c0 f i EngineLib:DxStaticMesh.obj
 0001:000064c0       ?_Buynode@?$_Tree@V?$_Tmap_traits@V?$basic_string@DU?$char_traits@D@std@@V?$allocator@D@2@@std@@PAV?$multimap@V?$basic_string@DU?$char_traits@D@std@@V?$allocator@D@2@@std@@PAV?$vector@V?$basic_string@DU?$char_traits@D@std@@V?$allocator@D@2@@std@@V?$allocator@V?$basic_string@DU?$char_traits@D@std@@V?$allocator@D@2@@std@@@2@@2@U?$less@V?$basic_string@DU?$char_traits@D@std@@V?$allocator@D@2@@std@@@2@V?$allocator@U?$pair@$$CBV?$basic_string@DU?$char_traits@D@std@@V?$allocator@D@2@@std@@PAV?$vector@V?$basic_string@DU?$char_traits@D@std@@V?$allocator@D@2@@std@@V?$allocator@V?$basic_string@DU?$char_traits@D@std@@V?$allocator@D@2@@std@@@2@@2@@std@@@2@@2@U?$less@V?$basic_string@DU?$char_traits@D@std@@V?$allocator@D@2@@std@@@2@V?$allocator@U?$pair@$$CBV?$basic_string@DU?$char_traits@D@std@@V?$allocator@D@2@@std@@PAV?$multimap@V?$basic_string@DU?$char_traits@D@std@@V?$allocator@D@2@@std@@PAV?$vector@V?$basic_string@DU?$char_traits@D@std@@V?$allocator@D@2@@std@@V?$allocator@V?$basic_string@DU?$char_traits@D@std@@V?$allocator@D@2@@std@@@2@@2@U?$less@V?$basic_string@DU?$char_traits@D@std@@V?$allocator@D@2@@std@@@2@V?$allocator@U?$pair@$$CBV?$basic_string@DU?$char_traits@D@std@@V?$allocator@D@2@@std@@PAV?$vector@V?$basic_string@DU?$char_traits@D@std@@V?$allocator@D@2@@std@@V?$allocator@V?$basic_string@DU?$char_traits@D@std@@V?$allocator@D@2@@std@@@2@@2@@std@@@2@@2@@std@@@2@$0A@@std@@@std@@IAEPAU_Node@?$_Tree_nod@V?$_Tmap_traits@V?$basic_string@DU?$char_traits@D@std@@V?$allocator@D@2@@std@@PAV?$multimap@V?$basic_string@DU?$char_traits@D@std@@V?$allocator@D@2@@std@@PAV?$vector@V?$basic_string@DU?$char_traits@D@std@@V?$allocator@D@2@@std@@V?$allocator@V?$basic_string@DU?$char_traits@D@std@@V?$allocator@D@2@@std@@@2@@2@U?$less@V?$basic_string@DU?$char_traits@D@std@@V?$allocator@D@2@@std@@@2@V?$allocator@U?$pair@$$CBV?$basic_string@DU?$char_traits@D@std@@V?$allocator@D@2@@std@@PAV?$vector@V?$basic_string@DU?$char_traits@D@std@@V?$allocator@D@2@@std@@V?$allocator@V?$basic_string@DU?$char_traits@D@std@@V?$allocator@D@2@@std@@@2@@2@@std@@@2@@2@U?$less@V?$basic_string@DU?$char_traits@D@std@@V?$allocator@D@2@@std@@@2@V?$allocator@U?$pair@$$CBV?$basic_string@DU?$char_traits@D@std@@V?$allocator@D@2@@std@@PAV?$multimap@V?$basic_string@DU?$char_traits@D@std@@V?$allocator@D@2@@std@@PAV?$vector@V?$basic_string@DU?$char_traits@D@std@@V?$allocator@D@2@@std@@V?$allocator@V?$basic_string@DU?$char_traits@D@std@@V?$allocator@D@2@@std@@@2@@2@U?$less@V?$basic_string@DU?$char_traits@D@std@@V?$allocator@D@2@@std@@@2@V?$allocator@U?$pair@$$CBV?$basic_string@DU?$char_traits@D@std@@V?$allocator@D@2@@std@@PAV?$vector@V?$basic_string@DU?$char_traits@D@std@@V?$allocator@D@2@@std@@V?$allocator@V?$basic_string@DU?$char_traits@D@std@@V?$allocator@D@2@@std@@@2@@2@@std@@@2@@2@@std@@@2@$0A@@std@@@2@XZ 004074c0 f i EngineLib:IniLoader.obj
 0001:000064c0       ?_Buynode@?$_Tree@V?$_Tmap_traits@V?$basic_string@DU?$char_traits@D@std@@V?$allocator@D@2@@std@@PAV?$vector@V?$basic_string@DU?$char_traits@D@std@@V?$allocator@D@2@@std@@V?$allocator@V?$basic_string@DU?$char_traits@D@std@@V?$allocator@D@2@@std@@@2@@2@U?$less@V?$basic_string@DU?$char_traits@D@std@@V?$allocator@D@2@@std@@@2@V?$allocator@U?$pair@$$CBV?$basic_string@DU?$char_traits@D@std@@V?$allocator@D@2@@std@@PAV?$vector@V?$basic_string@DU?$char_traits@D@std@@V?$allocator@D@2@@std@@V?$allocator@V?$basic_string@DU?$char_traits@D@std@@V?$allocator@D@2@@std@@@2@@2@@std@@@2@$00@std@@@std@@IAEPAU_Node@?$_Tree_nod@V?$_Tmap_traits@V?$basic_string@DU?$char_traits@D@std@@V?$allocator@D@2@@std@@PAV?$vector@V?$basic_string@DU?$char_traits@D@std@@V?$allocator@D@2@@std@@V?$allocator@V?$basic_string@DU?$char_traits@D@std@@V?$allocator@D@2@@std@@@2@@2@U?$less@V?$basic_string@DU?$char_traits@D@std@@V?$allocator@D@2@@std@@@2@V?$allocator@U?$pair@$$CBV?$basic_string@DU?$char_traits@D@std@@V?$allocator@D@2@@std@@PAV?$vector@V?$basic_string@DU?$char_traits@D@std@@V?$allocator@D@2@@std@@V?$allocator@V?$basic_string@DU?$char_traits@D@std@@V?$allocator@D@2@@std@@@2@@2@@std@@@2@$00@std@@@2@XZ 004074c0 f i EngineLib:IniLoader.obj
 0001:000064c0       ?_Buynode@?$_Tree@V?$_Tmap_traits@V?$basic_string@DU?$char_traits@D@std@@V?$allocator@D@2@@std@@KU?$less@V?$basic_string@DU?$char_traits@D@std@@V?$allocator@D@2@@std@@@2@V?$allocator@U?$pair@$$CBV?$basic_string@DU?$char_traits@D@std@@V?$allocator@D@2@@std@@K@std@@@2@$0A@@std@@@std@@IAEPAU_Node@?$_Tree_nod@V?$_Tmap_traits@V?$basic_string@DU?$char_traits@D@std@@V?$allocator@D@2@@std@@KU?$less@V?$basic_string@DU?$char_traits@D@std@@V?$allocator@D@2@@std@@@2@V?$allocator@U?$pair@$$CBV?$basic_string@DU?$char_traits@D@std@@V?$allocator@D@2@@std@@K@std@@@2@$0A@@std@@@2@XZ 004074c0 f i EngineLib:TextureManager.obj
 0001:000064c0       ?_Buynode@?$_Tree@V?$_Tmap_traits@V?$basic_string@DU?$char_traits@D@std@@V?$allocator@D@2@@std@@PAUSFILENODE@@U?$less@V?$basic_string@DU?$char_traits@D@std@@V?$allocator@D@2@@std@@@2@V?$allocator@U?$pair@$$CBV?$basic_string@DU?$char_traits@D@std@@V?$allocator@D@2@@std@@PAUSFILENODE@@@std@@@2@$0A@@std@@@std@@IAEPAU_Node@?$_Tree_nod@V?$_Tmap_traits@V?$basic_string@DU?$char_traits@D@std@@V?$allocator@D@2@@std@@PAUSFILENODE@@U?$less@V?$basic_string@DU?$char_traits@D@std@@V?$allocator@D@2@@std@@@2@V?$allocator@U?$pair@$$CBV?$basic_string@DU?$char_traits@D@std@@V?$allocator@D@2@@std@@PAUSFILENODE@@@std@@@2@$0A@@std@@@2@XZ 004074c0 f i AutoPatchThread.obj
 0001:000064c0       ?_Buynode@?$_Tree@V?$_Tmap_traits@V?$basic_string@DU?$char_traits@D@std@@V?$allocator@D@2@@std@@PAVCStringArray@@U?$less@V?$basic_string@DU?$char_traits@D@std@@V?$allocator@D@2@@std@@@2@V?$allocator@U?$pair@$$CBV?$basic_string@DU?$char_traits@D@std@@V?$allocator@D@2@@std@@PAVCStringArray@@@std@@@2@$0A@@std@@@std@@IAEPAU_Node@?$_Tree_nod@V?$_Tmap_traits@V?$basic_string@DU?$char_traits@D@std@@V?$allocator@D@2@@std@@PAVCStringArray@@U?$less@V?$basic_string@DU?$char_traits@D@std@@V?$allocator@D@2@@std@@@2@V?$allocator@U?$pair@$$CBV?$basic_string@DU?$char_traits@D@std@@V?$allocator@D@2@@std@@PAVCStringArray@@@std@@@2@$0A@@std@@@2@XZ 004074c0 f i LauncherText.obj
 0001:00006500       ??$_Ucopy@PAPAUSFILENODE@@@?$vector@PAUSFILENODE@@V?$allocator@PAUSFILENODE@@@std@@@std@@IAEPAPAUSFILENODE@@PAPAU2@00@Z 00407500 f i AutoPatchThread.obj
 0001:00006530       ?_Ufill@?$vector@PAUSFILENODE@@V?$allocator@PAUSFILENODE@@@std@@@std@@IAEPAPAUSFILENODE@@PAPAU3@IABQAU3@@Z 00407530 f i AutoPatchThread.obj
 0001:00006560       ?_Insert@?$_Tree@V?$_Tmap_traits@V?$basic_string@DU?$char_traits@D@std@@V?$allocator@D@2@@std@@PAUSFILENODE@@U?$less@V?$basic_string@DU?$char_traits@D@std@@V?$allocator@D@2@@std@@@2@V?$allocator@U?$pair@$$CBV?$basic_string@DU?$char_traits@D@std@@V?$allocator@D@2@@std@@PAUSFILENODE@@@std@@@2@$0A@@std@@@std@@IAE?AViterator@12@_NPAU_Node@?$_Tree_nod@V?$_Tmap_traits@V?$basic_string@DU?$char_traits@D@std@@V?$allocator@D@2@@std@@PAUSFILENODE@@U?$less@V?$basic_string@DU?$char_traits@D@std@@V?$allocator@D@2@@std@@@2@V?$allocator@U?$pair@$$CBV?$basic_string@DU?$char_traits@D@std@@V?$allocator@D@2@@std@@PAUSFILENODE@@@std@@@2@$0A@@std@@@2@ABU?$pair@$$CBV?$basic_string@DU?$char_traits@D@std@@V?$allocator@D@2@@std@@PAUSFILENODE@@@2@@Z 00407560 f i AutoPatchThread.obj
 0001:00006720       ?_Insert_n@?$vector@PAUSFILENODE@@V?$allocator@PAUSFILENODE@@@std@@@std@@IAEXViterator@12@IABQAUSFILENODE@@@Z 00407720 f i AutoPatchThread.obj
 0001:00006910       ?erase@?$_Tree@V?$_Tmap_traits@V?$basic_string@DU?$char_traits@D@std@@V?$allocator@D@2@@std@@PAUSFILENODE@@U?$less@V?$basic_string@DU?$char_traits@D@std@@V?$allocator@D@2@@std@@@2@V?$allocator@U?$pair@$$CBV?$basic_string@DU?$char_traits@D@std@@V?$allocator@D@2@@std@@PAUSFILENODE@@@std@@@2@$0A@@std@@@std@@QAE?AViterator@12@V312@@Z 00407910 f i AutoPatchThread.obj
 0001:00006bf0       ??0out_of_range@std@@QAE@ABV01@@Z 00407bf0 f i AutoPatchThread.obj
 0001:00006c10       ?SaveDownList@CAutoPatchThread@@IAEHH@Z 00407c10 f   AutoPatchThread.obj
 0001:00006e10       ?SaveCopyList@CAutoPatchThread@@IAEHH@Z 00407e10 f   AutoPatchThread.obj
 0001:00007010       ?DeleteNotFoundFile@CAutoPatchThread@@IAEHXZ 00408010 f   AutoPatchThread.obj
 0001:00007190       ?DeleteDownFiles@CAutoPatchThread@@IAEHXZ 00408190 f   AutoPatchThread.obj
 0001:000072b0       ??1?$vector@PAUHICON__@@V?$allocator@PAUHICON__@@@std@@@std@@QAE@XZ 004082b0 f i EngineUILib:Cursor.obj
 0001:000072b0       ??1?$vector@PAUSFILENODE@@V?$allocator@PAUSFILENODE@@@std@@@std@@QAE@XZ 004082b0 f i AutoPatchThread.obj
 0001:000072b0       ??1?$vector@PAUAttributeIB@@V?$allocator@PAUAttributeIB@@@std@@@std@@QAE@XZ 004082b0 f i EngineLib:NsSMeshSceneGraph.obj
 0001:000072b0       ?_Tidy@?$vector@Viterator@?$list@U?$pair@$$CBV?$basic_string@DU?$char_traits@D@std@@V?$allocator@D@2@@std@@PAUSSoundEx@@@std@@V?$allocator@U?$pair@$$CBV?$basic_string@DU?$char_traits@D@std@@V?$allocator@D@2@@std@@PAUSSoundEx@@@std@@@2@@std@@V?$allocator@Viterator@?$list@U?$pair@$$CBV?$basic_string@DU?$char_traits@D@std@@V?$allocator@D@2@@std@@PAUSSoundEx@@@std@@V?$allocator@U?$pair@$$CBV?$basic_string@DU?$char_traits@D@std@@V?$allocator@D@2@@std@@PAUSSoundEx@@@std@@@2@@std@@@3@@std@@IAEXXZ 004082b0 f i EngineSoundLib:DxSoundLib.obj
 0001:000072b0       ??1?$vector@USONEMAPWEATHER@@V?$allocator@USONEMAPWEATHER@@@std@@@std@@QAE@XZ 004082b0 f i EngineLib:DxWeatherMan.obj
 0001:000072b0       ?_Tidy@?$vector@USONEMAPWEATHER@@V?$allocator@USONEMAPWEATHER@@@std@@@std@@IAEXXZ 004082b0 f i EngineLib:DxWeatherMan.obj
 0001:000072b0       ??1?$vector@PAVDXLIGHT@@V?$allocator@PAVDXLIGHT@@@std@@@std@@QAE@XZ 004082b0 f i EngineLib:DxLightMan.obj
 0001:000072b0       ?Clear@CSEPARATOR@@QAEXXZ  004082b0 f i EngineLib:StringUtils.obj
 0001:000072b0       ??1?$vector@PAVDxDynamicMesh@@V?$allocator@PAVDxDynamicMesh@@@std@@@std@@QAE@XZ 004082b0 f i EngineLib:NsSMeshSceneGraph.obj
 0001:000072b0       ??1CSEPARATOR@@QAE@XZ      004082b0 f i EngineLib:gltexfile.obj
 0001:000072e0       ?insert@?$_Tree@V?$_Tmap_traits@V?$basic_string@DU?$char_traits@D@std@@V?$allocator@D@2@@std@@PAUSFILENODE@@U?$less@V?$basic_string@DU?$char_traits@D@std@@V?$allocator@D@2@@std@@@2@V?$allocator@U?$pair@$$CBV?$basic_string@DU?$char_traits@D@std@@V?$allocator@D@2@@std@@PAUSFILENODE@@@std@@@2@$0A@@std@@@std@@QAE?AU?$pair@Viterator@?$_Tree@V?$_Tmap_traits@V?$basic_string@DU?$char_traits@D@std@@V?$allocator@D@2@@std@@PAUSFILENODE@@U?$less@V?$basic_string@DU?$char_traits@D@std@@V?$allocator@D@2@@std@@@2@V?$allocator@U?$pair@$$CBV?$basic_string@DU?$char_traits@D@std@@V?$allocator@D@2@@std@@PAUSFILENODE@@@std@@@2@$0A@@std@@@std@@_N@2@ABU?$pair@$$CBV?$basic_string@DU?$char_traits@D@std@@V?$allocator@D@2@@std@@PAUSFILENODE@@@2@@Z 004082e0 f i AutoPatchThread.obj
 0001:000073c0       ?_Erase@?$_Tree@V?$_Tmap_traits@V?$basic_string@DU?$char_traits@D@std@@V?$allocator@D@2@@std@@PAUSFILENODE@@U?$less@V?$basic_string@DU?$char_traits@D@std@@V?$allocator@D@2@@std@@@2@V?$allocator@U?$pair@$$CBV?$basic_string@DU?$char_traits@D@std@@V?$allocator@D@2@@std@@PAUSFILENODE@@@std@@@2@$0A@@std@@@std@@IAEXPAU_Node@?$_Tree_nod@V?$_Tmap_traits@V?$basic_string@DU?$char_traits@D@std@@V?$allocator@D@2@@std@@PAUSFILENODE@@U?$less@V?$basic_string@DU?$char_traits@D@std@@V?$allocator@D@2@@std@@@2@V?$allocator@U?$pair@$$CBV?$basic_string@DU?$char_traits@D@std@@V?$allocator@D@2@@std@@PAUSFILENODE@@@std@@@2@$0A@@std@@@2@@Z 004083c0 f i AutoPatchThread.obj
 0001:00007400       ??0CHttpThread@@QAE@XZ     00408400 f i AutoPatchThread.obj
 0001:00007460       ??1CHttpThread@@UAE@XZ     00408460 f i AutoPatchThread.obj
 0001:000074e0       ??_ECHttpThread@@UAEPAXI@Z 004084e0 f i AutoPatchThread.obj
 0001:000074e0       ??_GCHttpThread@@UAEPAXI@Z 004084e0 f i AutoPatchThread.obj
 0001:00007500       ?LoadDownList@CAutoPatchThread@@IAEHXZ 00408500 f   AutoPatchThread.obj
 0001:00007770       ?LoadCopyList@CAutoPatchThread@@IAEHXZ 00408770 f   AutoPatchThread.obj
 0001:000079e0       ?push_back@?$vector@PAUSFILENODE@@V?$allocator@PAUSFILENODE@@@std@@@std@@QAEXABQAUSFILENODE@@@Z 004089e0 f i AutoPatchThread.obj
 0001:00007a30       ?erase@?$_Tree@V?$_Tmap_traits@V?$basic_string@DU?$char_traits@D@std@@V?$allocator@D@2@@std@@PAUSFILENODE@@U?$less@V?$basic_string@DU?$char_traits@D@std@@V?$allocator@D@2@@std@@@2@V?$allocator@U?$pair@$$CBV?$basic_string@DU?$char_traits@D@std@@V?$allocator@D@2@@std@@PAUSFILENODE@@@std@@@2@$0A@@std@@@std@@QAE?AViterator@12@V312@0@Z 00408a30 f i AutoPatchThread.obj
 0001:00007af0       ?MakeNewList@CAutoPatchThread@@IAEHHHHH@Z 00408af0 f   AutoPatchThread.obj
 0001:00007ce0       ?DownloadFilesByHttp@CAutoPatchThread@@IAEHPAVCHttpPatch@@@Z 00408ce0 f   AutoPatchThread.obj
 0001:00008030       ?Installing@CAutoPatchThread@@IAEHXZ 00409030 f   AutoPatchThread.obj
 0001:00008680       ?Destroy@CAutoPatchThread@@IAEHXZ 00409680 f   AutoPatchThread.obj
 0001:00008920       ?ThreadMain@CAutoPatchThread@@MAEXXZ 00409920 f   AutoPatchThread.obj
 0001:00009110       ??1?$map@V?$basic_string@DU?$char_traits@D@std@@V?$allocator@D@2@@std@@PAUSFILENODE@@U?$less@V?$basic_string@DU?$char_traits@D@std@@V?$allocator@D@2@@std@@@2@V?$allocator@U?$pair@$$CBV?$basic_string@DU?$char_traits@D@std@@V?$allocator@D@2@@std@@PAUSFILENODE@@@std@@@2@@std@@QAE@XZ 0040a110 f i AutoPatchThread.obj
 0001:00009140       ??0CAutoPatchThread@@QAE@XZ 0040a140 f i AutoPatchThread.obj
 0001:00009240       ??_GCAutoPatchThread@@UAEPAXI@Z 0040a240 f i AutoPatchThread.obj
 0001:00009240       ??_ECAutoPatchThread@@UAEPAXI@Z 0040a240 f i AutoPatchThread.obj
 0001:00009260       ??1CAutoPatchThread@@UAE@XZ 0040a260 f i AutoPatchThread.obj
 0001:000093c0       ?CreateObject@CAutoPatchThread@@SGPAVCObject@@XZ 0040a3c0 f   AutoPatchThread.obj
 0001:00009420       ??0CAutoPatchThread@@QAE@PAXK@Z 0040a420 f   AutoPatchThread.obj
 0001:00009530       ?GetRuntimeClass@CHashCheckThread@@UBEPAUCRuntimeClass@@XZ 0040a530 f   HashCheckThread.obj
 0001:00009540       ??1CHash@HASH@@QAE@XZ      0040a540 f i HashCheckThread.obj
 0001:00009560       ?InstallingHashFailFiles@CHashCheckThread@@IAEHXZ 0040a560 f   HashCheckThread.obj
 0001:00009a80       ?DeleteDownFiles@CHashCheckThread@@IAEHXZ 0040aa80 f   HashCheckThread.obj
 0001:00009ba0       ??0CHashCheckThread@@QAE@XZ 0040aba0 f i HashCheckThread.obj
 0001:00009c20       ?CreateObject@CHashCheckThread@@SGPAVCObject@@XZ 0040ac20 f   HashCheckThread.obj
 0001:00009c80       ??0CHashCheckThread@@QAE@PAXK@Z 0040ac80 f   HashCheckThread.obj
 0001:00009d20       ??1CHashCheckThread@@UAE@XZ 0040ad20 f   HashCheckThread.obj
 0001:00009ea0       ??_ECHashCheckThread@@UAEPAXI@Z 0040aea0 f i HashCheckThread.obj
 0001:00009ea0       ??_GCHashCheckThread@@UAEPAXI@Z 0040aea0 f i HashCheckThread.obj
 0001:00009ec0       ?LoadListHash@CHashCheckThread@@IAEHXZ 0040aec0 f   HashCheckThread.obj
 0001:0000a0b0       ?CreateHashFile@CHashCheckThread@@IAEHXZ 0040b0b0 f   HashCheckThread.obj
 0001:0000a210       ?CheckHashFile@CHashCheckThread@@IAEHXZ 0040b210 f   HashCheckThread.obj
 0001:0000a4e0       ?DownloadHashFailFiles@CHashCheckThread@@IAEHPAVCHttpPatch@@@Z 0040b4e0 f   HashCheckThread.obj
 0001:0000a770       ?ThreadMain@CHashCheckThread@@MAEXXZ 0040b770 f   HashCheckThread.obj
 0001:0000a9f0       ?GetThisClass@CHttpThread@@SGPAUCRuntimeClass@@XZ 0040b9f0 f   HttpThread.obj
 0001:0000a9f0       ?GetRuntimeClass@CHttpThread@@UBEPAUCRuntimeClass@@XZ 0040b9f0 f   HttpThread.obj
 0001:0000aa00       ?GetMessageMap@CWebBrowserThread@@MBEPBUAFX_MSGMAP@@XZ 0040ba00 f   WebBrowserThread.obj
 0001:0000aa00       ?GetMessageMap@CServerLoginThread@@MBEPBUAFX_MSGMAP@@XZ 0040ba00 f   ServerLoginThread.obj
 0001:0000aa00       ?GetThisMessageMap@CHttpThread@@KGPBUAFX_MSGMAP@@XZ 0040ba00 f   HttpThread.obj
 0001:0000aa00       ?GetMessageMap@CHttpThread@@MBEPBUAFX_MSGMAP@@XZ 0040ba00 f   HttpThread.obj
 0001:0000aa10       ?LoadListClient@CHttpThread@@IAEHXZ 0040ba10 f   HttpThread.obj
 0001:0000abf0       ?GETFILE_USEHTTP@CHttpThread@@IAEHPAVCHttpPatch@@V?$basic_string@DU?$char_traits@D@std@@V?$allocator@D@2@@std@@1V?$CStringT@DV?$StrTraitMFC_DLL@DV?$ChTraitsCRT@D@ATL@@@@@ATL@@@Z 0040bbf0 f   HttpThread.obj
 0001:0000b140       ?CreateObject@CHttpThread@@SGPAVCObject@@XZ 0040c140 f   HttpThread.obj
 0001:0000b1a0       ?LoadListServer@CHttpThread@@IAEHXZ 0040c1a0 f   HttpThread.obj
 0001:0000b390       ?LoadList@CHttpThread@@IAEHXZ 0040c390 f   HttpThread.obj
 0001:0000b3c0       ?GetRuntimeClass@CLPatchThread@@UBEPAUCRuntimeClass@@XZ 0040c3c0 f   LPatchThread.obj
 0001:0000b3c0       ?GetThisClass@CLPatchThread@@SGPAUCRuntimeClass@@XZ 0040c3c0 f   LPatchThread.obj
 0001:0000b3d0       ??0CLPatchThread@@IAE@XZ   0040c3d0 f   LPatchThread.obj
 0001:0000b420       ??1CLPatchThread@@UAE@XZ   0040c420 f   LPatchThread.obj
 0001:0000b450       ?InitInstance@CLPatchThread@@MAEHXZ 0040c450 f   LPatchThread.obj
 0001:0000b460       ?Delete@CLPatchThread@@UAEXXZ 0040c460 f   LPatchThread.obj
 0001:0000b480       ?IsRunning@CLPatchThread@@QAEHXZ 0040c480 f   LPatchThread.obj
 0001:0000b4a0       ?IsForceTerminate@CLPatchThread@@QAEHXZ 0040c4a0 f   LPatchThread.obj
 0001:0000b4c0       ?GetMessageMap@CLPatchThread@@MBEPBUAFX_MSGMAP@@XZ 0040c4c0 f   LPatchThread.obj
 0001:0000b4c0       ?GetThisMessageMap@CLPatchThread@@KGPBUAFX_MSGMAP@@XZ 0040c4c0 f   LPatchThread.obj
 0001:0000b4d0       ?CreateObject@CLPatchThread@@SGPAVCObject@@XZ 0040c4d0 f   LPatchThread.obj
 0001:0000b530       ??_GCLPatchThread@@UAEPAXI@Z 0040c530 f i LPatchThread.obj
 0001:0000b530       ??_ECLPatchThread@@UAEPAXI@Z 0040c530 f i LPatchThread.obj
 0001:0000b550       ?KillThread@CLPatchThread@@QAEXXZ 0040c550 f   LPatchThread.obj
 0001:0000b590       ??RCCompare@@QBE_NPAVCPatchSetNode@@0@Z 0040c590 f i PatchSet.obj
 0001:0000b5e0       ??1CPatchSetNode@@QAE@XZ   0040c5e0 f   PatchSet.obj
 0001:0000b610       ?_Min@?$_Tree@V?$_Tset_traits@PAVCPatchSetNode@@VCCompare@@V?$allocator@PAVCPatchSetNode@@@std@@$0A@@std@@@std@@KAPAU_Node@?$_Tree_nod@V?$_Tset_traits@PAVCPatchSetNode@@VCCompare@@V?$allocator@PAVCPatchSetNode@@@std@@$0A@@std@@@2@PAU342@@Z 0040c610 f i PatchSet.obj
 0001:0000b630       ?_Max@?$_Tree@V?$_Tset_traits@PAVCPatchSetNode@@VCCompare@@V?$allocator@PAVCPatchSetNode@@@std@@$0A@@std@@@std@@KAPAU_Node@?$_Tree_nod@V?$_Tset_traits@PAVCPatchSetNode@@VCCompare@@V?$allocator@PAVCPatchSetNode@@@std@@$0A@@std@@@2@PAU342@@Z 0040c630 f i PatchSet.obj
 0001:0000b650       ?_Lbound@?$_Tree@V?$_Tset_traits@PAVCPatchSetNode@@VCCompare@@V?$allocator@PAVCPatchSetNode@@@std@@$0A@@std@@@std@@IBEPAU_Node@?$_Tree_nod@V?$_Tset_traits@PAVCPatchSetNode@@VCCompare@@V?$allocator@PAVCPatchSetNode@@@std@@$0A@@std@@@2@ABQAVCPatchSetNode@@@Z 0040c650 f i PatchSet.obj
 0001:0000b6c0       ?_Lrotate@?$_Tree@V?$_Tset_traits@PAVCPatchSetNode@@VCCompare@@V?$allocator@PAVCPatchSetNode@@@std@@$0A@@std@@@std@@IAEXPAU_Node@?$_Tree_nod@V?$_Tset_traits@PAVCPatchSetNode@@VCCompare@@V?$allocator@PAVCPatchSetNode@@@std@@$0A@@std@@@2@@Z 0040c6c0 f i PatchSet.obj
 0001:0000b720       ?_Rrotate@?$_Tree@V?$_Tset_traits@PAVCPatchSetNode@@VCCompare@@V?$allocator@PAVCPatchSetNode@@@std@@$0A@@std@@@std@@IAEXPAU_Node@?$_Tree_nod@V?$_Tset_traits@PAVCPatchSetNode@@VCCompare@@V?$allocator@PAVCPatchSetNode@@@std@@$0A@@std@@@2@@Z 0040c720 f i PatchSet.obj
 0001:0000b780       ?_Inc@const_iterator@?$_Tree@V?$_Tset_traits@PAVCPatchSetNode@@VCCompare@@V?$allocator@PAVCPatchSetNode@@@std@@$0A@@std@@@std@@QAEXXZ 0040c780 f i PatchSet.obj
 0001:0000b7e0       ?_Dec@const_iterator@?$_Tree@V?$_Tset_traits@PAVCPatchSetNode@@VCCompare@@V?$allocator@PAVCPatchSetNode@@@std@@$0A@@std@@@std@@QAEXXZ 0040c7e0 f i PatchSet.obj
 0001:0000b840       ?SetFile@CPatchSetNode@@QAEHPAUSFILENODE@@@Z 0040c840 f   PatchSet.obj
 0001:0000b910       ?_Erase@?$_Tree@V?$_Tset_traits@PAVCPatchSetNode@@VCCompare@@V?$allocator@PAVCPatchSetNode@@@std@@$0A@@std@@@std@@IAEXPAU_Node@?$_Tree_nod@V?$_Tset_traits@PAVCPatchSetNode@@VCCompare@@V?$allocator@PAVCPatchSetNode@@@std@@$0A@@std@@@2@@Z 0040c910 f i PatchSet.obj
 0001:0000b950       ?_Buynode@?$_Tree@V?$_Tset_traits@PAVCPatchSetNode@@VCCompare@@V?$allocator@PAVCPatchSetNode@@@std@@$0A@@std@@@std@@IAEPAU_Node@?$_Tree_nod@V?$_Tset_traits@PAVCPatchSetNode@@VCCompare@@V?$allocator@PAVCPatchSetNode@@@std@@$0A@@std@@@2@PAU342@00ABQAVCPatchSetNode@@D@Z 0040c950 f i PatchSet.obj
 0001:0000b990       ?_Buynode@?$_Tree@V?$_Tset_traits@PAVCPatchSetNode@@VCCompare@@V?$allocator@PAVCPatchSetNode@@@std@@$0A@@std@@@std@@IAEPAU_Node@?$_Tree_nod@V?$_Tset_traits@PAVCPatchSetNode@@VCCompare@@V?$allocator@PAVCPatchSetNode@@@std@@$0A@@std@@@2@XZ 0040c990 f i PatchSet.obj
 0001:0000b9d0       ?_Insert@?$_Tree@V?$_Tset_traits@PAVCPatchSetNode@@VCCompare@@V?$allocator@PAVCPatchSetNode@@@std@@$0A@@std@@@std@@IAE?AViterator@12@_NPAU_Node@?$_Tree_nod@V?$_Tset_traits@PAVCPatchSetNode@@VCCompare@@V?$allocator@PAVCPatchSetNode@@@std@@$0A@@std@@@2@ABQAVCPatchSetNode@@@Z 0040c9d0 f i PatchSet.obj
 0001:0000bb90       ?erase@?$_Tree@V?$_Tset_traits@PAVCPatchSetNode@@VCCompare@@V?$allocator@PAVCPatchSetNode@@@std@@$0A@@std@@@std@@QAE?AViterator@12@V312@@Z 0040cb90 f i PatchSet.obj
 0001:0000be60       ?Clear@CPatchSet@@QAEXXZ   0040ce60 f   PatchSet.obj
 0001:0000bf00       ?Find@CPatchSet@@QAEPAVCPatchSetNode@@PAUSFILENODE@@@Z 0040cf00 f   PatchSet.obj
 0001:0000bfe0       ?insert@?$_Tree@V?$_Tset_traits@PAVCPatchSetNode@@VCCompare@@V?$allocator@PAVCPatchSetNode@@@std@@$0A@@std@@@std@@QAE?AU?$pair@Viterator@?$_Tree@V?$_Tset_traits@PAVCPatchSetNode@@VCCompare@@V?$allocator@PAVCPatchSetNode@@@std@@$0A@@std@@@std@@_N@2@ABQAVCPatchSetNode@@@Z 0040cfe0 f i PatchSet.obj
 0001:0000c0e0       ?erase@?$_Tree@V?$_Tset_traits@PAVCPatchSetNode@@VCCompare@@V?$allocator@PAVCPatchSetNode@@@std@@$0A@@std@@@std@@QAE?AViterator@12@V312@0@Z 0040d0e0 f i PatchSet.obj
 0001:0000c1a0       ?Add@CPatchSet@@QAEXPAUSFILENODE@@@Z 0040d1a0 f   PatchSet.obj
 0001:0000c1f0       ?GetNotUseItem@CPatchSet@@QAEXPAV?$vector@PAUSFILENODE@@V?$allocator@PAUSFILENODE@@@std@@@std@@@Z 0040d1f0 f   PatchSet.obj
 0001:0000c280       ??1?$set@PAVCPatchSetNode@@VCCompare@@V?$allocator@PAVCPatchSetNode@@@std@@@std@@QAE@XZ 0040d280 f i PatchSet.obj
 0001:0000c2b0       ??1CPatchSet@@QAE@XZ       0040d2b0 f   PatchSet.obj
 0001:0000c320       ??0CPatchSet@@QAE@XZ       0040d320 f   PatchSet.obj
 0001:0000c350       ?GetRuntimeClass@CServerLoginThread@@UBEPAUCRuntimeClass@@XZ 0040d350 f   ServerLoginThread.obj
 0001:0000c360       ??0CServerLoginThread@@QAE@PAXABV?$CStringT@DV?$StrTraitMFC_DLL@DV?$ChTraitsCRT@D@ATL@@@@@ATL@@K@Z 0040d360 f   ServerLoginThread.obj
 0001:0000c3c0       ?ThreadMain@CServerLoginThread@@MAEXXZ 0040d3c0 f   ServerLoginThread.obj
 0001:0000c4f0       ??_ECServerLoginThread@@UAEPAXI@Z 0040d4f0 f i ServerLoginThread.obj
 0001:0000c4f0       ??_GCServerLoginThread@@UAEPAXI@Z 0040d4f0 f i ServerLoginThread.obj
 0001:0000c510       ??1CServerLoginThread@@UAE@XZ 0040d510 f i ServerLoginThread.obj
 0001:0000c530       ?CreateObject@CServerLoginThread@@SGPAVCObject@@XZ 0040d530 f   ServerLoginThread.obj
 0001:0000c590       ?GetRuntimeClass@CWebBrowserThread@@UBEPAUCRuntimeClass@@XZ 0040d590 f   WebBrowserThread.obj
 0001:0000c5a0       ??0CWebBrowserThread@@QAE@PAXABV?$CStringT@DV?$StrTraitMFC_DLL@DV?$ChTraitsCRT@D@ATL@@@@@ATL@@@Z 0040d5a0 f   WebBrowserThread.obj
 0001:0000c600       ?ThreadMain@CWebBrowserThread@@MAEXXZ 0040d600 f   WebBrowserThread.obj
 0001:0000c680       ??_ECWebBrowserThread@@UAEPAXI@Z 0040d680 f i WebBrowserThread.obj
 0001:0000c680       ??_GCWebBrowserThread@@UAEPAXI@Z 0040d680 f i WebBrowserThread.obj
 0001:0000c6a0       ??1CWebBrowserThread@@UAE@XZ 0040d6a0 f i WebBrowserThread.obj
 0001:0000c6c0       ?CreateObject@CWebBrowserThread@@SGPAVCObject@@XZ 0040d6c0 f   WebBrowserThread.obj
 0001:0000c720       ?Clear@CLauncherTextMan@@QAEXXZ 0040d720 f   LauncherText.obj
 0001:0000c730       ?GetText@CLauncherTextMan@@QAEABV?$CStringT@DV?$StrTraitMFC_DLL@DV?$ChTraitsCRT@D@ATL@@@@@ATL@@V?$basic_string@DU?$char_traits@D@std@@V?$allocator@D@2@@std@@H@Z 0040d730 f   LauncherText.obj
 0001:0000c7a0       ?_Min@?$_Tree@V?$_Tmap_traits@V?$basic_string@DU?$char_traits@D@std@@V?$allocator@D@2@@std@@PAV?$vector@V?$basic_string@DU?$char_traits@D@std@@V?$allocator@D@2@@std@@V?$allocator@V?$basic_string@DU?$char_traits@D@std@@V?$allocator@D@2@@std@@@2@@2@U?$less@V?$basic_string@DU?$char_traits@D@std@@V?$allocator@D@2@@std@@@2@V?$allocator@U?$pair@$$CBV?$basic_string@DU?$char_traits@D@std@@V?$allocator@D@2@@std@@PAV?$vector@V?$basic_string@DU?$char_traits@D@std@@V?$allocator@D@2@@std@@V?$allocator@V?$basic_string@DU?$char_traits@D@std@@V?$allocator@D@2@@std@@@2@@2@@std@@@2@$00@std@@@std@@KAPAU_Node@?$_Tree_nod@V?$_Tmap_traits@V?$basic_string@DU?$char_traits@D@std@@V?$allocator@D@2@@std@@PAV?$vector@V?$basic_string@DU?$char_traits@D@std@@V?$allocator@D@2@@std@@V?$allocator@V?$basic_string@DU?$char_traits@D@std@@V?$allocator@D@2@@std@@@2@@2@U?$less@V?$basic_string@DU?$char_traits@D@std@@V?$allocator@D@2@@std@@@2@V?$allocator@U?$pair@$$CBV?$basic_string@DU?$char_traits@D@std@@V?$allocator@D@2@@std@@PAV?$vector@V?$basic_string@DU?$char_traits@D@std@@V?$allocator@D@2@@std@@V?$allocator@V?$basic_string@DU?$char_traits@D@std@@V?$allocator@D@2@@std@@@2@@2@@std@@@2@$00@std@@@2@PAU342@@Z 0040d7a0 f i EngineLib:IniLoader.obj
 0001:0000c7a0       ?_Min@?$_Tree@V?$_Tmap_traits@V?$basic_string@DU?$char_traits@D@std@@V?$allocator@D@2@@std@@PAUSTATICDATA@NSSTATICMESH@@U?$less@V?$basic_string@DU?$char_traits@D@std@@V?$allocator@D@2@@std@@@2@V?$allocator@U?$pair@$$CBV?$basic_string@DU?$char_traits@D@std@@V?$allocator@D@2@@std@@PAUSTATICDATA@NSSTATICMESH@@@std@@@2@$0A@@std@@@std@@KAPAU_Node@?$_Tree_nod@V?$_Tmap_traits@V?$basic_string@DU?$char_traits@D@std@@V?$allocator@D@2@@std@@PAUSTATICDATA@NSSTATICMESH@@U?$less@V?$basic_string@DU?$char_traits@D@std@@V?$allocator@D@2@@std@@@2@V?$allocator@U?$pair@$$CBV?$basic_string@DU?$char_traits@D@std@@V?$allocator@D@2@@std@@PAUSTATICDATA@NSSTATICMESH@@@std@@@2@$0A@@std@@@2@PAU342@@Z 0040d7a0 f i EngineLib:DxStaticMesh.obj
 0001:0000c7a0       ?_Min@?$_Tree@V?$_Tmap_traits@V?$basic_string@DU?$char_traits@D@std@@V?$allocator@D@2@@std@@PAVCStringArray@@U?$less@V?$basic_string@DU?$char_traits@D@std@@V?$allocator@D@2@@std@@@2@V?$allocator@U?$pair@$$CBV?$basic_string@DU?$char_traits@D@std@@V?$allocator@D@2@@std@@PAVCStringArray@@@std@@@2@$0A@@std@@@std@@KAPAU_Node@?$_Tree_nod@V?$_Tmap_traits@V?$basic_string@DU?$char_traits@D@std@@V?$allocator@D@2@@std@@PAVCStringArray@@U?$less@V?$basic_string@DU?$char_traits@D@std@@V?$allocator@D@2@@std@@@2@V?$allocator@U?$pair@$$CBV?$basic_string@DU?$char_traits@D@std@@V?$allocator@D@2@@std@@PAVCStringArray@@@std@@@2@$0A@@std@@@2@PAU342@@Z 0040d7a0 f i LauncherText.obj
 0001:0000c7a0       ?_Min@?$_Tree@V?$_Tmap_traits@V?$basic_string@DU?$char_traits@D@std@@V?$allocator@D@2@@std@@PAUSFILENODE@@U?$less@V?$basic_string@DU?$char_traits@D@std@@V?$allocator@D@2@@std@@@2@V?$allocator@U?$pair@$$CBV?$basic_string@DU?$char_traits@D@std@@V?$allocator@D@2@@std@@PAUSFILENODE@@@std@@@2@$0A@@std@@@std@@KAPAU_Node@?$_Tree_nod@V?$_Tmap_traits@V?$basic_string@DU?$char_traits@D@std@@V?$allocator@D@2@@std@@PAUSFILENODE@@U?$less@V?$basic_string@DU?$char_traits@D@std@@V?$allocator@D@2@@std@@@2@V?$allocator@U?$pair@$$CBV?$basic_string@DU?$char_traits@D@std@@V?$allocator@D@2@@std@@PAUSFILENODE@@@std@@@2@$0A@@std@@@2@PAU342@@Z 0040d7a0 f i AutoPatchThread.obj
 0001:0000c7a0       ?_Min@?$_Tree@V?$_Tmap_traits@V?$basic_string@DU?$char_traits@D@std@@V?$allocator@D@2@@std@@PAV?$multimap@V?$basic_string@DU?$char_traits@D@std@@V?$allocator@D@2@@std@@PAV?$vector@V?$basic_string@DU?$char_traits@D@std@@V?$allocator@D@2@@std@@V?$allocator@V?$basic_string@DU?$char_traits@D@std@@V?$allocator@D@2@@std@@@2@@2@U?$less@V?$basic_string@DU?$char_traits@D@std@@V?$allocator@D@2@@std@@@2@V?$allocator@U?$pair@$$CBV?$basic_string@DU?$char_traits@D@std@@V?$allocator@D@2@@std@@PAV?$vector@V?$basic_string@DU?$char_traits@D@std@@V?$allocator@D@2@@std@@V?$allocator@V?$basic_string@DU?$char_traits@D@std@@V?$allocator@D@2@@std@@@2@@2@@std@@@2@@2@U?$less@V?$basic_string@DU?$char_traits@D@std@@V?$allocator@D@2@@std@@@2@V?$allocator@U?$pair@$$CBV?$basic_string@DU?$char_traits@D@std@@V?$allocator@D@2@@std@@PAV?$multimap@V?$basic_string@DU?$char_traits@D@std@@V?$allocator@D@2@@std@@PAV?$vector@V?$basic_string@DU?$char_traits@D@std@@V?$allocator@D@2@@std@@V?$allocator@V?$basic_string@DU?$char_traits@D@std@@V?$allocator@D@2@@std@@@2@@2@U?$less@V?$basic_string@DU?$char_traits@D@std@@V?$allocator@D@2@@std@@@2@V?$allocator@U?$pair@$$CBV?$basic_string@DU?$char_traits@D@std@@V?$allocator@D@2@@std@@PAV?$vector@V?$basic_string@DU?$char_traits@D@std@@V?$allocator@D@2@@std@@V?$allocator@V?$basic_string@DU?$char_traits@D@std@@V?$allocator@D@2@@std@@@2@@2@@std@@@2@@2@@std@@@2@$0A@@std@@@std@@KAPAU_Node@?$_Tree_nod@V?$_Tmap_traits@V?$basic_string@DU?$char_traits@D@std@@V?$allocator@D@2@@std@@PAV?$multimap@V?$basic_string@DU?$char_traits@D@std@@V?$allocator@D@2@@std@@PAV?$vector@V?$basic_string@DU?$char_traits@D@std@@V?$allocator@D@2@@std@@V?$allocator@V?$basic_string@DU?$char_traits@D@std@@V?$allocator@D@2@@std@@@2@@2@U?$less@V?$basic_string@DU?$char_traits@D@std@@V?$allocator@D@2@@std@@@2@V?$allocator@U?$pair@$$CBV?$basic_string@DU?$char_traits@D@std@@V?$allocator@D@2@@std@@PAV?$vector@V?$basic_string@DU?$char_traits@D@std@@V?$allocator@D@2@@std@@V?$allocator@V?$basic_string@DU?$char_traits@D@std@@V?$allocator@D@2@@std@@@2@@2@@std@@@2@@2@U?$less@V?$basic_string@DU?$char_traits@D@std@@V?$allocator@D@2@@std@@@2@V?$allocator@U?$pair@$$CBV?$basic_string@DU?$char_traits@D@std@@V?$allocator@D@2@@std@@PAV?$multimap@V?$basic_string@DU?$char_traits@D@std@@V?$allocator@D@2@@std@@PAV?$vector@V?$basic_string@DU?$char_traits@D@std@@V?$allocator@D@2@@std@@V?$allocator@V?$basic_string@DU?$char_traits@D@std@@V?$allocator@D@2@@std@@@2@@2@U?$less@V?$basic_string@DU?$char_traits@D@std@@V?$allocator@D@2@@std@@@2@V?$allocator@U?$pair@$$CBV?$basic_string@DU?$char_traits@D@std@@V?$allocator@D@2@@std@@PAV?$vector@V?$basic_string@DU?$char_traits@D@std@@V?$allocator@D@2@@std@@V?$allocator@V?$basic_string@DU?$char_traits@D@std@@V?$allocator@D@2@@std@@@2@@2@@std@@@2@@2@@std@@@2@$0A@@std@@@2@PAU342@@Z 0040d7a0 f i EngineLib:IniLoader.obj
 0001:0000c7a0       ?_Min@?$_Tree@V?$_Tmap_traits@V?$basic_string@DU?$char_traits@D@std@@V?$allocator@D@2@@std@@KU?$less@V?$basic_string@DU?$char_traits@D@std@@V?$allocator@D@2@@std@@@2@V?$allocator@U?$pair@$$CBV?$basic_string@DU?$char_traits@D@std@@V?$allocator@D@2@@std@@K@std@@@2@$0A@@std@@@std@@KAPAU_Node@?$_Tree_nod@V?$_Tmap_traits@V?$basic_string@DU?$char_traits@D@std@@V?$allocator@D@2@@std@@KU?$less@V?$basic_string@DU?$char_traits@D@std@@V?$allocator@D@2@@std@@@2@V?$allocator@U?$pair@$$CBV?$basic_string@DU?$char_traits@D@std@@V?$allocator@D@2@@std@@K@std@@@2@$0A@@std@@@2@PAU342@@Z 0040d7a0 f i EngineLib:TextureManager.obj
 0001:0000c7a0       ?_Min@?$_Tree@V?$_Tmap_traits@V?$basic_string@DU?$char_traits@D@std@@V?$allocator@D@2@@std@@PAVTextureContainer@TextureManager@@U?$less@V?$basic_string@DU?$char_traits@D@std@@V?$allocator@D@2@@std@@@2@V?$allocator@U?$pair@$$CBV?$basic_string@DU?$char_traits@D@std@@V?$allocator@D@2@@std@@PAVTextureContainer@TextureManager@@@std@@@2@$0A@@std@@@std@@KAPAU_Node@?$_Tree_nod@V?$_Tmap_traits@V?$basic_string@DU?$char_traits@D@std@@V?$allocator@D@2@@std@@PAVTextureContainer@TextureManager@@U?$less@V?$basic_string@DU?$char_traits@D@std@@V?$allocator@D@2@@std@@@2@V?$allocator@U?$pair@$$CBV?$basic_string@DU?$char_traits@D@std@@V?$allocator@D@2@@std@@PAVTextureContainer@TextureManager@@@std@@@2@$0A@@std@@@2@PAU342@@Z 0040d7a0 f i EngineLib:TextureManager.obj
 0001:0000c7c0       ?_Dec@const_iterator@?$_Tree@V?$_Tmap_traits@V?$basic_string@DU?$char_traits@D@std@@V?$allocator@D@2@@std@@PAVTextureContainer@TextureManager@@U?$less@V?$basic_string@DU?$char_traits@D@std@@V?$allocator@D@2@@std@@@2@V?$allocator@U?$pair@$$CBV?$basic_string@DU?$char_traits@D@std@@V?$allocator@D@2@@std@@PAVTextureContainer@TextureManager@@@std@@@2@$0A@@std@@@std@@QAEXXZ 0040d7c0 f i EngineLib:TextureManager.obj
 0001:0000c7c0       ?_Dec@const_iterator@?$_Tree@V?$_Tmap_traits@V?$basic_string@DU?$char_traits@D@std@@V?$allocator@D@2@@std@@KU?$less@V?$basic_string@DU?$char_traits@D@std@@V?$allocator@D@2@@std@@@2@V?$allocator@U?$pair@$$CBV?$basic_string@DU?$char_traits@D@std@@V?$allocator@D@2@@std@@K@std@@@2@$0A@@std@@@std@@QAEXXZ 0040d7c0 f i EngineLib:TextureManager.obj
 0001:0000c7c0       ?_Dec@const_iterator@?$_Tree@V?$_Tmap_traits@V?$basic_string@DU?$char_traits@D@std@@V?$allocator@D@2@@std@@PAV?$multimap@V?$basic_string@DU?$char_traits@D@std@@V?$allocator@D@2@@std@@PAV?$vector@V?$basic_string@DU?$char_traits@D@std@@V?$allocator@D@2@@std@@V?$allocator@V?$basic_string@DU?$char_traits@D@std@@V?$allocator@D@2@@std@@@2@@2@U?$less@V?$basic_string@DU?$char_traits@D@std@@V?$allocator@D@2@@std@@@2@V?$allocator@U?$pair@$$CBV?$basic_string@DU?$char_traits@D@std@@V?$allocator@D@2@@std@@PAV?$vector@V?$basic_string@DU?$char_traits@D@std@@V?$allocator@D@2@@std@@V?$allocator@V?$basic_string@DU?$char_traits@D@std@@V?$allocator@D@2@@std@@@2@@2@@std@@@2@@2@U?$less@V?$basic_string@DU?$char_traits@D@std@@V?$allocator@D@2@@std@@@2@V?$allocator@U?$pair@$$CBV?$basic_string@DU?$char_traits@D@std@@V?$allocator@D@2@@std@@PAV?$multimap@V?$basic_string@DU?$char_traits@D@std@@V?$allocator@D@2@@std@@PAV?$vector@V?$basic_string@DU?$char_traits@D@std@@V?$allocator@D@2@@std@@V?$allocator@V?$basic_string@DU?$char_traits@D@std@@V?$allocator@D@2@@std@@@2@@2@U?$less@V?$basic_string@DU?$char_traits@D@std@@V?$allocator@D@2@@std@@@2@V?$allocator@U?$pair@$$CBV?$basic_string@DU?$char_traits@D@std@@V?$allocator@D@2@@std@@PAV?$vector@V?$basic_string@DU?$char_traits@D@std@@V?$allocator@D@2@@std@@V?$allocator@V?$basic_string@DU?$char_traits@D@std@@V?$allocator@D@2@@std@@@2@@2@@std@@@2@@2@@std@@@2@$0A@@std@@@std@@QAEXXZ 0040d7c0 f i EngineLib:IniLoader.obj
 0001:0000c7c0       ?_Dec@const_iterator@?$_Tree@V?$_Tmap_traits@V?$basic_string@DU?$char_traits@D@std@@V?$allocator@D@2@@std@@PAVCStringArray@@U?$less@V?$basic_string@DU?$char_traits@D@std@@V?$allocator@D@2@@std@@@2@V?$allocator@U?$pair@$$CBV?$basic_string@DU?$char_traits@D@std@@V?$allocator@D@2@@std@@PAVCStringArray@@@std@@@2@$0A@@std@@@std@@QAEXXZ 0040d7c0 f i LauncherText.obj
 0001:0000c7c0       ?_Dec@const_iterator@?$_Tree@V?$_Tmap_traits@V?$basic_string@DU?$char_traits@D@std@@V?$allocator@D@2@@std@@PAUSFILENODE@@U?$less@V?$basic_string@DU?$char_traits@D@std@@V?$allocator@D@2@@std@@@2@V?$allocator@U?$pair@$$CBV?$basic_string@DU?$char_traits@D@std@@V?$allocator@D@2@@std@@PAUSFILENODE@@@std@@@2@$0A@@std@@@std@@QAEXXZ 0040d7c0 f i AutoPatchThread.obj
 0001:0000c820       ?_Buynode@?$_Tree@V?$_Tmap_traits@V?$basic_string@DU?$char_traits@D@std@@V?$allocator@D@2@@std@@PAVCStringArray@@U?$less@V?$basic_string@DU?$char_traits@D@std@@V?$allocator@D@2@@std@@@2@V?$allocator@U?$pair@$$CBV?$basic_string@DU?$char_traits@D@std@@V?$allocator@D@2@@std@@PAVCStringArray@@@std@@@2@$0A@@std@@@std@@IAEPAU_Node@?$_Tree_nod@V?$_Tmap_traits@V?$basic_string@DU?$char_traits@D@std@@V?$allocator@D@2@@std@@PAVCStringArray@@U?$less@V?$basic_string@DU?$char_traits@D@std@@V?$allocator@D@2@@std@@@2@V?$allocator@U?$pair@$$CBV?$basic_string@DU?$char_traits@D@std@@V?$allocator@D@2@@std@@PAVCStringArray@@@std@@@2@$0A@@std@@@2@PAU342@00ABU?$pair@$$CBV?$basic_string@DU?$char_traits@D@std@@V?$allocator@D@2@@std@@PAVCStringArray@@@2@D@Z 0040d820 f i LauncherText.obj
 0001:0000c8c0       ?_Insert@?$_Tree@V?$_Tmap_traits@V?$basic_string@DU?$char_traits@D@std@@V?$allocator@D@2@@std@@PAVCStringArray@@U?$less@V?$basic_string@DU?$char_traits@D@std@@V?$allocator@D@2@@std@@@2@V?$allocator@U?$pair@$$CBV?$basic_string@DU?$char_traits@D@std@@V?$allocator@D@2@@std@@PAVCStringArray@@@std@@@2@$0A@@std@@@std@@IAE?AViterator@12@_NPAU_Node@?$_Tree_nod@V?$_Tmap_traits@V?$basic_string@DU?$char_traits@D@std@@V?$allocator@D@2@@std@@PAVCStringArray@@U?$less@V?$basic_string@DU?$char_traits@D@std@@V?$allocator@D@2@@std@@@2@V?$allocator@U?$pair@$$CBV?$basic_string@DU?$char_traits@D@std@@V?$allocator@D@2@@std@@PAVCStringArray@@@std@@@2@$0A@@std@@@2@ABU?$pair@$$CBV?$basic_string@DU?$char_traits@D@std@@V?$allocator@D@2@@std@@PAVCStringArray@@@2@@Z 0040d8c0 f i LauncherText.obj
 0001:0000ca80       ?insert@?$_Tree@V?$_Tmap_traits@V?$basic_string@DU?$char_traits@D@std@@V?$allocator@D@2@@std@@PAVCStringArray@@U?$less@V?$basic_string@DU?$char_traits@D@std@@V?$allocator@D@2@@std@@@2@V?$allocator@U?$pair@$$CBV?$basic_string@DU?$char_traits@D@std@@V?$allocator@D@2@@std@@PAVCStringArray@@@std@@@2@$0A@@std@@@std@@QAE?AU?$pair@Viterator@?$_Tree@V?$_Tmap_traits@V?$basic_string@DU?$char_traits@D@std@@V?$allocator@D@2@@std@@PAVCStringArray@@U?$less@V?$basic_string@DU?$char_traits@D@std@@V?$allocator@D@2@@std@@@2@V?$allocator@U?$pair@$$CBV?$basic_string@DU?$char_traits@D@std@@V?$allocator@D@2@@std@@PAVCStringArray@@@std@@@2@$0A@@std@@@std@@_N@2@ABU?$pair@$$CBV?$basic_string@DU?$char_traits@D@std@@V?$allocator@D@2@@std@@PAVCStringArray@@@2@@Z 0040da80 f i LauncherText.obj
 0001:0000cb60       ?erase@?$_Tree@V?$_Tmap_traits@V?$basic_string@DU?$char_traits@D@std@@V?$allocator@D@2@@std@@PAVCStringArray@@U?$less@V?$basic_string@DU?$char_traits@D@std@@V?$allocator@D@2@@std@@@2@V?$allocator@U?$pair@$$CBV?$basic_string@DU?$char_traits@D@std@@V?$allocator@D@2@@std@@PAVCStringArray@@@std@@@2@$0A@@std@@@std@@QAE?AViterator@12@V312@@Z 0040db60 f i LauncherText.obj
 0001:0000ce40       ?_Erase@?$_Tree@V?$_Tmap_traits@V?$basic_string@DU?$char_traits@D@std@@V?$allocator@D@2@@std@@PAVCStringArray@@U?$less@V?$basic_string@DU?$char_traits@D@std@@V?$allocator@D@2@@std@@@2@V?$allocator@U?$pair@$$CBV?$basic_string@DU?$char_traits@D@std@@V?$allocator@D@2@@std@@PAVCStringArray@@@std@@@2@$0A@@std@@@std@@IAEXPAU_Node@?$_Tree_nod@V?$_Tmap_traits@V?$basic_string@DU?$char_traits@D@std@@V?$allocator@D@2@@std@@PAVCStringArray@@U?$less@V?$basic_string@DU?$char_traits@D@std@@V?$allocator@D@2@@std@@@2@V?$allocator@U?$pair@$$CBV?$basic_string@DU?$char_traits@D@std@@V?$allocator@D@2@@std@@PAVCStringArray@@@std@@@2@$0A@@std@@@2@@Z 0040de40 f i LauncherText.obj
 0001:0000ce80       ?insert@?$_Tree@V?$_Tmap_traits@V?$basic_string@DU?$char_traits@D@std@@V?$allocator@D@2@@std@@PAVCStringArray@@U?$less@V?$basic_string@DU?$char_traits@D@std@@V?$allocator@D@2@@std@@@2@V?$allocator@U?$pair@$$CBV?$basic_string@DU?$char_traits@D@std@@V?$allocator@D@2@@std@@PAVCStringArray@@@std@@@2@$0A@@std@@@std@@QAE?AViterator@12@V312@ABU?$pair@$$CBV?$basic_string@DU?$char_traits@D@std@@V?$allocator@D@2@@std@@PAVCStringArray@@@2@@Z 0040de80 f i LauncherText.obj
 0001:0000d040       ??A?$map@V?$basic_string@DU?$char_traits@D@std@@V?$allocator@D@2@@std@@PAVCStringArray@@U?$less@V?$basic_string@DU?$char_traits@D@std@@V?$allocator@D@2@@std@@@2@V?$allocator@U?$pair@$$CBV?$basic_string@DU?$char_traits@D@std@@V?$allocator@D@2@@std@@PAVCStringArray@@@std@@@2@@std@@QAEAAPAVCStringArray@@ABV?$basic_string@DU?$char_traits@D@std@@V?$allocator@D@2@@1@@Z 0040e040 f i LauncherText.obj
 0001:0000d0e0       ?erase@?$_Tree@V?$_Tmap_traits@V?$basic_string@DU?$char_traits@D@std@@V?$allocator@D@2@@std@@PAVCStringArray@@U?$less@V?$basic_string@DU?$char_traits@D@std@@V?$allocator@D@2@@std@@@2@V?$allocator@U?$pair@$$CBV?$basic_string@DU?$char_traits@D@std@@V?$allocator@D@2@@std@@PAVCStringArray@@@std@@@2@$0A@@std@@@std@@QAE?AViterator@12@V312@0@Z 0040e0e0 f i LauncherText.obj
 0001:0000d1a0       ?DefaultSetText@CLauncherTextMan@@QAEHXZ 0040e1a0 f   LauncherText.obj
 0001:0000dbc0       ?LoadText@CLauncherTextMan@@QAEHPBDH@Z 0040ebc0 f   LauncherText.obj
 0001:0000dc50       ??1SLAUNCHERTEXT@@QAE@XZ   0040ec50 f i LauncherText.obj
 0001:0000dc80       ??1CLauncherTextMan@@EAE@XZ 0040ec80 f   LauncherText.obj
 0001:0000dd00       ??0CLauncherTextMan@@AAE@XZ 0040ed00 f   LauncherText.obj
 0001:0000dd50       ??_GCLauncherTextMan@@EAEPAXI@Z 0040ed50 f i LauncherText.obj
 0001:0000dd50       ??_ECLauncherTextMan@@EAEPAXI@Z 0040ed50 f i LauncherText.obj
 0001:0000dd70       ?GetInstance@CLauncherTextMan@@SAAAV1@XZ 0040ed70 f   LauncherText.obj
 0001:0000ddd0       ?ID2LAUNCHERTEXT@@YAPBDPBDH@Z 0040edd0 f   LauncherText.obj
 0001:0000de30       ??_H@YGXPAXIHP6EPAX0@Z@Z   0040ee30 f i NetClientLib:s_NetClient.obj
 0001:0000de60       ?GetGameVer@CNetClient@@QAEHXZ 0040ee60 f   NetClientLib:s_NetClient.obj
 0001:0000de70       ?GetPatchVer@CNetClient@@QAEHXZ 0040ee70 f   NetClientLib:s_NetClient.obj
 0001:0000de80       ?SendBuffer2@CNetClient@@QAEHXZ 0040ee80 f   NetClientLib:s_NetClient.obj
 0001:0000df40       ?GetGarbageMsg@CNetClient@@QAEHXZ 0040ef40 f   NetClientLib:s_NetClient.obj
 0001:0000e050       ?SendMsgAddGarbageValue@CNetClient@@QAEPADPADAAH@Z 0040f050 f   NetClientLib:s_NetClient.obj
 0001:0000e140       ?SendNormal@CNetClient@@QAEHPADH@Z 0040f140 f   NetClientLib:s_NetClient.obj
 0001:0000e210       ?Send@CNetClient@@QAEHPADH@Z 0040f210 f   NetClientLib:s_NetClient.obj
 0001:0000e300       ?SendToAgent@CNetClient@@QAEHPADH@Z 0040f300 f   NetClientLib:s_NetClient.obj
 0001:0000e310       ?SendToFieldNormal@CNetClient@@QAEHPADH@Z 0040f310 f   NetClientLib:s_NetClient.obj
 0001:0000e330       ?SendToField@CNetClient@@QAEHPADH@Z 0040f330 f   NetClientLib:s_NetClient.obj
 0001:0000e350       ?IsValid@CNetClient@@QAEPAXXZ 0040f350 f   NetClientLib:s_NetClient.obj
 0001:0000e360       ?CloseConnect@CNetClient@@QAEHXZ 0040f360 f   NetClientLib:s_NetClient.obj
 0001:0000e420       ?SendBuffer@CNetClient@@QAEHXZ 0040f420 f   NetClientLib:s_NetClient.obj
 0001:0000e460       ?Send@CNetClient@@QAEHPAD@Z 0040f460 f   NetClientLib:s_NetClient.obj
 0001:0000e480       ?Recv@CNetClient@@QAEHXZ   0040f480 f   NetClientLib:s_NetClient.obj
 0001:0000e550       ??1CNetClient@@QAE@XZ      0040f550 f   NetClientLib:s_NetClient.obj
 0001:0000e690       ?SetAppPath@CNetClient@@QAEXXZ 0040f690 f   NetClientLib:s_NetClient.obj
 0001:0000e820       ?NetThreadProc@CNetClient@@QAEHXZ 0040f820 f   NetClientLib:s_NetClient.obj
 0001:0000e950       ?SetDefault@CNetClient@@QAEXXZ 0040f950 f   NetClientLib:s_NetClient.obj
 0001:0000ead0       ?StartNetThread@CNetClient@@QAEHXZ 0040fad0 f   NetClientLib:s_NetClient.obj
 0001:0000eb10       ??0CNetClient@@QAE@XZ      0040fb10 f   NetClientLib:s_NetClient.obj
 0001:0000ec70       ??0CNetClient@@QAE@PAUHWND__@@@Z 0040fc70 f   NetClientLib:s_NetClient.obj
 0001:0000ed70       ?ConnectServer@CNetClient@@QAEHPBDHH@Z 0040fd70 f   NetClientLib:s_NetClient.obj
 0001:0000f200       ?ConnectLoginServer@CNetClient@@QAEHPBDH@Z 00410200 f   NetClientLib:s_NetClient.obj
 0001:0000f230       ?ConnectFieldServer@CNetClient@@QAEHPADH@Z 00410230 f   NetClientLib:s_NetClient.obj
 0001:0000f300       ??0CHttpPatch@@QAE@XZ      00410300 f   NetClientLib:s_CHttpPatch.obj
 0001:0000f350       ??1CHttpPatch@@QAE@XZ      00410350 f   NetClientLib:s_CHttpPatch.obj
 0001:0000f370       ?SetForceTerminateToggle@CHttpPatch@@QAEXPAH@Z 00410370 f   NetClientLib:s_CHttpPatch.obj
 0001:0000f380       ?SetProgressValue@CHttpPatch@@QAEXPA_K0@Z 00410380 f   NetClientLib:s_CHttpPatch.obj
 0001:0000f3a0       ?SetBaseURL@CHttpPatch@@QAEHV?$CStringT@DV?$StrTraitMFC_DLL@DV?$ChTraitsCRT@D@ATL@@@@@ATL@@@Z 004103a0 f   NetClientLib:s_CHttpPatch.obj
 0001:0000f450       ?GetFile2@CHttpPatch@@IAEHV?$CStringT@DV?$StrTraitMFC_DLL@DV?$ChTraitsCRT@D@ATL@@@@@ATL@@0@Z 00410450 f   NetClientLib:s_CHttpPatch.obj
 0001:0000f640       ?GetErrorMsg@CHttpPatch@@IAE?AV?$CStringT@DV?$StrTraitMFC_DLL@DV?$ChTraitsCRT@D@ATL@@@@@ATL@@K@Z 00410640 f   NetClientLib:s_CHttpPatch.obj
 0001:0000fb20       ?GetLength@CHttpPatch@@IAEJV?$CStringT@DV?$StrTraitMFC_DLL@DV?$ChTraitsCRT@D@ATL@@@@@ATL@@@Z 00410b20 f   NetClientLib:s_CHttpPatch.obj
 0001:0000fca0       ?GetFile@CHttpPatch@@QAEHV?$CStringT@DV?$StrTraitMFC_DLL@DV?$ChTraitsCRT@D@ATL@@@@@ATL@@0@Z 00410ca0 f   NetClientLib:s_CHttpPatch.obj
 0001:0000ffc0       ?NET_InitializeSocket@@YAHXZ 00410fc0 f   NetClientLib:s_NetGlobal.obj
 0001:0000fff0       ?NET_CloseSocket@@YAXXZ    00410ff0 f   NetClientLib:s_NetGlobal.obj
 0001:00010000       ?NET_ERROR_STRING@@YA?AV?$CStringT@DV?$StrTraitMFC_DLL@DV?$ChTraitsCRT@D@ATL@@@@@ATL@@H@Z 00411000 f   NetClientLib:s_NetGlobal.obj
 0001:000105b0       ?MsgConnectClientToField@CNetClient@@QAEHPAUNET_MSG_GENERIC@@@Z 004115b0 f   NetClientLib:s_NetClientMsg.obj
 0001:00010640       ?MsgGameSvrInfo@CNetClient@@QAEXPAUNET_MSG_GENERIC@@@Z 00411640 f   NetClientLib:s_NetClientMsg.obj
 0001:00010680       ?SndHeartbeat@CNetClient@@QAEHXZ 00411680 f   NetClientLib:s_NetClientMsg.obj
 0001:00010730       ?SndVersion@CNetClient@@QAEHXZ 00411730 f   NetClientLib:s_NetClientMsg.obj
 0001:00010770       ?MsgEncryptKey@CNetClient@@QAEHPAUNET_MSG_GENERIC@@@Z 00411770 f   NetClientLib:s_NetClientMsg.obj
 0001:000107f0       ?MessageProcessGame@CNetClient@@QAEXPAUNET_MSG_GENERIC@@@Z 004117f0 f   NetClientLib:s_NetClientMsg.obj
 0001:00010890       ?MessageProcess@CNetClient@@QAEXXZ 00411890 f   NetClientLib:s_NetClientMsg.obj
 0001:00010920       ??0CRcvMsgBuffer@@QAE@XZ   00411920 f   NetClientLib:RcvMsgBuffer.obj
 0001:00010970       ??1CRcvMsgBuffer@@QAE@XZ   00411970 f   NetClientLib:RcvMsgBuffer.obj
 0001:000109d0       ?addRcvMsg@CRcvMsgBuffer@@QAEHPAXH@Z 004119d0 f   NetClientLib:RcvMsgBuffer.obj
 0001:00010a30       ?SetGarbageNum@CRcvMsgBuffer@@IAEHXZ 00411a30 f   NetClientLib:RcvMsgBuffer.obj
 0001:00010b20       ?getOneMsg@CRcvMsgBuffer@@IAEPAX_N@Z 00411b20 f   NetClientLib:RcvMsgBuffer.obj
 0001:00010c20       ?getRcvSize@CRcvMsgBuffer@@QAEHXZ 00411c20 f   NetClientLib:RcvMsgBuffer.obj
 0001:00010c30       ?getMsg@CRcvMsgBuffer@@QAEPAX_N@Z 00411c30 f   NetClientLib:RcvMsgBuffer.obj
 0001:00010d70       ??0CGameClient@ApexChina@@QAE@XZ 00411d70 f   NetClientLib:gamecode.obj
 0001:00010e50       ??1CGameClient@ApexChina@@QAE@XZ 00411e50 f   NetClientLib:gamecode.obj
 0001:00010e70       ?setKey@minTea@@QAE_NPBD@Z 00411e70 f   NetClientLib:minTea.obj
 0001:00010ec0       ?PushLast@?$acCArray@D@@QAEXD@Z 00411ec0 f i NetClientLib:minTea.obj
 0001:00010f50       ?SetLength@?$acCArray@D@@QAEXH@Z 00411f50 f i NetClientLib:minTea.obj
 0001:00010fb0       ??0minTea@@QAE@XZ          00411fb0 f   NetClientLib:minTea.obj
 0001:00010fc0       ?encrypt@minTea@@IAEHPAII0@Z 00411fc0 f   NetClientLib:minTea.obj
 0001:00011100       ?encrypt@minTea@@IAEXPADAAV?$acCArray@D@@H@Z 00412100 f   NetClientLib:minTea.obj
 0001:00011230       ?encrypt@minTea@@QAE_NPADH@Z 00412230 f   NetClientLib:minTea.obj
 0001:000112e0       ??1CMinLzo@@AAE@XZ         004122e0 f   NetClientLib:MinLzo.obj
 0001:00011310       ?init@CMinLzo@@QAEHXZ      00412310 f   NetClientLib:MinLzo.obj
 0001:000113a0       ?lzoDeCompress@CMinLzo@@QAEHPAEH0AAHG@Z 004123a0 f   NetClientLib:MinLzo.obj
 0001:00011450       ?GetInstance@CMinLzo@@SAAAV1@XZ 00412450 f   NetClientLib:MinLzo.obj
 0001:000114c0       ?reserve@flex_unit@ApexChina@@QAEXI@Z 004124c0 f   NetClientLib:dhkey.obj
 0001:00011520       ?set@flex_unit@ApexChina@@QAEXII@Z 00412520 f   NetClientLib:dhkey.obj
 0001:000115a0       ?fast_mul@flex_unit@ApexChina@@QAEXAAV12@0I@Z 004125a0 f   NetClientLib:dhkey.obj
 0001:00011770       ?bits@vlong_value@ApexChina@@QBEIXZ 00412770 f   NetClientLib:dhkey.obj
 0001:000117c0       ?cf@vlong_value@ApexChina@@QBEHAAV12@@Z 004127c0 f   NetClientLib:dhkey.obj
 0001:00011850       ?add@vlong_value@ApexChina@@QAEXAAV12@@Z 00412850 f   NetClientLib:dhkey.obj
 0001:000118c0       ?subtract@vlong_value@ApexChina@@QAEXAAV12@@Z 004128c0 f   NetClientLib:dhkey.obj
 0001:00011920       ?copy@vlong_value@ApexChina@@QAEXAAV12@@Z 00412920 f   NetClientLib:dhkey.obj
 0001:00011960       ??1vlong_value@ApexChina@@QAE@XZ 00412960 f i NetClientLib:dhkey.obj
 0001:00011990       ?docopy@vlong@ApexChina@@AAEXXZ 00412990 f   NetClientLib:dhkey.obj
 0001:000119d0       ??1vlong@ApexChina@@QAE@XZ 004129d0 f   NetClientLib:dhkey.obj
 0001:00011a00       ??DApexChina@@YA?AVvlong@0@ABV10@0@Z 00412a00 f   NetClientLib:dhkey.obj
 0001:00011af0       ?val@vlong@ApexChina@@AAEJD@Z 00412af0 f   NetClientLib:dhkey.obj
 0001:00011c10       ??1CDHKey@ApexChina@@QAE@XZ 00412c10 f   NetClientLib:dhkey.obj
 0001:00011d90       ??4vlong@ApexChina@@QAEAAV01@ABV01@@Z 00412d90 f   NetClientLib:dhkey.obj
 0001:00011dd0       ??Yvlong@ApexChina@@QAEAAV01@ABV01@@Z 00412dd0 f   NetClientLib:dhkey.obj
 0001:00011ef0       ??HApexChina@@YA?AVvlong@0@ABV10@0@Z 00412ef0 f   NetClientLib:dhkey.obj
 0001:00011fb0       ?strtov@vlong@ApexChina@@QAEJPBDJ@Z 00412fb0 f   NetClientLib:dhkey.obj
 0001:000122c0       ??0CDHKey@ApexChina@@QAE@K@Z 004132c0 f   NetClientLib:dhkey.obj
 0001:00012480       ?Getguid3DAlgorithm@DxSoundMan@@QAE?AU_GUID@@XZ 00413480 f i EngineSoundLib:DxSoundMan.obj
 0001:000124b0       ??_GSWavFileData@@QAEPAXI@Z 004134b0 f i EngineSoundLib:DxSoundMan.obj
 0001:000124f0       ?GetMapVolume@DxSoundMan@@QAEJXZ 004134f0 f   EngineSoundLib:DxSoundMan.obj
 0001:00012500       ?IsMapMute@DxSoundMan@@QAEHXZ 00413500 f   EngineSoundLib:DxSoundMan.obj
 0001:00012520       ?IsSfxMute@DxSoundMan@@QAEHXZ 00413520 f   EngineSoundLib:DxSoundMan.obj
 0001:00012540       ?GetSfxVolume@DxSoundMan@@QAEJXZ 00413540 f   EngineSoundLib:DxSoundMan.obj
 0001:00012550       ?IsStereo@DxSoundMan@@QAEHXZ 00413550 f   EngineSoundLib:DxSoundMan.obj
 0001:00012560       ?_Max@?$_Tree@V?$_Tmap_traits@USWavFileKey@@PAUSWavFileData@@U?$less@USWavFileKey@@@std@@V?$allocator@U?$pair@$$CBUSWavFileKey@@PAUSWavFileData@@@std@@@4@$0A@@std@@@std@@KAPAU_Node@?$_Tree_nod@V?$_Tmap_traits@USWavFileKey@@PAUSWavFileData@@U?$less@USWavFileKey@@@std@@V?$allocator@U?$pair@$$CBUSWavFileKey@@PAUSWavFileData@@@std@@@4@$0A@@std@@@2@PAU342@@Z 00413560 f i EngineSoundLib:DxSoundMan.obj
 0001:00012560       ?_Max@?$_Tree@V?$_Tmap_traits@V?$basic_string@DU?$char_traits@D@std@@V?$allocator@D@2@@std@@Uunz_file_pos_s@@U?$less@V?$basic_string@DU?$char_traits@D@std@@V?$allocator@D@2@@std@@@2@V?$allocator@U?$pair@$$CBV?$basic_string@DU?$char_traits@D@std@@V?$allocator@D@2@@std@@Uunz_file_pos_s@@@std@@@2@$0A@@std@@@std@@KAPAU_Node@?$_Tree_nod@V?$_Tmap_traits@V?$basic_string@DU?$char_traits@D@std@@V?$allocator@D@2@@std@@Uunz_file_pos_s@@U?$less@V?$basic_string@DU?$char_traits@D@std@@V?$allocator@D@2@@std@@@2@V?$allocator@U?$pair@$$CBV?$basic_string@DU?$char_traits@D@std@@V?$allocator@D@2@@std@@Uunz_file_pos_s@@@std@@@2@$0A@@std@@@2@PAU342@@Z 00413560 f i EngineLib:Unzipper.obj
 0001:00012580       ?_Inc@const_iterator@?$_Tree@V?$_Tmap_traits@V?$basic_string@DU?$char_traits@D@std@@V?$allocator@D@2@@std@@Uunz_file_pos_s@@U?$less@V?$basic_string@DU?$char_traits@D@std@@V?$allocator@D@2@@std@@@2@V?$allocator@U?$pair@$$CBV?$basic_string@DU?$char_traits@D@std@@V?$allocator@D@2@@std@@Uunz_file_pos_s@@@std@@@2@$0A@@std@@@std@@QAEXXZ 00413580 f i EngineLib:Unzipper.obj
 0001:00012580       ?_Inc@const_iterator@?$_Tree@V?$_Tmap_traits@USWavFileKey@@PAUSWavFileData@@U?$less@USWavFileKey@@@std@@V?$allocator@U?$pair@$$CBUSWavFileKey@@PAUSWavFileData@@@std@@@4@$0A@@std@@@std@@QAEXXZ 00413580 f i EngineSoundLib:DxSoundMan.obj
 0001:000125e0       ?_Dec@const_iterator@?$_Tree@V?$_Tmap_traits@USWavFileKey@@PAUSWavFileData@@U?$less@USWavFileKey@@@std@@V?$allocator@U?$pair@$$CBUSWavFileKey@@PAUSWavFileData@@@std@@@4@$0A@@std@@@std@@QAEXXZ 004135e0 f i EngineSoundLib:DxSoundMan.obj
 0001:00012640       ??$?0USWavFileKey@@PAUSWavFileData@@@?$pair@$$CBUSWavFileKey@@PAUSWavFileData@@@std@@QAE@ABU?$pair@USWavFileKey@@PAUSWavFileData@@@1@@Z 00413640 f i EngineSoundLib:DxSoundMan.obj
 0001:00012670       ?OneTimeSceneInit@DxSoundMan@@QAEHPAUHWND__@@PAD@Z 00413670 f   EngineSoundLib:DxSoundMan.obj
 0001:00012780       ??$make_pair@USWavFileKey@@PAUSWavFileData@@@std@@YA?AU?$pair@USWavFileKey@@PAUSWavFileData@@@0@USWavFileKey@@PAUSWavFileData@@@Z 00413780 f i EngineSoundLib:DxSoundMan.obj
 0001:000127f0       ?_Buynode@?$_Tree@V?$_Tmap_traits@USWavFileKey@@PAUSWavFileData@@U?$less@USWavFileKey@@@std@@V?$allocator@U?$pair@$$CBUSWavFileKey@@PAUSWavFileData@@@std@@@4@$0A@@std@@@std@@IAEPAU_Node@?$_Tree_nod@V?$_Tmap_traits@USWavFileKey@@PAUSWavFileData@@U?$less@USWavFileKey@@@std@@V?$allocator@U?$pair@$$CBUSWavFileKey@@PAUSWavFileData@@@std@@@4@$0A@@std@@@2@PAU342@00ABU?$pair@$$CBUSWavFileKey@@PAUSWavFileData@@@2@D@Z 004137f0 f i EngineSoundLib:DxSoundMan.obj
 0001:000128a0       ?find@?$_Tree@V?$_Tmap_traits@USWavFileKey@@PAUSWavFileData@@U?$less@USWavFileKey@@@std@@V?$allocator@U?$pair@$$CBUSWavFileKey@@PAUSWavFileData@@@std@@@4@$0A@@std@@@std@@QAE?AViterator@12@ABUSWavFileKey@@@Z 004138a0 f i EngineSoundLib:DxSoundMan.obj
 0001:00012900       ?_Insert@?$_Tree@V?$_Tmap_traits@USWavFileKey@@PAUSWavFileData@@U?$less@USWavFileKey@@@std@@V?$allocator@U?$pair@$$CBUSWavFileKey@@PAUSWavFileData@@@std@@@4@$0A@@std@@@std@@IAE?AViterator@12@_NPAU_Node@?$_Tree_nod@V?$_Tmap_traits@USWavFileKey@@PAUSWavFileData@@U?$less@USWavFileKey@@@std@@V?$allocator@U?$pair@$$CBUSWavFileKey@@PAUSWavFileData@@@std@@@4@$0A@@std@@@2@ABU?$pair@$$CBUSWavFileKey@@PAUSWavFileData@@@2@@Z 00413900 f i EngineSoundLib:DxSoundMan.obj
 0001:00012ac0       ?IsLoadedWav@DxSoundMan@@QAE_NV?$basic_string@DU?$char_traits@D@std@@V?$allocator@D@2@@std@@_N@Z 00413ac0 f   EngineSoundLib:DxSoundMan.obj
 0001:00012ba0       ?insert@?$_Tree@V?$_Tmap_traits@USWavFileKey@@PAUSWavFileData@@U?$less@USWavFileKey@@@std@@V?$allocator@U?$pair@$$CBUSWavFileKey@@PAUSWavFileData@@@std@@@4@$0A@@std@@@std@@QAE?AU?$pair@Viterator@?$_Tree@V?$_Tmap_traits@USWavFileKey@@PAUSWavFileData@@U?$less@USWavFileKey@@@std@@V?$allocator@U?$pair@$$CBUSWavFileKey@@PAUSWavFileData@@@std@@@4@$0A@@std@@@std@@_N@2@ABU?$pair@$$CBUSWavFileKey@@PAUSWavFileData@@@2@@Z 00413ba0 f i EngineSoundLib:DxSoundMan.obj
 0001:00012c80       ?erase@?$_Tree@V?$_Tmap_traits@USWavFileKey@@PAUSWavFileData@@U?$less@USWavFileKey@@@std@@V?$allocator@U?$pair@$$CBUSWavFileKey@@PAUSWavFileData@@@std@@@4@$0A@@std@@@std@@QAE?AViterator@12@V312@@Z 00413c80 f i EngineSoundLib:DxSoundMan.obj
 0001:00012f60       ?_Erase@?$_Tree@V?$_Tmap_traits@USWavFileKey@@PAUSWavFileData@@U?$less@USWavFileKey@@@std@@V?$allocator@U?$pair@$$CBUSWavFileKey@@PAUSWavFileData@@@std@@@4@$0A@@std@@@std@@IAEXPAU_Node@?$_Tree_nod@V?$_Tmap_traits@USWavFileKey@@PAUSWavFileData@@U?$less@USWavFileKey@@@std@@V?$allocator@U?$pair@$$CBUSWavFileKey@@PAUSWavFileData@@@std@@@4@$0A@@std@@@2@@Z 00413f60 f i EngineSoundLib:DxSoundMan.obj
 0001:00012fa0       ?LoadWav@DxSoundMan@@QAEPAVCSound@@V?$basic_string@DU?$char_traits@D@std@@V?$allocator@D@2@@std@@_N@Z 00413fa0 f   EngineSoundLib:DxSoundMan.obj
 0001:00013220       ?ReleaseWav@DxSoundMan@@QAEJV?$basic_string@DU?$char_traits@D@std@@V?$allocator@D@2@@std@@_N@Z 00414220 f   EngineSoundLib:DxSoundMan.obj
 0001:00013350       ?erase@?$_Tree@V?$_Tmap_traits@USWavFileKey@@PAUSWavFileData@@U?$less@USWavFileKey@@@std@@V?$allocator@U?$pair@$$CBUSWavFileKey@@PAUSWavFileData@@@std@@@4@$0A@@std@@@std@@QAE?AViterator@12@V312@0@Z 00414350 f i EngineSoundLib:DxSoundMan.obj
 0001:00013410       ?DeleteAllWav@DxSoundMan@@QAEXXZ 00414410 f   EngineSoundLib:DxSoundMan.obj
 0001:000134b0       ?FinalCleanup@DxSoundMan@@QAEHXZ 004144b0 f   EngineSoundLib:DxSoundMan.obj
 0001:000134f0       ??1?$map@USWavFileKey@@PAUSWavFileData@@U?$less@USWavFileKey@@@std@@V?$allocator@U?$pair@$$CBUSWavFileKey@@PAUSWavFileData@@@std@@@4@@std@@QAE@XZ 004144f0 f i EngineSoundLib:DxSoundMan.obj
 0001:00013520       ??1DxSoundMan@@EAE@XZ      00414520 f   EngineSoundLib:DxSoundMan.obj
 0001:000135b0       ??0DxSoundMan@@AAE@XZ      004145b0 f   EngineSoundLib:DxSoundMan.obj
 0001:00013690       ??_GDxSoundMan@@EAEPAXI@Z  00414690 f i EngineSoundLib:DxSoundMan.obj
 0001:00013690       ??_EDxSoundMan@@EAEPAXI@Z  00414690 f i EngineSoundLib:DxSoundMan.obj
 0001:000136b0       ?GetInstance@DxSoundMan@@SAAAV1@XZ 004146b0 f   EngineSoundLib:DxSoundMan.obj
 0001:00013710       ?lower_bound@STRUTIL@@YAPADPADKD@Z 00414710 f i EngineLib:StringUtils.obj
 0001:00013750       ?size@?$vector@V?$basic_string@DU?$char_traits@D@std@@V?$allocator@D@2@@std@@V?$allocator@V?$basic_string@DU?$char_traits@D@std@@V?$allocator@D@2@@std@@@2@@std@@QBEIXZ 00414750 f i EngineLib:StringUtils.obj
 0001:00013780       ??$fill@PADD@std@@YAXPAD0ABD@Z 00414780 f i EngineLib:StringUtils.obj
 0001:000137a0       ??$fill@PAV?$basic_string@DU?$char_traits@D@std@@V?$allocator@D@2@@std@@V12@@std@@YAXPAV?$basic_string@DU?$char_traits@D@std@@V?$allocator@D@2@@0@0ABV10@@Z 004147a0 f i EngineLib:StringUtils.obj
 0001:000137d0       ??$_Copy_backward_opt@PAV?$basic_string@DU?$char_traits@D@std@@V?$allocator@D@2@@std@@PAV12@@std@@YAPAV?$basic_string@DU?$char_traits@D@std@@V?$allocator@D@2@@0@PAV10@00U_Nonscalar_ptr_iterator_tag@0@@Z 004147d0 f i EngineLib:StringUtils.obj
 0001:00013810       ?_Xlen@?$vector@V?$basic_string@DU?$char_traits@D@std@@V?$allocator@D@2@@std@@V?$allocator@V?$basic_string@DU?$char_traits@D@std@@V?$allocator@D@2@@std@@@2@@std@@IBEXXZ 00414810 f i EngineLib:StringUtils.obj
 0001:00013810       ?_Xlen@?$vector@DV?$allocator@D@std@@@std@@IBEXXZ 00414810 f i EngineLib:StringUtils.obj
 0001:00013890       ??$_Uninit_copy@PAV?$basic_string@DU?$char_traits@D@std@@V?$allocator@D@2@@std@@PAV12@V?$allocator@V?$basic_string@DU?$char_traits@D@std@@V?$allocator@D@2@@std@@@2@@std@@YAPAV?$basic_string@DU?$char_traits@D@std@@V?$allocator@D@2@@0@PAV10@00AAV?$allocator@V?$basic_string@DU?$char_traits@D@std@@V?$allocator@D@2@@std@@@0@U_Nonscalar_ptr_iterator_tag@0@@Z 00414890 f i EngineLib:StringUtils.obj
 0001:00013920       ??$_Rotate@Viterator@?$vector@DV?$allocator@D@std@@@std@@HD@std@@YAXViterator@?$vector@DV?$allocator@D@std@@@0@00PAHPAD@Z 00414920 f i EngineLib:StringUtils.obj
 0001:000139d0       ??$_Ucopy@PAD@?$vector@DV?$allocator@D@std@@@std@@IAEPADPAD00@Z 004149d0 f i EngineLib:StringUtils.obj
 0001:00013a00       ??$_Uninit_fill_n@PAV?$basic_string@DU?$char_traits@D@std@@V?$allocator@D@2@@std@@IV12@V?$allocator@V?$basic_string@DU?$char_traits@D@std@@V?$allocator@D@2@@std@@@2@@std@@YAXPAV?$basic_string@DU?$char_traits@D@std@@V?$allocator@D@2@@0@IABV10@AAV?$allocator@V?$basic_string@DU?$char_traits@D@std@@V?$allocator@D@2@@std@@@0@U_Nonscalar_ptr_iterator_tag@0@@Z 00414a00 f i EngineLib:StringUtils.obj
 0001:00013a90       ??$_Median@Viterator@?$vector@DV?$allocator@D@std@@@std@@@std@@YAXViterator@?$vector@DV?$allocator@D@std@@@0@00@Z 00414a90 f i EngineLib:StringUtils.obj
 0001:00013bf0       ??$_Adjust_heap@Viterator@?$vector@DV?$allocator@D@std@@@std@@HD@std@@YAXViterator@?$vector@DV?$allocator@D@std@@@0@HHD@Z 00414bf0 f i EngineLib:StringUtils.obj
 0001:00013c70       ?IsSeparator@STRUTIL@@YAHPBDHAAH@Z 00414c70 f i EngineLib:StringUtils.obj
 0001:00013cf0       ?StringSeparate@STRUTIL@@YAHAAV?$CStringT@DV?$StrTraitMFC_DLL@DV?$ChTraitsCRT@D@ATL@@@@@ATL@@AAVCStringArray@@@Z 00414cf0 f   EngineLib:StringUtils.obj
 0001:00013e30       ?_Ufill@?$vector@DV?$allocator@D@std@@@std@@IAEPADPADIABD@Z 00414e30 f i EngineLib:StringUtils.obj
 0001:00013e60       ?_Insert_n@?$vector@DV?$allocator@D@std@@@std@@IAEXViterator@12@IABD@Z 00414e60 f i EngineLib:StringUtils.obj
 0001:00014020       ??$_Unguarded_partition@Viterator@?$vector@DV?$allocator@D@std@@@std@@@std@@YA?AU?$pair@Viterator@?$vector@DV?$allocator@D@std@@@std@@V123@@0@Viterator@?$vector@DV?$allocator@D@std@@@0@0@Z 00415020 f i EngineLib:StringUtils.obj
 0001:00014170       ??$_Make_heap@Viterator@?$vector@DV?$allocator@D@std@@@std@@HD@std@@YAXViterator@?$vector@DV?$allocator@D@std@@@0@0PAHPAD@Z 00415170 f i EngineLib:StringUtils.obj
 0001:000141b0       ?_Ufill@?$vector@V?$basic_string@DU?$char_traits@D@std@@V?$allocator@D@2@@std@@V?$allocator@V?$basic_string@DU?$char_traits@D@std@@V?$allocator@D@2@@std@@@2@@std@@IAEPAV?$basic_string@DU?$char_traits@D@std@@V?$allocator@D@2@@2@PAV32@IABV32@@Z 004151b0 f i EngineLib:StringUtils.obj
 0001:000141e0       ?_Destroy@?$vector@V?$basic_string@DU?$char_traits@D@std@@V?$allocator@D@2@@std@@V?$allocator@V?$basic_string@DU?$char_traits@D@std@@V?$allocator@D@2@@std@@@2@@std@@IAEXPAV?$basic_string@DU?$char_traits@D@std@@V?$allocator@D@2@@2@0@Z 004151e0 f i EngineLib:StringUtils.obj
 0001:00014210       ?_Insert_n@?$vector@V?$basic_string@DU?$char_traits@D@std@@V?$allocator@D@2@@std@@V?$allocator@V?$basic_string@DU?$char_traits@D@std@@V?$allocator@D@2@@std@@@2@@std@@IAEXViterator@12@IABV?$basic_string@DU?$char_traits@D@std@@V?$allocator@D@2@@2@@Z 00415210 f i EngineLib:StringUtils.obj
 0001:00014530       ??$_Insertion_sort@Viterator@?$vector@DV?$allocator@D@std@@@std@@@std@@YAXViterator@?$vector@DV?$allocator@D@std@@@0@0@Z 00415530 f i EngineLib:StringUtils.obj
 0001:000145a0       ?ClearSeparator@STRUTIL@@YAXXZ 004155a0 f   EngineLib:StringUtils.obj
 0001:000145e0       ?push_back@?$vector@DV?$allocator@D@std@@@std@@QAEXABD@Z 004155e0 f i EngineLib:StringUtils.obj
 0001:00014630       ?insert@?$vector@V?$basic_string@DU?$char_traits@D@std@@V?$allocator@D@2@@std@@V?$allocator@V?$basic_string@DU?$char_traits@D@std@@V?$allocator@D@2@@std@@@2@@std@@QAE?AViterator@12@V312@ABV?$basic_string@DU?$char_traits@D@std@@V?$allocator@D@2@@2@@Z 00415630 f i EngineLib:StringUtils.obj
 0001:000146a0       ?_Tidy@?$vector@V?$basic_string@DU?$char_traits@D@std@@V?$allocator@D@2@@std@@V?$allocator@V?$basic_string@DU?$char_traits@D@std@@V?$allocator@D@2@@std@@@2@@std@@IAEXXZ 004156a0 f i EngineLib:StringUtils.obj
 0001:000146f0       ??$sort_heap@Viterator@?$vector@DV?$allocator@D@std@@@std@@@std@@YAXViterator@?$vector@DV?$allocator@D@std@@@0@0@Z 004156f0 f i EngineLib:StringUtils.obj
 0001:00014730       ?push_back@?$vector@V?$basic_string@DU?$char_traits@D@std@@V?$allocator@D@2@@std@@V?$allocator@V?$basic_string@DU?$char_traits@D@std@@V?$allocator@D@2@@std@@@2@@std@@QAEXABV?$basic_string@DU?$char_traits@D@std@@V?$allocator@D@2@@2@@Z 00415730 f i EngineLib:StringUtils.obj
 0001:000147c0       ??$_Sort@Viterator@?$vector@DV?$allocator@D@std@@@std@@H@std@@YAXViterator@?$vector@DV?$allocator@D@std@@@0@0H@Z 004157c0 f i EngineLib:StringUtils.obj
 0001:00014880       ?DoSeparate@CSEPARATOR@@QAE_NV?$basic_string@DU?$char_traits@D@std@@V?$allocator@D@2@@std@@AAV?$vector@V?$basic_string@DU?$char_traits@D@std@@V?$allocator@D@2@@std@@V?$allocator@V?$basic_string@DU?$char_traits@D@std@@V?$allocator@D@2@@std@@@2@@3@@Z 00415880 f   EngineLib:StringUtils.obj
 0001:00014a30       ?RegisterSeparator@STRUTIL@@YAXV?$CStringT@DV?$StrTraitMFC_DLL@DV?$ChTraitsCRT@D@ATL@@@@@ATL@@@Z 00415a30 f   EngineLib:StringUtils.obj
 0001:00014ac0       ?Register@CSEPARATOR@@QAEXD@Z 00415ac0 f   EngineLib:StringUtils.obj
 0001:00014b20       ?StringCopyWorkerW@@YGJPAGIPBG@Z 00415b20 f i EngineLib:DXUT.obj
 0001:00014b80       _InitMultipleMonitorStubs  00415b80 f   EngineLib:DXUT.obj
 0001:00014cc0       _xGetSystemMetrics@4       00415cc0 f   EngineLib:DXUT.obj
 0001:00014d20       ?Create@DXUTState@@QAEXXZ  00415d20 f i EngineLib:DXUT.obj
 0001:00014d80       ?SetD3D@DXUTState@@QAEXPAUIDirect3D9@@@Z 00415d80 f i EngineLib:DXUT.obj
 0001:00014dc0       ?GetD3D@DXUTState@@QAEPAUIDirect3D9@@XZ 00415dc0 f i EngineLib:DXUT.obj
 0001:00014e00       ?SetD3DDevice@DXUTState@@QAEXPAUIDirect3DDevice9@@@Z 00415e00 f i EngineLib:DXUT.obj
 0001:00014e40       ?GetD3DDevice@DXUTState@@QAEPAUIDirect3DDevice9@@XZ 00415e40 f i EngineLib:DXUT.obj
 0001:00014e80       ?SetD3DEnumeration@DXUTState@@QAEXPAVCD3DEnumeration@@@Z 00415e80 f i EngineLib:DXUT.obj
 0001:00014ec0       ?SetCurrentDeviceSettings@DXUTState@@QAEXPAUDXUTDeviceSettings@@@Z 00415ec0 f i EngineLib:DXUT.obj
 0001:00014f00       ?GetCurrentDeviceSettings@DXUTState@@QAEPAUDXUTDeviceSettings@@XZ 00415f00 f i EngineLib:DXUT.obj
 0001:00014f40       ?GetBackBufferSurfaceDesc@DXUTState@@QAEPAU_D3DSURFACE_DESC@@XZ 00415f40 f i EngineLib:DXUT.obj
 0001:00014f80       ?GetCaps@DXUTState@@QAEPAU_D3DCAPS9@@XZ 00415f80 f i EngineLib:DXUT.obj
 0001:00014fc0       ?GetHWNDDeviceFullScreen@DXUTState@@QAEPAUHWND__@@XZ 00415fc0 f i EngineLib:DXUT.obj
 0001:00015000       ?GetHWNDDeviceWindowed@DXUTState@@QAEPAUHWND__@@XZ 00416000 f i EngineLib:DXUT.obj
 0001:00015040       ?SetKeyboardHook@DXUTState@@QAEXPAUHHOOK__@@@Z 00416040 f i EngineLib:DXUT.obj
 0001:00015080       ?GetKeyboardHook@DXUTState@@QAEPAUHHOOK__@@XZ 00416080 f i EngineLib:DXUT.obj
 0001:000150c0       ?SetAllowShortcutKeys@DXUTState@@QAEX_N@Z 004160c0 f i EngineLib:DXUT.obj
 0001:00015100       ?GetAllowShortcutKeys@DXUTState@@QAE_NXZ 00416100 f i EngineLib:DXUT.obj
 0001:00015140       ?GetStartupStickyKeys@DXUTState@@QAE?AUtagSTICKYKEYS@@XZ 00416140 f i EngineLib:DXUT.obj
 0001:00015190       ?GetStartupToggleKeys@DXUTState@@QAE?AUtagTOGGLEKEYS@@XZ 00416190 f i EngineLib:DXUT.obj
 0001:000151e0       ?GetStartupFilterKeys@DXUTState@@QAE?AUtagFILTERKEYS@@XZ 004161e0 f i EngineLib:DXUT.obj
 0001:00015250       ?GetShowMsgBoxOnError@DXUTState@@QAE_NXZ 00416250 f i EngineLib:DXUT.obj
 0001:00015290       ?SetExitCode@DXUTState@@QAEXH@Z 00416290 f i EngineLib:DXUT.obj
 0001:000152d0       ?SetDeviceCreated@DXUTState@@QAEX_N@Z 004162d0 f i EngineLib:DXUT.obj
 0001:00015310       ?SetInsideDeviceCallback@DXUTState@@QAEX_N@Z 00416310 f i EngineLib:DXUT.obj
 0001:00015350       ?SetDeviceObjectsCreated@DXUTState@@QAEX_N@Z 00416350 f i EngineLib:DXUT.obj
 0001:00015390       ?GetDeviceObjectsCreated@DXUTState@@QAE_NXZ 00416390 f i EngineLib:DXUT.obj
 0001:000153d0       ?SetDeviceObjectsReset@DXUTState@@QAEX_N@Z 004163d0 f i EngineLib:DXUT.obj
 0001:00015410       ?GetDeviceObjectsReset@DXUTState@@QAE_NXZ 00416410 f i EngineLib:DXUT.obj
 0001:00015450       ?GetDeviceLostFunc@DXUTState@@QAEP6GXPAX@ZXZ 00416450 f i EngineLib:DXUT.obj
 0001:00015490       ?GetDeviceDestroyedFunc@DXUTState@@QAEP6GXPAX@ZXZ 00416490 f i EngineLib:DXUT.obj
 0001:000154d0       ?GetDeviceLostFuncUserContext@DXUTState@@QAEPAXXZ 004164d0 f i EngineLib:DXUT.obj
 0001:00015510       ?GetDeviceDestroyedFuncUserContext@DXUTState@@QAEPAXXZ 00416510 f i EngineLib:DXUT.obj
 0001:00015550       ?GetWindowTitle@DXUTState@@QAEPAGXZ 00416550 f i EngineLib:DXUT.obj
 0001:00015590       ?LowLevelKeyboardProc@@YGJHIJ@Z 00416590 f   EngineLib:DXUT.obj
 0001:00015620       ?DXUTAllowShortcutKeys@@YAX_N@Z 00416620 f   EngineLib:DXUT.obj
 0001:000157e0       ?DXUTGetHWND@@YAPAUHWND__@@XZ 004167e0 f   EngineLib:DXUT.obj
 0001:00015820       ?DXUTDisplayErrorMessage@@YAXJ@Z 00416820 f   EngineLib:DXUT.obj
 0001:00015a30       ?DXUTCleanup3DEnvironment@@YAX_N@Z 00416a30 f   EngineLib:DXUT.obj
 0001:00015b90       ?DXUTShutdown@@YAXH@Z      00416b90 f   EngineLib:DXUT.obj
 0001:00015c30       ?GetDXUTState@@YAAAVDXUTState@@XZ 00416c30 f   EngineLib:DXUT.obj
 0001:00015c90       ?DXUTGetHWNDDeviceFullScreen@@YAPAUHWND__@@XZ 00416c90 f   EngineLib:DXUT.obj
 0001:00015ca0       ?Init@INFO@CDebugSet@@QAEXXZ 00416ca0 f i EngineLib:DebugSet.obj
 0001:00015cf0       ??0SPOSTEXT@CDebugSet@@QAE@MMV?$basic_string@DU?$char_traits@D@std@@V?$allocator@D@2@@std@@@Z 00416cf0 f i EngineLib:DebugSet.obj
 0001:00015d60       ?GetDay@CTime@ATL@@QBEHXZ  00416d60 f i EngineLib:DebugSet.obj
 0001:00015d80       ??1_Node@?$_List_nod@USPOSTEXT@CDebugSet@@V?$allocator@USPOSTEXT@CDebugSet@@@std@@@std@@QAE@XZ 00416d80 f i EngineLib:DebugSet.obj
 0001:00015d90       ?StringVPrintfWorkerA@@YGJPADIPBD0@Z 00416d90 f i EngineLib:DebugSet.obj
 0001:00015df0       ?DelHead@?$CMList@PAUINFO@CDebugSet@@@@QAEHXZ 00416df0 f i EngineLib:DebugSet.obj
 0001:00015e40       ?StringCchPrintfA@@YAJPADIPBDZZ 00416e40 f i EngineLib:DebugSet.obj
 0001:00015e70       ?GetCurTime@CDebugSet@@YA?AV?$basic_string@DU?$char_traits@D@std@@V?$allocator@D@2@@std@@XZ 00416e70 f   EngineLib:DebugSet.obj
 0001:00015fa0       ?ToLogFile@CDebugSet@@YAXPBDZZ 00416fa0 f   EngineLib:DebugSet.obj
 0001:000160a0       ?FinalCleanup@CDebugSet@@YAJXZ 004170a0 f   EngineLib:DebugSet.obj
 0001:000161c0       ?_Buynode@?$list@USPOSTEXT@CDebugSet@@V?$allocator@USPOSTEXT@CDebugSet@@@std@@@std@@IAEPAU_Node@?$_List_nod@USPOSTEXT@CDebugSet@@V?$allocator@USPOSTEXT@CDebugSet@@@std@@@2@XZ 004171c0 f i EngineLib:DebugSet.obj
 0001:000161e0       ?_Buynode@?$list@USPOSTEXT@CDebugSet@@V?$allocator@USPOSTEXT@CDebugSet@@@std@@@std@@IAEPAU_Node@?$_List_nod@USPOSTEXT@CDebugSet@@V?$allocator@USPOSTEXT@CDebugSet@@@std@@@2@PAU342@0ABUSPOSTEXT@CDebugSet@@@Z 004171e0 f i EngineLib:DebugSet.obj
 0001:00016280       ?_Incsize@?$list@USPOSTEXT@CDebugSet@@V?$allocator@USPOSTEXT@CDebugSet@@@std@@@std@@IAEXI@Z 00417280 f i EngineLib:DebugSet.obj
 0001:00016320       ?ToListView@CDebugSet@@YAXPBDZZ 00417320 f   EngineLib:DebugSet.obj
 0001:00016560       ?OneTimeSceneInit@CDebugSet@@YAJPBD_N@Z 00417560 f   EngineLib:DebugSet.obj
 0001:000168e0       ?clear@?$list@USPOSTEXT@CDebugSet@@V?$allocator@USPOSTEXT@CDebugSet@@@std@@@std@@QAEXXZ 004178e0 f i EngineLib:DebugSet.obj
 0001:00016920       ?ToPos@CDebugSet@@YAXMMPBDZZ 00417920 f   EngineLib:DebugSet.obj
 0001:00016a00       ?DXUTSetDeviceCursor@CD3DApplication@@IAEJPAUIDirect3DDevice9@@PAUHICON__@@_N@Z 00417a00 f   EngineLib:d3dapp.obj
 0001:00016e10       ?DXUTSetupCursor@CD3DApplication@@IAEXXZ 00417e10 f   EngineLib:d3dapp.obj
 0001:00016f00       ?WndProc@@YGJPAUHWND__@@IIJ@Z 00417f00 f   EngineLib:d3dapp.obj
 0001:00016f60       ?FindDepthStencilFormat@CD3DApplication@@IAEHIW4_D3DDEVTYPE@@W4_D3DFORMAT@@PAW43@@Z 00417f60 f   EngineLib:d3dapp.obj
 0001:00017190       ?CreateObjects@CD3DApplication@@MAEJXZ 00418190 f   EngineLib:d3dapp.obj
 0001:000171b0       ?Resize3DEnvironment@CD3DApplication@@MAEJXZ 004181b0 f   EngineLib:d3dapp.obj
 0001:000172f0       ?AdjustWindowForChange@CD3DApplication@@MAEJXZ 004182f0 f   EngineLib:d3dapp.obj
 0001:00017330       ?Run@CD3DApplication@@UAEHXZ 00418330 f   EngineLib:d3dapp.obj
 0001:000173e0       ?FrameMove3DEnvironment@CD3DApplication@@UAEJXZ 004183e0 f   EngineLib:d3dapp.obj
 0001:00017460       ?Present@CD3DApplication@@QAEXXZ 00418460 f   EngineLib:d3dapp.obj
 0001:00017550       ?Pause@CD3DApplication@@UAEXH@Z 00418550 f   EngineLib:d3dapp.obj
 0001:000175c0       ?Cleanup3DEnvironment@CD3DApplication@@QAEXXZ 004185c0 f   EngineLib:d3dapp.obj
 0001:00017620       ?DisplayErrorMsg@CD3DApplication@@IAEJJK@Z 00418620 f   EngineLib:d3dapp.obj
 0001:000178c0       ?MsgProc@CD3DApplication@@UAEJPAUHWND__@@IIJ@Z 004188c0 f   EngineLib:d3dapp.obj
 0001:00017d80       ?BuildDeviceList@CD3DApplication@@IAEJXZ 00418d80 f   EngineLib:d3dapp.obj
 0001:000186a0       ?BuildDeviceListSet@CD3DApplication@@QAEJXZ 004196a0 f   EngineLib:d3dapp.obj
 0001:00018790       ?Initialize3DEnvironment@CD3DApplication@@IAEJXZ 00419790 f   EngineLib:d3dapp.obj
 0001:00018cb0       ?Render3DEnvironment@CD3DApplication@@UAEJXZ 00419cb0 f   EngineLib:d3dapp.obj
 0001:00019460       ??0D3DModeInfo@@QAE@XZ     0041a460 f i EngineLib:d3dapp.obj
 0001:000194a0       ?Create@CD3DApplication@@UAEJPAUHINSTANCE__@@@Z 0041a4a0 f   EngineLib:d3dapp.obj
 0001:00019710       ??0D3DDeviceInfo@@QAE@XZ   0041a710 f i EngineLib:d3dapp.obj
 0001:00019740       ??0D3DAdapterInfo@@QAE@XZ  0041a740 f i EngineLib:d3dapp.obj
 0001:00019770       ??0CD3DApplication@@QAE@XZ 0041a770 f   EngineLib:d3dapp.obj
 0001:00019890       ?ConfirmDevice@CD3DApplication@@MAEJPAU_D3DCAPS9@@KW4_D3DFORMAT@@@Z 0041a890 f i EngineLib:d3dapp.obj
 0001:000198a0       ?Create@CD3DApplication@@UAEJPAUHWND__@@0PAUHINSTANCE__@@@Z 0041a8a0 f i EngineLib:d3dapp.obj
 0001:000198d0       ??1SFileHandle@@UAE@XZ     0041a8d0 f   EngineLib:SFileSystem.obj
 0001:000198f0       ?Read@SFileHandle@@QAEHPAXJ@Z 0041a8f0 f   EngineLib:SFileSystem.obj
 0001:00019950       ?GetSafeName@SFileSystem@@AAEXPADPBD@Z 0041a950 f   EngineLib:SFileSystem.obj
 0001:000199a0       ?SearchDir@SFileSystem@@AAEHPBDPAVSFileHandle@@@Z 0041a9a0 f   EngineLib:SFileSystem.obj
 0001:00019a40       ?CloseFile@SFileSystem@@QAEXPAVSFileHandle@@@Z 0041aa40 f   EngineLib:SFileSystem.obj
 0001:00019aa0       ??0SFileHandle@@QAE@XZ     0041aaa0 f   EngineLib:SFileSystem.obj
 0001:00019ae0       ??_GSFileHandle@@UAEPAXI@Z 0041aae0 f i EngineLib:SFileSystem.obj
 0001:00019ae0       ??_ESFileHandle@@UAEPAXI@Z 0041aae0 f i EngineLib:SFileSystem.obj
 0001:00019b20       ?GetNameOnly@SFileSystem@@QAEXPADPBD@Z 0041ab20 f   EngineLib:SFileSystem.obj
 0001:00019bd0       ?GetPathOnly@SFileSystem@@QAEXPADPBD@Z 0041abd0 f   EngineLib:SFileSystem.obj
 0001:00019c50       ?_Buynode@?$list@PAVSFileHandle@@V?$allocator@PAVSFileHandle@@@std@@@std@@IAEPAU_Node@?$_List_nod@PAVSFileHandle@@V?$allocator@PAVSFileHandle@@@std@@@2@XZ 0041ac50 f i EngineLib:SFileSystem.obj
 0001:00019c50       ?_Buynode@?$list@PAUANIMCONTNODE@@V?$allocator@PAUANIMCONTNODE@@@std@@@std@@IAEPAU_Node@?$_List_nod@PAUANIMCONTNODE@@V?$allocator@PAUANIMCONTNODE@@@std@@@2@XZ 0041ac50 f i EngineLib:DxSkinAniControl.obj
 0001:00019c70       ?_Buynode@?$list@PAVSFileHandle@@V?$allocator@PAVSFileHandle@@@std@@@std@@IAEPAU_Node@?$_List_nod@PAVSFileHandle@@V?$allocator@PAVSFileHandle@@@std@@@2@PAU342@0ABQAVSFileHandle@@@Z 0041ac70 f i EngineLib:SFileSystem.obj
 0001:00019ca0       ?_Incsize@?$list@PAVSFileHandle@@V?$allocator@PAVSFileHandle@@@std@@@std@@IAEXI@Z 0041aca0 f i EngineLib:SFileSystem.obj
 0001:00019d40       ?SetCurDir@SFileSystem@@AAEXPBD@Z 0041ad40 f   EngineLib:SFileSystem.obj
 0001:00019ed0       ?CloseFileSystem@SFileSystem@@QAEXXZ 0041aed0 f   EngineLib:SFileSystem.obj
 0001:00019f90       ??1?$list@PAUANIMCONTNODE@@V?$allocator@PAUANIMCONTNODE@@@std@@@std@@QAE@XZ 0041af90 f i EngineLib:DxSkinAniControl.obj
 0001:00019f90       ??1?$list@PAVSFileHandle@@V?$allocator@PAVSFileHandle@@@std@@@std@@QAE@XZ 0041af90 f i EngineLib:SFileSystem.obj
 0001:00019fb0       ??1SFileSystem@@UAE@XZ     0041afb0 f   EngineLib:SFileSystem.obj
 0001:0001a030       ??0SFileSystem@@QAE@XZ     0041b030 f   EngineLib:SFileSystem.obj
 0001:0001a0c0       ??_GSFileSystem@@UAEPAXI@Z 0041b0c0 f i EngineLib:SFileSystem.obj
 0001:0001a0c0       ??_ESFileSystem@@UAEPAXI@Z 0041b0c0 f i EngineLib:SFileSystem.obj
 0001:0001a0e0       ?ChangeDir@SFileSystem@@QAEHPBD@Z 0041b0e0 f   EngineLib:SFileSystem.obj
 0001:0001a410       ?OpenFileSystem@SFileSystem@@QAEHPBD@Z 0041b410 f   EngineLib:SFileSystem.obj
 0001:0001a4a0       ?OpenFile@SFileSystem@@QAEPAVSFileHandle@@PBD@Z 0041b4a0 f   EngineLib:SFileSystem.obj
 0001:0001a690       ??0CHash@HASH@@QAE@XZ      0041b690 f   EngineLib:CHash.obj
 0001:0001a730       ?GOSTHash@CHash@HASH@@QAE?AV?$CStringT@DV?$StrTraitMFC_DLL@DV?$ChTraitsCRT@D@ATL@@@@@ATL@@XZ 0041b730 f   EngineLib:CHash.obj
 0001:0001a920       ?MD2Hash@CHash@HASH@@QAE?AV?$CStringT@DV?$StrTraitMFC_DLL@DV?$ChTraitsCRT@D@ATL@@@@@ATL@@XZ 0041b920 f   EngineLib:CHash.obj
 0001:0001ab30       ?MD4Hash@CHash@HASH@@QAE?AV?$CStringT@DV?$StrTraitMFC_DLL@DV?$ChTraitsCRT@D@ATL@@@@@ATL@@XZ 0041bb30 f   EngineLib:CHash.obj
 0001:0001ad10       ?MD5Hash@CHash@HASH@@QAE?AV?$CStringT@DV?$StrTraitMFC_DLL@DV?$ChTraitsCRT@D@ATL@@@@@ATL@@XZ 0041bd10 f   EngineLib:CHash.obj
 0001:0001af20       ?SHA1Hash@CHash@HASH@@QAE?AV?$CStringT@DV?$StrTraitMFC_DLL@DV?$ChTraitsCRT@D@ATL@@@@@ATL@@XZ 0041bf20 f   EngineLib:CHash.obj
 0001:0001b100       ?SHA2Hash@CHash@HASH@@QAE?AV?$CStringT@DV?$StrTraitMFC_DLL@DV?$ChTraitsCRT@D@ATL@@@@@ATL@@XZ 0041c100 f   EngineLib:CHash.obj
 0001:0001b310       ?SetHashAlgorithm@CHash@HASH@@QAEXH@Z 0041c310 f   EngineLib:CHash.obj
 0001:0001b320       ?SetHashFormat@CHash@HASH@@QAEXH@Z 0041c320 f   EngineLib:CHash.obj
 0001:0001b350       ?SetHashOperation@CHash@HASH@@QAEXH@Z 0041c350 f   EngineLib:CHash.obj
 0001:0001b370       ?SetHashFile@CHash@HASH@@QAEXPBD@Z 0041c370 f   EngineLib:CHash.obj
 0001:0001b380       ?DoHash@CHash@HASH@@QAE?AV?$CStringT@DV?$StrTraitMFC_DLL@DV?$ChTraitsCRT@D@ATL@@@@@ATL@@XZ 0041c380 f   EngineLib:CHash.obj
 0001:0001b620       ??0CSoundManager@@QAE@XZ   0041c620 f   EngineLib:dsutil.obj
 0001:0001b630       ??1CSoundManager@@QAE@XZ   0041c630 f   EngineLib:dsutil.obj
 0001:0001b650       ?Get3DListenerInterface@CSoundManager@@QAEJPAPAUIDirectSound3DListener@@@Z 0041c650 f   EngineLib:dsutil.obj
 0001:0001b700       ?RestoreBuffer@CSound@@IAEJPAUIDirectSoundBuffer@@PAH@Z 0041c700 f   EngineLib:dsutil.obj
 0001:0001b780       ?GetFreeBuffer@CSound@@QAEPAUIDirectSoundBuffer@@AAK@Z 0041c780 f   EngineLib:dsutil.obj
 0001:0001b7d0       ?GetBuffer@CSound@@QAEPAUIDirectSoundBuffer@@K@Z 0041c7d0 f   EngineLib:dsutil.obj
 0001:0001b7f0       ?Stop@CSound@@QAEJXZ       0041c7f0 f   EngineLib:dsutil.obj
 0001:0001b830       ?StopBuffer@CSound@@QAEJK@Z 0041c830 f   EngineLib:dsutil.obj
 0001:0001b880       ?Reset@CSound@@QAEJXZ      0041c880 f   EngineLib:dsutil.obj
 0001:0001b8c0       ?ResetBuffer@CSound@@QAEJK@Z 0041c8c0 f   EngineLib:dsutil.obj
 0001:0001b900       ?IsSoundPlayingBuffer@CSound@@QAEHK@Z 0041c900 f   EngineLib:dsutil.obj
 0001:0001b950       ?ReadMMIO@CWaveFile@@IAEJXZ 0041c950 f   EngineLib:dsutil.obj
 0001:0001bad0       ?ResetFile@CWaveFile@@QAEJXZ 0041cad0 f   EngineLib:dsutil.obj
 0001:0001bb80       ?Read@CWaveFile@@QAEJPAEKPAK@Z 0041cb80 f   EngineLib:dsutil.obj
 0001:0001bce0       ?Close@CWaveFile@@QAEJXZ   0041cce0 f   EngineLib:dsutil.obj
 0001:0001be00       ?WriteMMIO@CWaveFile@@IAEJPAUtWAVEFORMATEX@@@Z 0041ce00 f   EngineLib:dsutil.obj
 0001:0001bf30       ?SetPrimaryBufferFormat@CSoundManager@@QAEJKKK@Z 0041cf30 f   EngineLib:dsutil.obj
 0001:0001c010       ?FillBufferWithSound@CSound@@QAEJPAUIDirectSoundBuffer@@H@Z 0041d010 f   EngineLib:dsutil.obj
 0001:0001c1c0       ?PlayBuffer@CSound@@QAEJAAKKK@Z 0041d1c0 f   EngineLib:dsutil.obj
 0001:0001c250       ?Open@CWaveFile@@QAEJPADPAUtWAVEFORMATEX@@K@Z 0041d250 f   EngineLib:dsutil.obj
 0001:0001c440       ?Initialize@CSoundManager@@QAEJPAUHWND__@@KKKK@Z 0041d440 f   EngineLib:dsutil.obj
 0001:0001c4e0       ??_GCWaveFile@@QAEPAXI@Z   0041d4e0 f i EngineLib:dsutil.obj
 0001:0001c520       ??0CSound@@QAE@PAPAUIDirectSoundBuffer@@KKPAVCWaveFile@@@Z 0041d520 f   EngineLib:dsutil.obj
 0001:0001c5b0       ??1CSound@@UAE@XZ          0041d5b0 f   EngineLib:dsutil.obj
 0001:0001c660       ?Create@CSoundManager@@QAEJPAPAVCSound@@PADKU_GUID@@K@Z 0041d660 f   EngineLib:dsutil.obj
 0001:0001c880       ??_GCSound@@UAEPAXI@Z      0041d880 f i EngineLib:dsutil.obj
 0001:0001c880       ??_ECSound@@UAEPAXI@Z      0041d880 f i EngineLib:dsutil.obj
 0001:0001c8a0       ?Render_Prev@DxWeatherMan@@UAEJPAUIDirect3DDevice9@@@Z 0041d8a0 f i EngineLib:DxWeatherMan.obj
 0001:0001c8a0       ?InitDeviceObjects@DxObject@@UAEJPAUIDirect3DDevice9@@@Z 0041d8a0 f i EngineLib:DxViewPort.obj
 0001:0001c8a0       ?RestoreDeviceObjects@DxObject@@UAEJPAUIDirect3DDevice9@@@Z 0041d8a0 f i EngineLib:DxViewPort.obj
 0001:0001c8a0       ?InvalidateDeviceObjects@DxEffectRain@@QAEJPAUIDirect3DDevice9@@@Z 0041d8a0 f i EngineLib:DxWeatherManEx.obj
 0001:0001c8a0       ?Render@DxObject@@UAEJPAUIDirect3DDevice9@@@Z 0041d8a0 f i EngineLib:DxViewPort.obj
 0001:0001c8a0       ?RestoreDeviceObjects@DxEffectRain@@QAEJPAUIDirect3DDevice9@@@Z 0041d8a0 f i EngineLib:DxWeatherManEx.obj
 0001:0001c8b0       ?Create@DxObject@@UAEJPAUIDirect3DDevice9@@@Z 0041d8b0 f i EngineLib:DxViewPort.obj
 0001:0001c900       ?CleanUp@DxObject@@UAEJXZ  0041d900 f i EngineLib:DxViewPort.obj
 0001:0001c920       ?CollisionMap@DxViewPort@@QAE_NABUD3DXVECTOR3@@0AAU2@@Z 0041d920 f   EngineLib:DxViewPort.obj
 0001:0001c9c0       ?Calculate@?$DxDamper@M@@QAEMMM@Z 0041d9c0 f i EngineLib:DxViewPort.obj
 0001:0001ca00       ??0DxViewPort@@IAE@XZ      0041da00 f   EngineLib:DxViewPort.obj
 0001:0001cc70       ?InitDeviceObjects@DxViewPort@@UAEJPAUIDirect3DDevice9@@PAUHWND__@@@Z 0041dc70 f i EngineLib:DxViewPort.obj
 0001:0001cc90       ??1DxViewPort@@UAE@XZ      0041dc90 f   EngineLib:DxViewPort.obj
 0001:0001cca0       ?SetViewTrans@DxViewPort@@QAEJAAUD3DXVECTOR3@@00@Z 0041dca0 f   EngineLib:DxViewPort.obj
 0001:0001cd60       ?CameraMove@DxViewPort@@QAEXAAUD3DXVECTOR3@@@Z 0041dd60 f   EngineLib:DxViewPort.obj
 0001:0001cef0       ?CameraRotation@DxViewPort@@QAEXAAUD3DXVECTOR3@@H@Z 0041def0 f   EngineLib:DxViewPort.obj
 0001:0001d2a0       ?ComputeBoundBox@DxViewPort@@QAEXPAUD3DXVECTOR3@@@Z 0041e2a0 f   EngineLib:DxViewPort.obj
 0001:0001d4e0       ?ComputeUpVecter@DxViewPort@@QAE?AUD3DXVECTOR3@@ABU2@0@Z 0041e4e0 f   EngineLib:DxViewPort.obj
 0001:0001d640       ?ComputeClipPoint@DxViewPort@@QAEXXZ 0041e640 f   EngineLib:DxViewPort.obj
 0001:0001d8f0       ?ComputeClipVolume@DxViewPort@@QAEXAAUCLIPVOLUME@@@Z 0041e8f0 f   EngineLib:DxViewPort.obj
 0001:0001e050       ?GetMouseTargetPosWnd@DxViewPort@@QAEHAAUD3DXVECTOR3@@@Z 0041f050 f   EngineLib:DxViewPort.obj
 0001:0001e2e0       ?Calculate@?$DxDamper@UD3DXVECTOR3@@@@QAE?AUD3DXVECTOR3@@U2@M@Z 0041f2e0 f i EngineLib:DxViewPort.obj
 0001:0001e3a0       ??_EDxViewPort@@UAEPAXI@Z  0041f3a0 f i EngineLib:DxViewPort.obj
 0001:0001e3a0       ??_GDxViewPort@@UAEPAXI@Z  0041f3a0 f i EngineLib:DxViewPort.obj
 0001:0001e3c0       ?CameraZoom@DxViewPort@@QAEXM@Z 0041f3c0 f   EngineLib:DxViewPort.obj
 0001:0001e820       ?FrameMove@DxViewPort@@UAEJMM@Z 0041f820 f   EngineLib:DxViewPort.obj
 0001:0001ed80       ?GetInstance@DxViewPort@@SAAAV1@XZ 0041fd80 f   EngineLib:DxViewPort.obj
 0001:0001edc0       ?IsLeadChar@CHARSET@@YA_ND@Z 0041fdc0 f   EngineLib:charset.obj
 0001:0001ede0       ?D3DUtil_InitMaterial@@YAXAAU_D3DMATERIAL9@@MMMM@Z 0041fde0 f   EngineLib:DXUTmisc.obj
 0001:0001ee30       ?D3DUtil_InitLight@@YAXAAU_D3DLIGHT9@@W4_D3DLIGHTTYPE@@MMM@Z 0041fe30 f   EngineLib:DXUTmisc.obj
 0001:0001eea0       ?OnLostDevice@CDXUTResourceCache@@QAEJXZ 0041fea0 f   EngineLib:DXUTmisc.obj
 0001:0001ef80       ?OnDestroyDevice@CDXUTResourceCache@@QAEJXZ 0041ff80 f   EngineLib:DXUTmisc.obj
 0001:0001f0e0       ??1?$CGrowableArray@UDXUTCache_Effect@@@@QAE@XZ 004200e0 f i EngineLib:DXUTmisc.obj
 0001:0001f0e0       ??1?$CGrowableArray@UDXUTCache_Font@@@@QAE@XZ 004200e0 f i EngineLib:DXUTmisc.obj
 0001:0001f0e0       ??1?$CGrowableArray@UDXUTCache_Texture@@@@QAE@XZ 004200e0 f i EngineLib:DXUTmisc.obj
 0001:0001f110       ??1CDXUTResourceCache@@QAE@XZ 00420110 f   EngineLib:DXUTmisc.obj
 0001:0001f1e0       ?DXUTGetGlobalResourceCache@@YAAAVCDXUTResourceCache@@XZ 004201e0 f   EngineLib:DXUTmisc.obj
 0001:0001f240       ?HoldCursor@DxInputDevice@@QAEXXZ 00420240 f   EngineLib:DxInputDevice.obj
 0001:0001f270       ?_Max@?$_Tree@V?$_Tset_traits@EU?$less@E@std@@V?$allocator@E@2@$0A@@std@@@std@@KAPAU_Node@?$_Tree_nod@V?$_Tset_traits@EU?$less@E@std@@V?$allocator@E@2@$0A@@std@@@2@PAU342@@Z 00420270 f i EngineLib:DxInputDevice.obj
 0001:0001f290       ?_Min@?$_Tree@V?$_Tset_traits@EU?$less@E@std@@V?$allocator@E@2@$0A@@std@@@std@@KAPAU_Node@?$_Tree_nod@V?$_Tset_traits@EU?$less@E@std@@V?$allocator@E@2@$0A@@std@@@2@PAU342@@Z 00420290 f i EngineLib:DxInputDevice.obj
 0001:0001f2b0       ?_Rrotate@?$_Tree@V?$_Tset_traits@EU?$less@E@std@@V?$allocator@E@2@$0A@@std@@@std@@IAEXPAU_Node@?$_Tree_nod@V?$_Tset_traits@EU?$less@E@std@@V?$allocator@E@2@$0A@@std@@@2@@Z 004202b0 f i EngineLib:DxInputDevice.obj
 0001:0001f310       ?_Inc@const_iterator@?$_Tree@V?$_Tset_traits@EU?$less@E@std@@V?$allocator@E@2@$0A@@std@@@std@@QAEXXZ 00420310 f i EngineLib:DxInputDevice.obj
 0001:0001f370       ?_Lrotate@?$_Tree@V?$_Tset_traits@EU?$less@E@std@@V?$allocator@E@2@$0A@@std@@@std@@IAEXPAU_Node@?$_Tree_nod@V?$_Tset_traits@EU?$less@E@std@@V?$allocator@E@2@$0A@@std@@@2@@Z 00420370 f i EngineLib:DxInputDevice.obj
 0001:0001f3d0       ?_Erase@?$_Tree@V?$_Tset_traits@EU?$less@E@std@@V?$allocator@E@2@$0A@@std@@@std@@IAEXPAU_Node@?$_Tree_nod@V?$_Tset_traits@EU?$less@E@std@@V?$allocator@E@2@$0A@@std@@@2@@Z 004203d0 f i EngineLib:DxInputDevice.obj
 0001:0001f410       ?_Buynode@?$_Tree@V?$_Tset_traits@EU?$less@E@std@@V?$allocator@E@2@$0A@@std@@@std@@IAEPAU_Node@?$_Tree_nod@V?$_Tset_traits@EU?$less@E@std@@V?$allocator@E@2@$0A@@std@@@2@XZ 00420410 f i EngineLib:DxInputDevice.obj
 0001:0001f450       ?erase@?$_Tree@V?$_Tset_traits@EU?$less@E@std@@V?$allocator@E@2@$0A@@std@@@std@@QAE?AViterator@12@V312@@Z 00420450 f i EngineLib:DxInputDevice.obj
 0001:0001f720       ?erase@?$_Tree@V?$_Tset_traits@EU?$less@E@std@@V?$allocator@E@2@$0A@@std@@@std@@QAE?AViterator@12@V312@0@Z 00420720 f i EngineLib:DxInputDevice.obj
 0001:0001f7e0       ??1?$set@EU?$less@E@std@@V?$allocator@E@2@@std@@QAE@XZ 004207e0 f i EngineLib:DxInputDevice.obj
 0001:0001f810       ??1DxInputDevice@@UAE@XZ   00420810 f   EngineLib:DxInputDevice.obj
 0001:0001f8c0       ??0DxInputDevice@@IAE@XZ   004208c0 f   EngineLib:DxInputDevice.obj
 0001:0001f9c0       ??_EDxInputDevice@@UAEPAXI@Z 004209c0 f i EngineLib:DxInputDevice.obj
 0001:0001f9c0       ??_GDxInputDevice@@UAEPAXI@Z 004209c0 f i EngineLib:DxInputDevice.obj
 0001:0001f9e0       ?GetInstance@DxInputDevice@@SAAAV1@XZ 004209e0 f   EngineLib:DxInputDevice.obj
 0001:0001fa40       ?DXUtil_Timer@@YGMW4TIMER_COMMAND@@@Z 00420a40 f   EngineLib:dxutil.obj
 0001:0001fdf0       ?gosthash_compress@@YAXPAK0@Z 00420df0 f   EngineLib:gosthash.obj
 0001:00020e90       ?gosthash_reset@HASH@@YAXPAUGostHashCtx@1@@Z 00421e90 f   EngineLib:gosthash.obj
 0001:00020f10       ?gosthash_bytes@@YAXPAUGostHashCtx@HASH@@PBEI@Z 00421f10 f   EngineLib:gosthash.obj
 0001:00021080       ?gosthash_update@HASH@@YAXPAUGostHashCtx@1@PBEI@Z 00422080 f   EngineLib:gosthash.obj
 0001:00021120       ?gosthash_final@HASH@@YAXPAUGostHashCtx@1@PAE@Z 00422120 f   EngineLib:gosthash.obj
 0001:00021260       ?Init@CMD2@HASH@@QAEXXZ    00422260 f   EngineLib:md2.obj
 0001:00021290       ?Update@CMD2@HASH@@QAEXPBEI@Z 00422290 f   EngineLib:md2.obj
 0001:00021440       ?TruncatedFinal@CMD2@HASH@@QAEXPAEI@Z 00422440 f   EngineLib:md2.obj
 0001:000214f0       ??0CMD2@HASH@@QAE@XZ       004224f0 f   EngineLib:md2.obj
 0001:00021530       ??1CMD2@HASH@@UAE@XZ       00422530 f   EngineLib:md2.obj
 0001:00021570       ??_ECMD2@HASH@@UAEPAXI@Z   00422570 f i EngineLib:md2.obj
 0001:00021570       ??_GCMD2@HASH@@UAEPAXI@Z   00422570 f i EngineLib:md2.obj
 0001:000215c0       ?MD4Init@HASH@@YAXPAUMD4_CTX@1@@Z 004225c0 f   EngineLib:md4.obj
 0001:00021c40       ?MD4Update@HASH@@YAXPAUMD4_CTX@1@PAEI@Z 00422c40 f   EngineLib:md4.obj
 0001:00021d00       ?MD4Final@HASH@@YAXPAEPAUMD4_CTX@1@@Z 00422d00 f   EngineLib:md4.obj
 0001:000226e0       ?MD5Init@HASH@@YAXPAUMD5_CTX@1@K@Z 004236e0 f   EngineLib:md5.obj
 0001:00022730       ?MD5Update@HASH@@YAXPAUMD5_CTX@1@PAEI@Z 00423730 f   EngineLib:md5.obj
 0001:00022830       ?MD5Final@HASH@@YAXPAUMD5_CTX@1@@Z 00423830 f   EngineLib:md5.obj
 0001:00022930       ?md5file@HASH@@YAHPADKPAUMD5_CTX@1@@Z 00423930 f   EngineLib:md5.obj
 0001:00022a00       _sha1_compile              00423a00 f   EngineLib:sha1.obj
 0001:00023040       _sha1_begin                00424040 f   EngineLib:sha1.obj
 0001:00023080       _sha1_hash                 00424080 f   EngineLib:sha1.obj
 0001:00023110       _sha1_end                  00424110 f   EngineLib:sha1.obj
 0001:00023230       _sha256_compile            00424230 f   EngineLib:sha2.obj
 0001:00024310       _sha256_hash               00425310 f   EngineLib:sha2.obj
 0001:000243e0       _sha256_end                004253e0 f   EngineLib:sha2.obj
 0001:000244e0       _sha512_compile            004254e0 f   EngineLib:sha2.obj
 0001:00026ee0       _sha512_hash               00427ee0 f   EngineLib:sha2.obj
 0001:000271e0       _sha2_begin                004281e0 f   EngineLib:sha2.obj
 0001:00027290       _sha2_hash                 00428290 f   EngineLib:sha2.obj
 0001:000272c0       _sha2_end                  004282c0 f   EngineLib:sha2.obj
 0001:00027310       ??0CCrc32Static@HASH@@QAE@XZ 00428310 f   EngineLib:CRC32.obj
 0001:00027320       ??1CCrc32Static@HASH@@UAE@XZ 00428320 f   EngineLib:CRC32.obj
 0001:00027330       ?StringCrc32@CCrc32Static@HASH@@SAKPBDAAK@Z 00428330 f   EngineLib:CRC32.obj
 0001:00027380       ?FileCrc32Streams@CCrc32Static@HASH@@SAKPBDAAK@Z 00428380 f   EngineLib:CRC32.obj
 0001:00027390       ??_GCCrc32Static@HASH@@UAEPAXI@Z 00428390 f i EngineLib:CRC32.obj
 0001:00027390       ??_ECCrc32Static@HASH@@UAEPAXI@Z 00428390 f i EngineLib:CRC32.obj
 0001:000273b0       ?IsCollision@NavigationMesh@@IAEXPAUDxAABBNode@@AAUD3DXVECTOR3@@11AAK@Z 004283b0 f   EngineLib:navagationtree.obj
 0001:000275a0       ?IsCollision@NavigationMesh@@QAEXAAUD3DXVECTOR3@@00AAKAAH@Z 004285a0 f   EngineLib:navagationtree.obj
 0001:00027650       ?IsLineTriangleCollision@COLLISION@@YAHPAUD3DXVECTOR3@@000000H@Z 00428650 f   EngineLib:Collision.obj
 0001:00028f60       ?CalculatePlane2Line@COLLISION@@YA_NABUD3DXPLANE@@ABUD3DXVECTOR3@@1AAU3@@Z 00429f60 f   EngineLib:Collision.obj
 0001:00029050       ?IsCollision@DxAABBNode@@QAEHAAUD3DXVECTOR3@@0@Z 0042a050 f   EngineLib:Collision.obj
 0001:000293e0       ?CameraLimitCheck@DxViewPort@@QAE_NXZ 0042a3e0 f   EngineLib:DxViewPortSetCamera.obj
 0001:000295b0       ?IsOffLight@GLPeriod@@QAEHXZ 0042a5b0 f i EngineLib:DxEffectGlow.obj
 0001:00029620       ?RENDERSPHERE@EDITMESHS@@YAXPAUIDirect3DDevice9@@U_D3DVECTOR@@MPAUD3DXMATRIX@@K@Z 0042a620 f   EngineLib:EditMeshs.obj
 0001:000297c0       ??0TextureContainer@TextureManager@@QAE@XZ 0042a7c0 f   EngineLib:TextureManager.obj
 0001:00029800       ?IsEncrypt@TextureContainer@TextureManager@@QAE_NPBD@Z 0042a800 f   EngineLib:TextureManager.obj
 0001:00029890       ?LoadImageData@TextureContainer@TextureManager@@IAEJPAUIDirect3DDevice9@@HH@Z 0042a890 f   EngineLib:TextureManager.obj
 0001:0002a020       ??1?$pair@$$CBV?$basic_string@DU?$char_traits@D@std@@V?$allocator@D@2@@std@@PAUSSoundEx@@@std@@QAE@XZ 0042b020 f i EngineSoundLib:DxSoundLib.obj
 0001:0002a020       ??1?$pair@$$CBV?$basic_string@DU?$char_traits@D@std@@V?$allocator@D@2@@std@@PAV?$multimap@V?$basic_string@DU?$char_traits@D@std@@V?$allocator@D@2@@std@@PAV?$vector@V?$basic_string@DU?$char_traits@D@std@@V?$allocator@D@2@@std@@V?$allocator@V?$basic_string@DU?$char_traits@D@std@@V?$allocator@D@2@@std@@@2@@2@U?$less@V?$basic_string@DU?$char_traits@D@std@@V?$allocator@D@2@@std@@@2@V?$allocator@U?$pair@$$CBV?$basic_string@DU?$char_traits@D@std@@V?$allocator@D@2@@std@@PAV?$vector@V?$basic_string@DU?$char_traits@D@std@@V?$allocator@D@2@@std@@V?$allocator@V?$basic_string@DU?$char_traits@D@std@@V?$allocator@D@2@@std@@@2@@2@@std@@@2@@2@@std@@QAE@XZ 0042b020 f i EngineLib:IniLoader.obj
 0001:0002a020       ??1?$pair@V?$basic_string@DU?$char_traits@D@std@@V?$allocator@D@2@@std@@PAUSSoundEx@@@std@@QAE@XZ 0042b020 f i EngineSoundLib:DxSoundLib.obj
 0001:0002a020       ??1?$pair@$$CBV?$basic_string@DU?$char_traits@D@std@@V?$allocator@D@2@@std@@PAUSFILENODE@@@std@@QAE@XZ 0042b020 f i AutoPatchThread.obj
 0001:0002a020       ??1?$pair@V?$basic_string@DU?$char_traits@D@std@@V?$allocator@D@2@@std@@PAV?$multimap@V?$basic_string@DU?$char_traits@D@std@@V?$allocator@D@2@@std@@PAV?$vector@V?$basic_string@DU?$char_traits@D@std@@V?$allocator@D@2@@std@@V?$allocator@V?$basic_string@DU?$char_traits@D@std@@V?$allocator@D@2@@std@@@2@@2@U?$less@V?$basic_string@DU?$char_traits@D@std@@V?$allocator@D@2@@std@@@2@V?$allocator@U?$pair@$$CBV?$basic_string@DU?$char_traits@D@std@@V?$allocator@D@2@@std@@PAV?$vector@V?$basic_string@DU?$char_traits@D@std@@V?$allocator@D@2@@std@@V?$allocator@V?$basic_string@DU?$char_traits@D@std@@V?$allocator@D@2@@std@@@2@@2@@std@@@2@@2@@std@@QAE@XZ 0042b020 f i EngineLib:IniLoader.obj
 0001:0002a020       ??1?$pair@V?$basic_string@DU?$char_traits@D@std@@V?$allocator@D@2@@std@@PAV?$vector@V?$basic_string@DU?$char_traits@D@std@@V?$allocator@D@2@@std@@V?$allocator@V?$basic_string@DU?$char_traits@D@std@@V?$allocator@D@2@@std@@@2@@2@@std@@QAE@XZ 0042b020 f i EngineLib:IniLoader.obj
 0001:0002a020       ??1?$pair@USWavFileKey@@PAUSWavFileData@@@std@@QAE@XZ 0042b020 f i EngineSoundLib:DxSoundMan.obj
 0001:0002a020       ??1?$pair@$$CBV?$basic_string@DU?$char_traits@D@std@@V?$allocator@D@2@@std@@PAVTextureContainer@TextureManager@@@std@@QAE@XZ 0042b020 f i EngineLib:TextureManager.obj
 0001:0002a020       ??1?$pair@$$CBV?$basic_string@DU?$char_traits@D@std@@V?$allocator@D@2@@std@@K@std@@QAE@XZ 0042b020 f i EngineLib:TextureManager.obj
 0001:0002a020       ??1SWavFileKey@@QAE@XZ     0042b020 f i EngineSoundLib:DxSoundMan.obj
 0001:0002a020       ??1?$pair@$$CBV?$basic_string@DU?$char_traits@D@std@@V?$allocator@D@2@@std@@PAVCStringArray@@@std@@QAE@XZ 0042b020 f i LauncherText.obj
 0001:0002a020       ??1?$pair@$$CBV?$basic_string@DU?$char_traits@D@std@@V?$allocator@D@2@@std@@PAV?$vector@V?$basic_string@DU?$char_traits@D@std@@V?$allocator@D@2@@std@@V?$allocator@V?$basic_string@DU?$char_traits@D@std@@V?$allocator@D@2@@std@@@2@@2@@std@@QAE@XZ 0042b020 f i EngineLib:IniLoader.obj
 0001:0002a020       ??1?$pair@V?$basic_string@DU?$char_traits@D@std@@V?$allocator@D@2@@std@@PAUSFILENODE@@@std@@QAE@XZ 0042b020 f i AutoPatchThread.obj
 0001:0002a020       ??1?$pair@$$CBUSWavFileKey@@PAUSWavFileData@@@std@@QAE@XZ 0042b020 f i EngineSoundLib:DxSoundMan.obj
 0001:0002a030       ??1_Node@?$_Tree_nod@V?$_Tmap_traits@V?$basic_string@DU?$char_traits@D@std@@V?$allocator@D@2@@std@@PAUSTATICDATA@NSSTATICMESH@@U?$less@V?$basic_string@DU?$char_traits@D@std@@V?$allocator@D@2@@std@@@2@V?$allocator@U?$pair@$$CBV?$basic_string@DU?$char_traits@D@std@@V?$allocator@D@2@@std@@PAUSTATICDATA@NSSTATICMESH@@@std@@@2@$0A@@std@@@std@@QAE@XZ 0042b030 f i EngineLib:DxStaticMesh.obj
 0001:0002a030       ??1_Node@?$_Tree_nod@V?$_Tmap_traits@V?$basic_string@DU?$char_traits@D@std@@V?$allocator@D@2@@std@@PAV?$vector@V?$basic_string@DU?$char_traits@D@std@@V?$allocator@D@2@@std@@V?$allocator@V?$basic_string@DU?$char_traits@D@std@@V?$allocator@D@2@@std@@@2@@2@U?$less@V?$basic_string@DU?$char_traits@D@std@@V?$allocator@D@2@@std@@@2@V?$allocator@U?$pair@$$CBV?$basic_string@DU?$char_traits@D@std@@V?$allocator@D@2@@std@@PAV?$vector@V?$basic_string@DU?$char_traits@D@std@@V?$allocator@D@2@@std@@V?$allocator@V?$basic_string@DU?$char_traits@D@std@@V?$allocator@D@2@@std@@@2@@2@@std@@@2@$00@std@@@std@@QAE@XZ 0042b030 f i EngineLib:IniLoader.obj
 0001:0002a030       ??1_Node@?$_Tree_nod@V?$_Tmap_traits@V?$basic_string@DU?$char_traits@D@std@@V?$allocator@D@2@@std@@PAUSFILENODE@@U?$less@V?$basic_string@DU?$char_traits@D@std@@V?$allocator@D@2@@std@@@2@V?$allocator@U?$pair@$$CBV?$basic_string@DU?$char_traits@D@std@@V?$allocator@D@2@@std@@PAUSFILENODE@@@std@@@2@$0A@@std@@@std@@QAE@XZ 0042b030 f i AutoPatchThread.obj
 0001:0002a030       ??1_Node@?$_Tree_nod@V?$_Tmap_traits@V?$basic_string@DU?$char_traits@D@std@@V?$allocator@D@2@@std@@PAVCStringArray@@U?$less@V?$basic_string@DU?$char_traits@D@std@@V?$allocator@D@2@@std@@@2@V?$allocator@U?$pair@$$CBV?$basic_string@DU?$char_traits@D@std@@V?$allocator@D@2@@std@@PAVCStringArray@@@std@@@2@$0A@@std@@@std@@QAE@XZ 0042b030 f i LauncherText.obj
 0001:0002a030       ??1_Node@?$_Tree_nod@V?$_Tmap_traits@V?$basic_string@DU?$char_traits@D@std@@V?$allocator@D@2@@std@@KU?$less@V?$basic_string@DU?$char_traits@D@std@@V?$allocator@D@2@@std@@@2@V?$allocator@U?$pair@$$CBV?$basic_string@DU?$char_traits@D@std@@V?$allocator@D@2@@std@@K@std@@@2@$0A@@std@@@std@@QAE@XZ 0042b030 f i EngineLib:TextureManager.obj
 0001:0002a030       ??1_Node@?$_Tree_nod@V?$_Tmap_traits@V?$basic_string@DU?$char_traits@D@std@@V?$allocator@D@2@@std@@PAVTextureContainer@TextureManager@@U?$less@V?$basic_string@DU?$char_traits@D@std@@V?$allocator@D@2@@std@@@2@V?$allocator@U?$pair@$$CBV?$basic_string@DU?$char_traits@D@std@@V?$allocator@D@2@@std@@PAVTextureContainer@TextureManager@@@std@@@2@$0A@@std@@@std@@QAE@XZ 0042b030 f i EngineLib:TextureManager.obj
 0001:0002a030       ??1_Node@?$_Tree_nod@V?$_Tmap_traits@V?$basic_string@DU?$char_traits@D@std@@V?$allocator@D@2@@std@@Uunz_file_pos_s@@U?$less@V?$basic_string@DU?$char_traits@D@std@@V?$allocator@D@2@@std@@@2@V?$allocator@U?$pair@$$CBV?$basic_string@DU?$char_traits@D@std@@V?$allocator@D@2@@std@@Uunz_file_pos_s@@@std@@@2@$0A@@std@@@std@@QAE@XZ 0042b030 f i EngineLib:Unzipper.obj
 0001:0002a030       ??1_Node@?$_Tree_nod@V?$_Tmap_traits@V?$basic_string@DU?$char_traits@D@std@@V?$allocator@D@2@@std@@PAV?$multimap@V?$basic_string@DU?$char_traits@D@std@@V?$allocator@D@2@@std@@PAV?$vector@V?$basic_string@DU?$char_traits@D@std@@V?$allocator@D@2@@std@@V?$allocator@V?$basic_string@DU?$char_traits@D@std@@V?$allocator@D@2@@std@@@2@@2@U?$less@V?$basic_string@DU?$char_traits@D@std@@V?$allocator@D@2@@std@@@2@V?$allocator@U?$pair@$$CBV?$basic_string@DU?$char_traits@D@std@@V?$allocator@D@2@@std@@PAV?$vector@V?$basic_string@DU?$char_traits@D@std@@V?$allocator@D@2@@std@@V?$allocator@V?$basic_string@DU?$char_traits@D@std@@V?$allocator@D@2@@std@@@2@@2@@std@@@2@@2@U?$less@V?$basic_string@DU?$char_traits@D@std@@V?$allocator@D@2@@std@@@2@V?$allocator@U?$pair@$$CBV?$basic_string@DU?$char_traits@D@std@@V?$allocator@D@2@@std@@PAV?$multimap@V?$basic_string@DU?$char_traits@D@std@@V?$allocator@D@2@@std@@PAV?$vector@V?$basic_string@DU?$char_traits@D@std@@V?$allocator@D@2@@std@@V?$allocator@V?$basic_string@DU?$char_traits@D@std@@V?$allocator@D@2@@std@@@2@@2@U?$less@V?$basic_string@DU?$char_traits@D@std@@V?$allocator@D@2@@std@@@2@V?$allocator@U?$pair@$$CBV?$basic_string@DU?$char_traits@D@std@@V?$allocator@D@2@@std@@PAV?$vector@V?$basic_string@DU?$char_traits@D@std@@V?$allocator@D@2@@std@@V?$allocator@V?$basic_string@DU?$char_traits@D@std@@V?$allocator@D@2@@std@@@2@@2@@std@@@2@@2@@std@@@2@$0A@@std@@@std@@QAE@XZ 0042b030 f i EngineLib:IniLoader.obj
 0001:0002a030       ??1_Node@?$_Tree_nod@V?$_Tmap_traits@USWavFileKey@@PAUSWavFileData@@U?$less@USWavFileKey@@@std@@V?$allocator@U?$pair@$$CBUSWavFileKey@@PAUSWavFileData@@@std@@@4@$0A@@std@@@std@@QAE@XZ 0042b030 f i EngineSoundLib:DxSoundMan.obj
 0001:0002a040       ??1TextureContainer@TextureManager@@QAE@XZ 0042b040 f   EngineLib:TextureManager.obj
 0001:0002a140       ?LoadTexture@TextureContainer@TextureManager@@QAEJPBDPAUIDirect3DDevice9@@KKH@Z 0042b140 f   EngineLib:TextureManager.obj
 0001:0002a180       ?_Lbound@?$_Tree@V?$_Tmap_traits@V?$basic_string@DU?$char_traits@D@std@@V?$allocator@D@2@@std@@KU?$less@V?$basic_string@DU?$char_traits@D@std@@V?$allocator@D@2@@std@@@2@V?$allocator@U?$pair@$$CBV?$basic_string@DU?$char_traits@D@std@@V?$allocator@D@2@@std@@K@std@@@2@$0A@@std@@@std@@IBEPAU_Node@?$_Tree_nod@V?$_Tmap_traits@V?$basic_string@DU?$char_traits@D@std@@V?$allocator@D@2@@std@@KU?$less@V?$basic_string@DU?$char_traits@D@std@@V?$allocator@D@2@@std@@@2@V?$allocator@U?$pair@$$CBV?$basic_string@DU?$char_traits@D@std@@V?$allocator@D@2@@std@@K@std@@@2@$0A@@std@@@2@ABV?$basic_string@DU?$char_traits@D@std@@V?$allocator@D@2@@2@@Z 0042b180 f i EngineLib:TextureManager.obj
 0001:0002a180       ?_Lbound@?$_Tree@V?$_Tmap_traits@V?$basic_string@DU?$char_traits@D@std@@V?$allocator@D@2@@std@@PAUSFILENODE@@U?$less@V?$basic_string@DU?$char_traits@D@std@@V?$allocator@D@2@@std@@@2@V?$allocator@U?$pair@$$CBV?$basic_string@DU?$char_traits@D@std@@V?$allocator@D@2@@std@@PAUSFILENODE@@@std@@@2@$0A@@std@@@std@@IBEPAU_Node@?$_Tree_nod@V?$_Tmap_traits@V?$basic_string@DU?$char_traits@D@std@@V?$allocator@D@2@@std@@PAUSFILENODE@@U?$less@V?$basic_string@DU?$char_traits@D@std@@V?$allocator@D@2@@std@@@2@V?$allocator@U?$pair@$$CBV?$basic_string@DU?$char_traits@D@std@@V?$allocator@D@2@@std@@PAUSFILENODE@@@std@@@2@$0A@@std@@@2@ABV?$basic_string@DU?$char_traits@D@std@@V?$allocator@D@2@@2@@Z 0042b180 f i AutoPatchThread.obj
 0001:0002a180       ?_Lbound@?$_Tree@V?$_Tmap_traits@V?$basic_string@DU?$char_traits@D@std@@V?$allocator@D@2@@std@@PAVTextureContainer@TextureManager@@U?$less@V?$basic_string@DU?$char_traits@D@std@@V?$allocator@D@2@@std@@@2@V?$allocator@U?$pair@$$CBV?$basic_string@DU?$char_traits@D@std@@V?$allocator@D@2@@std@@PAVTextureContainer@TextureManager@@@std@@@2@$0A@@std@@@std@@IBEPAU_Node@?$_Tree_nod@V?$_Tmap_traits@V?$basic_string@DU?$char_traits@D@std@@V?$allocator@D@2@@std@@PAVTextureContainer@TextureManager@@U?$less@V?$basic_string@DU?$char_traits@D@std@@V?$allocator@D@2@@std@@@2@V?$allocator@U?$pair@$$CBV?$basic_string@DU?$char_traits@D@std@@V?$allocator@D@2@@std@@PAVTextureContainer@TextureManager@@@std@@@2@$0A@@std@@@2@ABV?$basic_string@DU?$char_traits@D@std@@V?$allocator@D@2@@2@@Z 0042b180 f i EngineLib:TextureManager.obj
 0001:0002a180       ?_Lbound@?$_Tree@V?$_Tmap_traits@V?$basic_string@DU?$char_traits@D@std@@V?$allocator@D@2@@std@@PAV?$vector@V?$basic_string@DU?$char_traits@D@std@@V?$allocator@D@2@@std@@V?$allocator@V?$basic_string@DU?$char_traits@D@std@@V?$allocator@D@2@@std@@@2@@2@U?$less@V?$basic_string@DU?$char_traits@D@std@@V?$allocator@D@2@@std@@@2@V?$allocator@U?$pair@$$CBV?$basic_string@DU?$char_traits@D@std@@V?$allocator@D@2@@std@@PAV?$vector@V?$basic_string@DU?$char_traits@D@std@@V?$allocator@D@2@@std@@V?$allocator@V?$basic_string@DU?$char_traits@D@std@@V?$allocator@D@2@@std@@@2@@2@@std@@@2@$00@std@@@std@@IBEPAU_Node@?$_Tree_nod@V?$_Tmap_traits@V?$basic_string@DU?$char_traits@D@std@@V?$allocator@D@2@@std@@PAV?$vector@V?$basic_string@DU?$char_traits@D@std@@V?$allocator@D@2@@std@@V?$allocator@V?$basic_string@DU?$char_traits@D@std@@V?$allocator@D@2@@std@@@2@@2@U?$less@V?$basic_string@DU?$char_traits@D@std@@V?$allocator@D@2@@std@@@2@V?$allocator@U?$pair@$$CBV?$basic_string@DU?$char_traits@D@std@@V?$allocator@D@2@@std@@PAV?$vector@V?$basic_string@DU?$char_traits@D@std@@V?$allocator@D@2@@std@@V?$allocator@V?$basic_string@DU?$char_traits@D@std@@V?$allocator@D@2@@std@@@2@@2@@std@@@2@$00@std@@@2@ABV?$basic_string@DU?$char_traits@D@std@@V?$allocator@D@2@@2@@Z 0042b180 f i EngineLib:IniLoader.obj
 0001:0002a180       ?_Lbound@?$_Tree@V?$_Tmap_traits@V?$basic_string@DU?$char_traits@D@std@@V?$allocator@D@2@@std@@PAV?$multimap@V?$basic_string@DU?$char_traits@D@std@@V?$allocator@D@2@@std@@PAV?$vector@V?$basic_string@DU?$char_traits@D@std@@V?$allocator@D@2@@std@@V?$allocator@V?$basic_string@DU?$char_traits@D@std@@V?$allocator@D@2@@std@@@2@@2@U?$less@V?$basic_string@DU?$char_traits@D@std@@V?$allocator@D@2@@std@@@2@V?$allocator@U?$pair@$$CBV?$basic_string@DU?$char_traits@D@std@@V?$allocator@D@2@@std@@PAV?$vector@V?$basic_string@DU?$char_traits@D@std@@V?$allocator@D@2@@std@@V?$allocator@V?$basic_string@DU?$char_traits@D@std@@V?$allocator@D@2@@std@@@2@@2@@std@@@2@@2@U?$less@V?$basic_string@DU?$char_traits@D@std@@V?$allocator@D@2@@std@@@2@V?$allocator@U?$pair@$$CBV?$basic_string@DU?$char_traits@D@std@@V?$allocator@D@2@@std@@PAV?$multimap@V?$basic_string@DU?$char_traits@D@std@@V?$allocator@D@2@@std@@PAV?$vector@V?$basic_string@DU?$char_traits@D@std@@V?$allocator@D@2@@std@@V?$allocator@V?$basic_string@DU?$char_traits@D@std@@V?$allocator@D@2@@std@@@2@@2@U?$less@V?$basic_string@DU?$char_traits@D@std@@V?$allocator@D@2@@std@@@2@V?$allocator@U?$pair@$$CBV?$basic_string@DU?$char_traits@D@std@@V?$allocator@D@2@@std@@PAV?$vector@V?$basic_string@DU?$char_traits@D@std@@V?$allocator@D@2@@std@@V?$allocator@V?$basic_string@DU?$char_traits@D@std@@V?$allocator@D@2@@std@@@2@@2@@std@@@2@@2@@std@@@2@$0A@@std@@@std@@IBEPAU_Node@?$_Tree_nod@V?$_Tmap_traits@V?$basic_string@DU?$char_traits@D@std@@V?$allocator@D@2@@std@@PAV?$multimap@V?$basic_string@DU?$char_traits@D@std@@V?$allocator@D@2@@std@@PAV?$vector@V?$basic_string@DU?$char_traits@D@std@@V?$allocator@D@2@@std@@V?$allocator@V?$basic_string@DU?$char_traits@D@std@@V?$allocator@D@2@@std@@@2@@2@U?$less@V?$basic_string@DU?$char_traits@D@std@@V?$allocator@D@2@@std@@@2@V?$allocator@U?$pair@$$CBV?$basic_string@DU?$char_traits@D@std@@V?$allocator@D@2@@std@@PAV?$vector@V?$basic_string@DU?$char_traits@D@std@@V?$allocator@D@2@@std@@V?$allocator@V?$basic_string@DU?$char_traits@D@std@@V?$allocator@D@2@@std@@@2@@2@@std@@@2@@2@U?$less@V?$basic_string@DU?$char_traits@D@std@@V?$allocator@D@2@@std@@@2@V?$allocator@U?$pair@$$CBV?$basic_string@DU?$char_traits@D@std@@V?$allocator@D@2@@std@@PAV?$multimap@V?$basic_string@DU?$char_traits@D@std@@V?$allocator@D@2@@std@@PAV?$vector@V?$basic_string@DU?$char_traits@D@std@@V?$allocator@D@2@@std@@V?$allocator@V?$basic_string@DU?$char_traits@D@std@@V?$allocator@D@2@@std@@@2@@2@U?$less@V?$basic_string@DU?$char_traits@D@std@@V?$allocator@D@2@@std@@@2@V?$allocator@U?$pair@$$CBV?$basic_string@DU?$char_traits@D@std@@V?$allocator@D@2@@std@@PAV?$vector@V?$basic_string@DU?$char_traits@D@std@@V?$allocator@D@2@@std@@V?$allocator@V?$basic_string@DU?$char_traits@D@std@@V?$allocator@D@2@@std@@@2@@2@@std@@@2@@2@@std@@@2@$0A@@std@@@2@ABV?$basic_string@DU?$char_traits@D@std@@V?$allocator@D@2@@2@@Z 0042b180 f i EngineLib:IniLoader.obj
 0001:0002a180       ?_Lbound@?$_Tree@V?$_Tmap_traits@V?$basic_string@DU?$char_traits@D@std@@V?$allocator@D@2@@std@@PAVCStringArray@@U?$less@V?$basic_string@DU?$char_traits@D@std@@V?$allocator@D@2@@std@@@2@V?$allocator@U?$pair@$$CBV?$basic_string@DU?$char_traits@D@std@@V?$allocator@D@2@@std@@PAVCStringArray@@@std@@@2@$0A@@std@@@std@@IBEPAU_Node@?$_Tree_nod@V?$_Tmap_traits@V?$basic_string@DU?$char_traits@D@std@@V?$allocator@D@2@@std@@PAVCStringArray@@U?$less@V?$basic_string@DU?$char_traits@D@std@@V?$allocator@D@2@@std@@@2@V?$allocator@U?$pair@$$CBV?$basic_string@DU?$char_traits@D@std@@V?$allocator@D@2@@std@@PAVCStringArray@@@std@@@2@$0A@@std@@@2@ABV?$basic_string@DU?$char_traits@D@std@@V?$allocator@D@2@@2@@Z 0042b180 f i LauncherText.obj
 0001:0002a1d0       ?_Lrotate@?$_Tree@V?$_Tmap_traits@V?$basic_string@DU?$char_traits@D@std@@V?$allocator@D@2@@std@@KU?$less@V?$basic_string@DU?$char_traits@D@std@@V?$allocator@D@2@@std@@@2@V?$allocator@U?$pair@$$CBV?$basic_string@DU?$char_traits@D@std@@V?$allocator@D@2@@std@@K@std@@@2@$0A@@std@@@std@@IAEXPAU_Node@?$_Tree_nod@V?$_Tmap_traits@V?$basic_string@DU?$char_traits@D@std@@V?$allocator@D@2@@std@@KU?$less@V?$basic_string@DU?$char_traits@D@std@@V?$allocator@D@2@@std@@@2@V?$allocator@U?$pair@$$CBV?$basic_string@DU?$char_traits@D@std@@V?$allocator@D@2@@std@@K@std@@@2@$0A@@std@@@2@@Z 0042b1d0 f i EngineLib:TextureManager.obj
 0001:0002a1d0       ?_Lrotate@?$_Tree@V?$_Tmap_traits@V?$basic_string@DU?$char_traits@D@std@@V?$allocator@D@2@@std@@PAV?$vector@V?$basic_string@DU?$char_traits@D@std@@V?$allocator@D@2@@std@@V?$allocator@V?$basic_string@DU?$char_traits@D@std@@V?$allocator@D@2@@std@@@2@@2@U?$less@V?$basic_string@DU?$char_traits@D@std@@V?$allocator@D@2@@std@@@2@V?$allocator@U?$pair@$$CBV?$basic_string@DU?$char_traits@D@std@@V?$allocator@D@2@@std@@PAV?$vector@V?$basic_string@DU?$char_traits@D@std@@V?$allocator@D@2@@std@@V?$allocator@V?$basic_string@DU?$char_traits@D@std@@V?$allocator@D@2@@std@@@2@@2@@std@@@2@$00@std@@@std@@IAEXPAU_Node@?$_Tree_nod@V?$_Tmap_traits@V?$basic_string@DU?$char_traits@D@std@@V?$allocator@D@2@@std@@PAV?$vector@V?$basic_string@DU?$char_traits@D@std@@V?$allocator@D@2@@std@@V?$allocator@V?$basic_string@DU?$char_traits@D@std@@V?$allocator@D@2@@std@@@2@@2@U?$less@V?$basic_string@DU?$char_traits@D@std@@V?$allocator@D@2@@std@@@2@V?$allocator@U?$pair@$$CBV?$basic_string@DU?$char_traits@D@std@@V?$allocator@D@2@@std@@PAV?$vector@V?$basic_string@DU?$char_traits@D@std@@V?$allocator@D@2@@std@@V?$allocator@V?$basic_string@DU?$char_traits@D@std@@V?$allocator@D@2@@std@@@2@@2@@std@@@2@$00@std@@@2@@Z 0042b1d0 f i EngineLib:IniLoader.obj
 0001:0002a1d0       ?_Lrotate@?$_Tree@V?$_Tmap_traits@V?$basic_string@DU?$char_traits@D@std@@V?$allocator@D@2@@std@@PAUSTATICDATA@NSSTATICMESH@@U?$less@V?$basic_string@DU?$char_traits@D@std@@V?$allocator@D@2@@std@@@2@V?$allocator@U?$pair@$$CBV?$basic_string@DU?$char_traits@D@std@@V?$allocator@D@2@@std@@PAUSTATICDATA@NSSTATICMESH@@@std@@@2@$0A@@std@@@std@@IAEXPAU_Node@?$_Tree_nod@V?$_Tmap_traits@V?$basic_string@DU?$char_traits@D@std@@V?$allocator@D@2@@std@@PAUSTATICDATA@NSSTATICMESH@@U?$less@V?$basic_string@DU?$char_traits@D@std@@V?$allocator@D@2@@std@@@2@V?$allocator@U?$pair@$$CBV?$basic_string@DU?$char_traits@D@std@@V?$allocator@D@2@@std@@PAUSTATICDATA@NSSTATICMESH@@@std@@@2@$0A@@std@@@2@@Z 0042b1d0 f i EngineLib:DxStaticMesh.obj
 0001:0002a1d0       ?_Lrotate@?$_Tree@V?$_Tmap_traits@V?$basic_string@DU?$char_traits@D@std@@V?$allocator@D@2@@std@@PAVCStringArray@@U?$less@V?$basic_string@DU?$char_traits@D@std@@V?$allocator@D@2@@std@@@2@V?$allocator@U?$pair@$$CBV?$basic_string@DU?$char_traits@D@std@@V?$allocator@D@2@@std@@PAVCStringArray@@@std@@@2@$0A@@std@@@std@@IAEXPAU_Node@?$_Tree_nod@V?$_Tmap_traits@V?$basic_string@DU?$char_traits@D@std@@V?$allocator@D@2@@std@@PAVCStringArray@@U?$less@V?$basic_string@DU?$char_traits@D@std@@V?$allocator@D@2@@std@@@2@V?$allocator@U?$pair@$$CBV?$basic_string@DU?$char_traits@D@std@@V?$allocator@D@2@@std@@PAVCStringArray@@@std@@@2@$0A@@std@@@2@@Z 0042b1d0 f i LauncherText.obj
 0001:0002a1d0       ?_Lrotate@?$_Tree@V?$_Tmap_traits@V?$basic_string@DU?$char_traits@D@std@@V?$allocator@D@2@@std@@PAUSFILENODE@@U?$less@V?$basic_string@DU?$char_traits@D@std@@V?$allocator@D@2@@std@@@2@V?$allocator@U?$pair@$$CBV?$basic_string@DU?$char_traits@D@std@@V?$allocator@D@2@@std@@PAUSFILENODE@@@std@@@2@$0A@@std@@@std@@IAEXPAU_Node@?$_Tree_nod@V?$_Tmap_traits@V?$basic_string@DU?$char_traits@D@std@@V?$allocator@D@2@@std@@PAUSFILENODE@@U?$less@V?$basic_string@DU?$char_traits@D@std@@V?$allocator@D@2@@std@@@2@V?$allocator@U?$pair@$$CBV?$basic_string@DU?$char_traits@D@std@@V?$allocator@D@2@@std@@PAUSFILENODE@@@std@@@2@$0A@@std@@@2@@Z 0042b1d0 f i AutoPatchThread.obj
 0001:0002a1d0       ?_Lrotate@?$_Tree@V?$_Tmap_traits@V?$basic_string@DU?$char_traits@D@std@@V?$allocator@D@2@@std@@PAVTextureContainer@TextureManager@@U?$less@V?$basic_string@DU?$char_traits@D@std@@V?$allocator@D@2@@std@@@2@V?$allocator@U?$pair@$$CBV?$basic_string@DU?$char_traits@D@std@@V?$allocator@D@2@@std@@PAVTextureContainer@TextureManager@@@std@@@2@$0A@@std@@@std@@IAEXPAU_Node@?$_Tree_nod@V?$_Tmap_traits@V?$basic_string@DU?$char_traits@D@std@@V?$allocator@D@2@@std@@PAVTextureContainer@TextureManager@@U?$less@V?$basic_string@DU?$char_traits@D@std@@V?$allocator@D@2@@std@@@2@V?$allocator@U?$pair@$$CBV?$basic_string@DU?$char_traits@D@std@@V?$allocator@D@2@@std@@PAVTextureContainer@TextureManager@@@std@@@2@$0A@@std@@@2@@Z 0042b1d0 f i EngineLib:TextureManager.obj
 0001:0002a1d0       ?_Lrotate@?$_Tree@V?$_Tmap_traits@V?$basic_string@DU?$char_traits@D@std@@V?$allocator@D@2@@std@@PAV?$multimap@V?$basic_string@DU?$char_traits@D@std@@V?$allocator@D@2@@std@@PAV?$vector@V?$basic_string@DU?$char_traits@D@std@@V?$allocator@D@2@@std@@V?$allocator@V?$basic_string@DU?$char_traits@D@std@@V?$allocator@D@2@@std@@@2@@2@U?$less@V?$basic_string@DU?$char_traits@D@std@@V?$allocator@D@2@@std@@@2@V?$allocator@U?$pair@$$CBV?$basic_string@DU?$char_traits@D@std@@V?$allocator@D@2@@std@@PAV?$vector@V?$basic_string@DU?$char_traits@D@std@@V?$allocator@D@2@@std@@V?$allocator@V?$basic_string@DU?$char_traits@D@std@@V?$allocator@D@2@@std@@@2@@2@@std@@@2@@2@U?$less@V?$basic_string@DU?$char_traits@D@std@@V?$allocator@D@2@@std@@@2@V?$allocator@U?$pair@$$CBV?$basic_string@DU?$char_traits@D@std@@V?$allocator@D@2@@std@@PAV?$multimap@V?$basic_string@DU?$char_traits@D@std@@V?$allocator@D@2@@std@@PAV?$vector@V?$basic_string@DU?$char_traits@D@std@@V?$allocator@D@2@@std@@V?$allocator@V?$basic_string@DU?$char_traits@D@std@@V?$allocator@D@2@@std@@@2@@2@U?$less@V?$basic_string@DU?$char_traits@D@std@@V?$allocator@D@2@@std@@@2@V?$allocator@U?$pair@$$CBV?$basic_string@DU?$char_traits@D@std@@V?$allocator@D@2@@std@@PAV?$vector@V?$basic_string@DU?$char_traits@D@std@@V?$allocator@D@2@@std@@V?$allocator@V?$basic_string@DU?$char_traits@D@std@@V?$allocator@D@2@@std@@@2@@2@@std@@@2@@2@@std@@@2@$0A@@std@@@std@@IAEXPAU_Node@?$_Tree_nod@V?$_Tmap_traits@V?$basic_string@DU?$char_traits@D@std@@V?$allocator@D@2@@std@@PAV?$multimap@V?$basic_string@DU?$char_traits@D@std@@V?$allocator@D@2@@std@@PAV?$vector@V?$basic_string@DU?$char_traits@D@std@@V?$allocator@D@2@@std@@V?$allocator@V?$basic_string@DU?$char_traits@D@std@@V?$allocator@D@2@@std@@@2@@2@U?$less@V?$basic_string@DU?$char_traits@D@std@@V?$allocator@D@2@@std@@@2@V?$allocator@U?$pair@$$CBV?$basic_string@DU?$char_traits@D@std@@V?$allocator@D@2@@std@@PAV?$vector@V?$basic_string@DU?$char_traits@D@std@@V?$allocator@D@2@@std@@V?$allocator@V?$basic_string@DU?$char_traits@D@std@@V?$allocator@D@2@@std@@@2@@2@@std@@@2@@2@U?$less@V?$basic_string@DU?$char_traits@D@std@@V?$allocator@D@2@@std@@@2@V?$allocator@U?$pair@$$CBV?$basic_string@DU?$char_traits@D@std@@V?$allocator@D@2@@std@@PAV?$multimap@V?$basic_string@DU?$char_traits@D@std@@V?$allocator@D@2@@std@@PAV?$vector@V?$basic_string@DU?$char_traits@D@std@@V?$allocator@D@2@@std@@V?$allocator@V?$basic_string@DU?$char_traits@D@std@@V?$allocator@D@2@@std@@@2@@2@U?$less@V?$basic_string@DU?$char_traits@D@std@@V?$allocator@D@2@@std@@@2@V?$allocator@U?$pair@$$CBV?$basic_string@DU?$char_traits@D@std@@V?$allocator@D@2@@std@@PAV?$vector@V?$basic_string@DU?$char_traits@D@std@@V?$allocator@D@2@@std@@V?$allocator@V?$basic_string@DU?$char_traits@D@std@@V?$allocator@D@2@@std@@@2@@2@@std@@@2@@2@@std@@@2@$0A@@std@@@2@@Z 0042b1d0 f i EngineLib:IniLoader.obj
 0001:0002a230       ?_Buynode@?$_Tree@V?$_Tmap_traits@V?$basic_string@DU?$char_traits@D@std@@V?$allocator@D@2@@std@@KU?$less@V?$basic_string@DU?$char_traits@D@std@@V?$allocator@D@2@@std@@@2@V?$allocator@U?$pair@$$CBV?$basic_string@DU?$char_traits@D@std@@V?$allocator@D@2@@std@@K@std@@@2@$0A@@std@@@std@@IAEPAU_Node@?$_Tree_nod@V?$_Tmap_traits@V?$basic_string@DU?$char_traits@D@std@@V?$allocator@D@2@@std@@KU?$less@V?$basic_string@DU?$char_traits@D@std@@V?$allocator@D@2@@std@@@2@V?$allocator@U?$pair@$$CBV?$basic_string@DU?$char_traits@D@std@@V?$allocator@D@2@@std@@K@std@@@2@$0A@@std@@@2@PAU342@00ABU?$pair@$$CBV?$basic_string@DU?$char_traits@D@std@@V?$allocator@D@2@@std@@K@2@D@Z 0042b230 f i EngineLib:TextureManager.obj
 0001:0002a230       ?_Buynode@?$_Tree@V?$_Tmap_traits@V?$basic_string@DU?$char_traits@D@std@@V?$allocator@D@2@@std@@PAVTextureContainer@TextureManager@@U?$less@V?$basic_string@DU?$char_traits@D@std@@V?$allocator@D@2@@std@@@2@V?$allocator@U?$pair@$$CBV?$basic_string@DU?$char_traits@D@std@@V?$allocator@D@2@@std@@PAVTextureContainer@TextureManager@@@std@@@2@$0A@@std@@@std@@IAEPAU_Node@?$_Tree_nod@V?$_Tmap_traits@V?$basic_string@DU?$char_traits@D@std@@V?$allocator@D@2@@std@@PAVTextureContainer@TextureManager@@U?$less@V?$basic_string@DU?$char_traits@D@std@@V?$allocator@D@2@@std@@@2@V?$allocator@U?$pair@$$CBV?$basic_string@DU?$char_traits@D@std@@V?$allocator@D@2@@std@@PAVTextureContainer@TextureManager@@@std@@@2@$0A@@std@@@2@PAU342@00ABU?$pair@$$CBV?$basic_string@DU?$char_traits@D@std@@V?$allocator@D@2@@std@@PAVTextureContainer@TextureManager@@@2@D@Z 0042b230 f i EngineLib:TextureManager.obj
 0001:0002a2d0       ?_Insert@?$_Tree@V?$_Tmap_traits@V?$basic_string@DU?$char_traits@D@std@@V?$allocator@D@2@@std@@KU?$less@V?$basic_string@DU?$char_traits@D@std@@V?$allocator@D@2@@std@@@2@V?$allocator@U?$pair@$$CBV?$basic_string@DU?$char_traits@D@std@@V?$allocator@D@2@@std@@K@std@@@2@$0A@@std@@@std@@IAE?AViterator@12@_NPAU_Node@?$_Tree_nod@V?$_Tmap_traits@V?$basic_string@DU?$char_traits@D@std@@V?$allocator@D@2@@std@@KU?$less@V?$basic_string@DU?$char_traits@D@std@@V?$allocator@D@2@@std@@@2@V?$allocator@U?$pair@$$CBV?$basic_string@DU?$char_traits@D@std@@V?$allocator@D@2@@std@@K@std@@@2@$0A@@std@@@2@ABU?$pair@$$CBV?$basic_string@DU?$char_traits@D@std@@V?$allocator@D@2@@std@@K@2@@Z 0042b2d0 f i EngineLib:TextureManager.obj
 0001:0002a2d0       ?_Insert@?$_Tree@V?$_Tmap_traits@V?$basic_string@DU?$char_traits@D@std@@V?$allocator@D@2@@std@@PAVTextureContainer@TextureManager@@U?$less@V?$basic_string@DU?$char_traits@D@std@@V?$allocator@D@2@@std@@@2@V?$allocator@U?$pair@$$CBV?$basic_string@DU?$char_traits@D@std@@V?$allocator@D@2@@std@@PAVTextureContainer@TextureManager@@@std@@@2@$0A@@std@@@std@@IAE?AViterator@12@_NPAU_Node@?$_Tree_nod@V?$_Tmap_traits@V?$basic_string@DU?$char_traits@D@std@@V?$allocator@D@2@@std@@PAVTextureContainer@TextureManager@@U?$less@V?$basic_string@DU?$char_traits@D@std@@V?$allocator@D@2@@std@@@2@V?$allocator@U?$pair@$$CBV?$basic_string@DU?$char_traits@D@std@@V?$allocator@D@2@@std@@PAVTextureContainer@TextureManager@@@std@@@2@$0A@@std@@@2@ABU?$pair@$$CBV?$basic_string@DU?$char_traits@D@std@@V?$allocator@D@2@@std@@PAVTextureContainer@TextureManager@@@2@@Z 0042b2d0 f i EngineLib:TextureManager.obj
 0001:0002a490       ?IsLoading_AddRef@TextureManager@@YAHPBD@Z 0042b490 f   EngineLib:TextureManager.obj
 0001:0002a560       ?GetCompleteTex_AddRef@TextureManager@@YAPAUIDirect3DTexture9@@PBD@Z 0042b560 f   EngineLib:TextureManager.obj
 0001:0002a630       ?_Erase@?$_Tree@V?$_Tmap_traits@V?$basic_string@DU?$char_traits@D@std@@V?$allocator@D@2@@std@@PAVTextureContainer@TextureManager@@U?$less@V?$basic_string@DU?$char_traits@D@std@@V?$allocator@D@2@@std@@@2@V?$allocator@U?$pair@$$CBV?$basic_string@DU?$char_traits@D@std@@V?$allocator@D@2@@std@@PAVTextureContainer@TextureManager@@@std@@@2@$0A@@std@@@std@@IAEXPAU_Node@?$_Tree_nod@V?$_Tmap_traits@V?$basic_string@DU?$char_traits@D@std@@V?$allocator@D@2@@std@@PAVTextureContainer@TextureManager@@U?$less@V?$basic_string@DU?$char_traits@D@std@@V?$allocator@D@2@@std@@@2@V?$allocator@U?$pair@$$CBV?$basic_string@DU?$char_traits@D@std@@V?$allocator@D@2@@std@@PAVTextureContainer@TextureManager@@@std@@@2@$0A@@std@@@2@@Z 0042b630 f i EngineLib:TextureManager.obj
 0001:0002a670       ?insert@?$_Tree@V?$_Tmap_traits@V?$basic_string@DU?$char_traits@D@std@@V?$allocator@D@2@@std@@KU?$less@V?$basic_string@DU?$char_traits@D@std@@V?$allocator@D@2@@std@@@2@V?$allocator@U?$pair@$$CBV?$basic_string@DU?$char_traits@D@std@@V?$allocator@D@2@@std@@K@std@@@2@$0A@@std@@@std@@QAE?AU?$pair@Viterator@?$_Tree@V?$_Tmap_traits@V?$basic_string@DU?$char_traits@D@std@@V?$allocator@D@2@@std@@KU?$less@V?$basic_string@DU?$char_traits@D@std@@V?$allocator@D@2@@std@@@2@V?$allocator@U?$pair@$$CBV?$basic_string@DU?$char_traits@D@std@@V?$allocator@D@2@@std@@K@std@@@2@$0A@@std@@@std@@_N@2@ABU?$pair@$$CBV?$basic_string@DU?$char_traits@D@std@@V?$allocator@D@2@@std@@K@2@@Z 0042b670 f i EngineLib:TextureManager.obj
 0001:0002a670       ?insert@?$_Tree@V?$_Tmap_traits@V?$basic_string@DU?$char_traits@D@std@@V?$allocator@D@2@@std@@PAVTextureContainer@TextureManager@@U?$less@V?$basic_string@DU?$char_traits@D@std@@V?$allocator@D@2@@std@@@2@V?$allocator@U?$pair@$$CBV?$basic_string@DU?$char_traits@D@std@@V?$allocator@D@2@@std@@PAVTextureContainer@TextureManager@@@std@@@2@$0A@@std@@@std@@QAE?AU?$pair@Viterator@?$_Tree@V?$_Tmap_traits@V?$basic_string@DU?$char_traits@D@std@@V?$allocator@D@2@@std@@PAVTextureContainer@TextureManager@@U?$less@V?$basic_string@DU?$char_traits@D@std@@V?$allocator@D@2@@std@@@2@V?$allocator@U?$pair@$$CBV?$basic_string@DU?$char_traits@D@std@@V?$allocator@D@2@@std@@PAVTextureContainer@TextureManager@@@std@@@2@$0A@@std@@@std@@_N@2@ABU?$pair@$$CBV?$basic_string@DU?$char_traits@D@std@@V?$allocator@D@2@@std@@PAVTextureContainer@TextureManager@@@2@@Z 0042b670 f i EngineLib:TextureManager.obj
 0001:0002a750       ?erase@?$_Tree@V?$_Tmap_traits@V?$basic_string@DU?$char_traits@D@std@@V?$allocator@D@2@@std@@KU?$less@V?$basic_string@DU?$char_traits@D@std@@V?$allocator@D@2@@std@@@2@V?$allocator@U?$pair@$$CBV?$basic_string@DU?$char_traits@D@std@@V?$allocator@D@2@@std@@K@std@@@2@$0A@@std@@@std@@QAE?AViterator@12@V312@@Z 0042b750 f i EngineLib:TextureManager.obj
 0001:0002a750       ?erase@?$_Tree@V?$_Tmap_traits@V?$basic_string@DU?$char_traits@D@std@@V?$allocator@D@2@@std@@PAVTextureContainer@TextureManager@@U?$less@V?$basic_string@DU?$char_traits@D@std@@V?$allocator@D@2@@std@@@2@V?$allocator@U?$pair@$$CBV?$basic_string@DU?$char_traits@D@std@@V?$allocator@D@2@@std@@PAVTextureContainer@TextureManager@@@std@@@2@$0A@@std@@@std@@QAE?AViterator@12@V312@@Z 0042b750 f i EngineLib:TextureManager.obj
 0001:0002aa30       ?_Erase@?$_Tree@V?$_Tmap_traits@V?$basic_string@DU?$char_traits@D@std@@V?$allocator@D@2@@std@@KU?$less@V?$basic_string@DU?$char_traits@D@std@@V?$allocator@D@2@@std@@@2@V?$allocator@U?$pair@$$CBV?$basic_string@DU?$char_traits@D@std@@V?$allocator@D@2@@std@@K@std@@@2@$0A@@std@@@std@@IAEXPAU_Node@?$_Tree_nod@V?$_Tmap_traits@V?$basic_string@DU?$char_traits@D@std@@V?$allocator@D@2@@std@@KU?$less@V?$basic_string@DU?$char_traits@D@std@@V?$allocator@D@2@@std@@@2@V?$allocator@U?$pair@$$CBV?$basic_string@DU?$char_traits@D@std@@V?$allocator@D@2@@std@@K@std@@@2@$0A@@std@@@2@@Z 0042ba30 f i EngineLib:TextureManager.obj
 0001:0002aa70       ?SubLoadingMap@TextureManager@@YAHPBD@Z 0042ba70 f   EngineLib:TextureManager.obj
 0001:0002ab80       ?SubCompleteMap@TextureManager@@YAHPBD@Z 0042bb80 f   EngineLib:TextureManager.obj
 0001:0002ac90       ?ReleaseTexture@TextureManager@@YAJPBDAAPAUIDirect3DTexture9@@@Z 0042bc90 f   EngineLib:TextureManager.obj
 0001:0002ad30       ?insert@?$_Tree@V?$_Tmap_traits@V?$basic_string@DU?$char_traits@D@std@@V?$allocator@D@2@@std@@PAVTextureContainer@TextureManager@@U?$less@V?$basic_string@DU?$char_traits@D@std@@V?$allocator@D@2@@std@@@2@V?$allocator@U?$pair@$$CBV?$basic_string@DU?$char_traits@D@std@@V?$allocator@D@2@@std@@PAVTextureContainer@TextureManager@@@std@@@2@$0A@@std@@@std@@QAE?AViterator@12@V312@ABU?$pair@$$CBV?$basic_string@DU?$char_traits@D@std@@V?$allocator@D@2@@std@@PAVTextureContainer@TextureManager@@@2@@Z 0042bd30 f i EngineLib:TextureManager.obj
 0001:0002ad30       ?insert@?$_Tree@V?$_Tmap_traits@V?$basic_string@DU?$char_traits@D@std@@V?$allocator@D@2@@std@@KU?$less@V?$basic_string@DU?$char_traits@D@std@@V?$allocator@D@2@@std@@@2@V?$allocator@U?$pair@$$CBV?$basic_string@DU?$char_traits@D@std@@V?$allocator@D@2@@std@@K@std@@@2@$0A@@std@@@std@@QAE?AViterator@12@V312@ABU?$pair@$$CBV?$basic_string@DU?$char_traits@D@std@@V?$allocator@D@2@@std@@K@2@@Z 0042bd30 f i EngineLib:TextureManager.obj
 0001:0002aef0       ?erase@?$_Tree@V?$_Tmap_traits@V?$basic_string@DU?$char_traits@D@std@@V?$allocator@D@2@@std@@PAVTextureContainer@TextureManager@@U?$less@V?$basic_string@DU?$char_traits@D@std@@V?$allocator@D@2@@std@@@2@V?$allocator@U?$pair@$$CBV?$basic_string@DU?$char_traits@D@std@@V?$allocator@D@2@@std@@PAVTextureContainer@TextureManager@@@std@@@2@$0A@@std@@@std@@QAE?AViterator@12@V312@0@Z 0042bef0 f i EngineLib:TextureManager.obj
 0001:0002afb0       ??A?$map@V?$basic_string@DU?$char_traits@D@std@@V?$allocator@D@2@@std@@KU?$less@V?$basic_string@DU?$char_traits@D@std@@V?$allocator@D@2@@std@@@2@V?$allocator@U?$pair@$$CBV?$basic_string@DU?$char_traits@D@std@@V?$allocator@D@2@@std@@K@std@@@2@@std@@QAEAAKABV?$basic_string@DU?$char_traits@D@std@@V?$allocator@D@2@@1@@Z 0042bfb0 f i EngineLib:TextureManager.obj
 0001:0002afb0       ??A?$map@V?$basic_string@DU?$char_traits@D@std@@V?$allocator@D@2@@std@@PAVTextureContainer@TextureManager@@U?$less@V?$basic_string@DU?$char_traits@D@std@@V?$allocator@D@2@@std@@@2@V?$allocator@U?$pair@$$CBV?$basic_string@DU?$char_traits@D@std@@V?$allocator@D@2@@std@@PAVTextureContainer@TextureManager@@@std@@@2@@std@@QAEAAPAVTextureContainer@TextureManager@@ABV?$basic_string@DU?$char_traits@D@std@@V?$allocator@D@2@@1@@Z 0042bfb0 f i EngineLib:TextureManager.obj
 0001:0002b050       ?erase@?$_Tree@V?$_Tmap_traits@V?$basic_string@DU?$char_traits@D@std@@V?$allocator@D@2@@std@@KU?$less@V?$basic_string@DU?$char_traits@D@std@@V?$allocator@D@2@@std@@@2@V?$allocator@U?$pair@$$CBV?$basic_string@DU?$char_traits@D@std@@V?$allocator@D@2@@std@@K@std@@@2@$0A@@std@@@std@@QAE?AViterator@12@V312@0@Z 0042c050 f i EngineLib:TextureManager.obj
 0001:0002b110       ?GetLoading2CompleteTex_AddRef@TextureManager@@YAPAUIDirect3DTexture9@@PBDPAVTextureContainer@1@@Z 0042c110 f   EngineLib:TextureManager.obj
 0001:0002b260       ?AddLoadingMap@TextureManager@@YAXPAVTextureContainer@1@PBD@Z 0042c260 f   EngineLib:TextureManager.obj
 0001:0002b2f0       ?AddCompleteMap@TextureManager@@YAPAUIDirect3DTexture9@@PAVTextureContainer@1@PBD@Z 0042c2f0 f   EngineLib:TextureManager.obj
 0001:0002b380       ?AddTextureID@TextureManager@@YAXPBD@Z 0042c380 f   EngineLib:TextureManager.obj
 0001:0002b480       ?LoadTexture@TextureManager@@YAJPBDPAUIDirect3DDevice9@@AAPAUIDirect3DTexture9@@KKH@Z 0042c480 f   EngineLib:TextureManager.obj
 0001:0002b6b0       ??1?$map@V?$basic_string@DU?$char_traits@D@std@@V?$allocator@D@2@@std@@PAVTextureContainer@TextureManager@@U?$less@V?$basic_string@DU?$char_traits@D@std@@V?$allocator@D@2@@std@@@2@V?$allocator@U?$pair@$$CBV?$basic_string@DU?$char_traits@D@std@@V?$allocator@D@2@@std@@PAVTextureContainer@TextureManager@@@std@@@2@@std@@QAE@XZ 0042c6b0 f i EngineLib:TextureManager.obj
 0001:0002b6e0       ??1?$map@V?$basic_string@DU?$char_traits@D@std@@V?$allocator@D@2@@std@@KU?$less@V?$basic_string@DU?$char_traits@D@std@@V?$allocator@D@2@@std@@@2@V?$allocator@U?$pair@$$CBV?$basic_string@DU?$char_traits@D@std@@V?$allocator@D@2@@std@@K@std@@@2@@std@@QAE@XZ 0042c6e0 f i EngineLib:TextureManager.obj
 0001:0002b710       ??0CPROFILE@@QAE@XZ        0042c710 f   EngineLib:profile.obj
 0001:0002b7a0       ??1DXLIGHT@@UAE@XZ         0042c7a0 f i EngineLib:DxLightMan.obj
 0001:0002b7d0       ??_EDXLIGHT@@UAEPAXI@Z     0042c7d0 f i EngineLib:DxLightMan.obj
 0001:0002b7d0       ??_GDXLIGHT@@UAEPAXI@Z     0042c7d0 f i EngineLib:DxLightMan.obj
 0001:0002b810       ??_GDXLIGHTNODE@@QAEPAXI@Z 0042c810 f i EngineLib:DxLightMan.obj
 0001:0002b860       ?COLORBLEND@?A0xcb3739d8@@YA?AU_D3DCOLORVALUE@@ABU2@0M@Z 0042c860 f   EngineLib:DxLightMan.obj
 0001:0002b8e0       ?InitDeviceObjects@DxLightMan@@UAEJPAUIDirect3DDevice9@@@Z 0042c8e0 f   EngineLib:DxLightMan.obj
 0001:0002b9b0       ?IsCollisionVolume@DXLIGHTNODE@@QAEHAAUCLIPVOLUME@@@Z 0042c9b0 f   EngineLib:DxLightMan.obj
 0001:0002c050       ?Clone2DPLight@DxLightMan@@QAEXXZ 0042d050 f   EngineLib:DxLightMan.obj
 0001:0002c0a0       ??0DXLIGHT@@QAE@XZ         0042d0a0 f i EngineLib:DxLightMan.obj
 0001:0002c140       ?MakeAABBTree@DxLightMan@@IAEXPAPAVDXLIGHT@@KPAUDXLIGHTNODE@@ABUD3DXVECTOR3@@2@Z 0042d140 f   EngineLib:DxLightMan.obj
 0001:0002d080       ?_Inc@const_iterator@?$_Tree@V?$_Tmap_traits@MPAVDXLIGHT@@U?$less@M@std@@V?$allocator@U?$pair@$$CBMPAVDXLIGHT@@@std@@@3@$00@std@@@std@@QAEXXZ 0042e080 f i EngineLib:DxLightMan.obj
 0001:0002d080       ?_Inc@const_iterator@?$_Tree@V?$_Tmap_traits@KUOBJQUADTemp@@U?$less@K@std@@V?$allocator@U?$pair@$$CBKUOBJQUADTemp@@@std@@@3@$0A@@std@@@std@@QAEXXZ 0042e080 f i EngineLib:DxMapEditManThread.obj
 0001:0002d080       ?_Inc@const_iterator@?$_Tree@V?$_Tmap_traits@KKU?$less@K@std@@V?$allocator@U?$pair@$$CBKK@std@@@2@$00@std@@@std@@QAEXXZ 0042e080 f i EngineLib:NsSMeshSceneGraph.obj
 0001:0002d0e0       ?_Rrotate@?$_Tree@V?$_Tmap_traits@KUOBJQUADTemp@@U?$less@K@std@@V?$allocator@U?$pair@$$CBKUOBJQUADTemp@@@std@@@3@$0A@@std@@@std@@IAEXPAU_Node@?$_Tree_nod@V?$_Tmap_traits@KUOBJQUADTemp@@U?$less@K@std@@V?$allocator@U?$pair@$$CBKUOBJQUADTemp@@@std@@@3@$0A@@std@@@2@@Z 0042e0e0 f i EngineLib:DxMapEditManThread.obj
 0001:0002d0e0       ?_Rrotate@?$_Tree@V?$_Tmap_traits@MPAVDXLIGHT@@U?$less@M@std@@V?$allocator@U?$pair@$$CBMPAVDXLIGHT@@@std@@@3@$00@std@@@std@@IAEXPAU_Node@?$_Tree_nod@V?$_Tmap_traits@MPAVDXLIGHT@@U?$less@M@std@@V?$allocator@U?$pair@$$CBMPAVDXLIGHT@@@std@@@3@$00@std@@@2@@Z 0042e0e0 f i EngineLib:DxLightMan.obj
 0001:0002d0e0       ?_Rrotate@?$_Tree@V?$_Tmap_traits@KKU?$less@K@std@@V?$allocator@U?$pair@$$CBKK@std@@@2@$00@std@@@std@@IAEXPAU_Node@?$_Tree_nod@V?$_Tmap_traits@KKU?$less@K@std@@V?$allocator@U?$pair@$$CBKK@std@@@2@$00@std@@@2@@Z 0042e0e0 f i EngineLib:NsSMeshSceneGraph.obj
 0001:0002d140       ?SetDefault@DXLIGHT@@QAEXXZ 0042e140 f i EngineLib:DxLightMan.obj
 0001:0002d250       ??4DXLIGHT@@QAEXABV0@@Z    0042e250 f i EngineLib:DxLightMan.obj
 0001:0002d2e0       ?FrameMove@DxLightMan@@UAEJMM@Z 0042e2e0 f   EngineLib:DxLightMan.obj
 0001:0002d6e0       ?MakeAABBTree@DxLightMan@@QAEXXZ 0042e6e0 f   EngineLib:DxLightMan.obj
 0001:0002d980       ?_Erase@?$_Tree@V?$_Tmap_traits@MPAVDXLIGHT@@U?$less@M@std@@V?$allocator@U?$pair@$$CBMPAVDXLIGHT@@@std@@@3@$00@std@@@std@@IAEXPAU_Node@?$_Tree_nod@V?$_Tmap_traits@MPAVDXLIGHT@@U?$less@M@std@@V?$allocator@U?$pair@$$CBMPAVDXLIGHT@@@std@@@3@$00@std@@@2@@Z 0042e980 f i EngineLib:DxLightMan.obj
 0001:0002d9c0       ?_Buynode@?$_Tree@V?$_Tmap_traits@MPAVDXLIGHT@@U?$less@M@std@@V?$allocator@U?$pair@$$CBMPAVDXLIGHT@@@std@@@3@$00@std@@@std@@IAEPAU_Node@?$_Tree_nod@V?$_Tmap_traits@MPAVDXLIGHT@@U?$less@M@std@@V?$allocator@U?$pair@$$CBMPAVDXLIGHT@@@std@@@3@$00@std@@@2@PAU342@00ABU?$pair@$$CBMPAVDXLIGHT@@@2@D@Z 0042e9c0 f i EngineLib:DxLightMan.obj
 0001:0002da00       ?SerialData@DXLIGHT@@UAEXXZ 0042ea00 f   EngineLib:DxLightMan.obj
 0001:0002da40       ?_Insert@?$_Tree@V?$_Tmap_traits@MPAVDXLIGHT@@U?$less@M@std@@V?$allocator@U?$pair@$$CBMPAVDXLIGHT@@@std@@@3@$00@std@@@std@@IAE?AViterator@12@_NPAU_Node@?$_Tree_nod@V?$_Tmap_traits@MPAVDXLIGHT@@U?$less@M@std@@V?$allocator@U?$pair@$$CBMPAVDXLIGHT@@@std@@@3@$00@std@@@2@ABU?$pair@$$CBMPAVDXLIGHT@@@2@@Z 0042ea40 f i EngineLib:DxLightMan.obj
 0001:0002dc00       ?erase@?$_Tree@V?$_Tmap_traits@MPAVDXLIGHT@@U?$less@M@std@@V?$allocator@U?$pair@$$CBMPAVDXLIGHT@@@std@@@3@$00@std@@@std@@QAE?AViterator@12@V312@@Z 0042ec00 f i EngineLib:DxLightMan.obj
 0001:0002ded0       ?insert@?$_Tree@V?$_Tmap_traits@MPAVDXLIGHT@@U?$less@M@std@@V?$allocator@U?$pair@$$CBMPAVDXLIGHT@@@std@@@3@$00@std@@@std@@QAE?AU?$pair@Viterator@?$_Tree@V?$_Tmap_traits@MPAVDXLIGHT@@U?$less@M@std@@V?$allocator@U?$pair@$$CBMPAVDXLIGHT@@@std@@@3@$00@std@@@std@@_N@2@ABU?$pair@$$CBMPAVDXLIGHT@@@2@@Z 0042eed0 f i EngineLib:DxLightMan.obj
 0001:0002df40       ?erase@?$_Tree@V?$_Tmap_traits@MPAVDXLIGHT@@U?$less@M@std@@V?$allocator@U?$pair@$$CBMPAVDXLIGHT@@@std@@@3@$00@std@@@std@@QAE?AViterator@12@V312@0@Z 0042ef40 f i EngineLib:DxLightMan.obj
 0001:0002e000       ?CleanUp@DxLightMan@@QAEXXZ 0042f000 f   EngineLib:DxLightMan.obj
 0001:0002e0e0       ?TreeRender@DxLightMan@@QAEXPAUDXLIGHTNODE@@PAUIDirect3DDevice9@@AAUCLIPVOLUME@@@Z 0042f0e0 f   EngineLib:DxLightMan.obj
 0001:0002e320       ?Render@DxLightMan@@UAEJPAUIDirect3DDevice9@@@Z 0042f320 f   EngineLib:DxLightMan.obj
 0001:0002e710       ??1?$multimap@MPAVDXLIGHT@@U?$less@M@std@@V?$allocator@U?$pair@$$CBMPAVDXLIGHT@@@std@@@3@@std@@QAE@XZ 0042f710 f i EngineLib:DxLightMan.obj
 0001:0002e740       ??1DxLightMan@@UAE@XZ      0042f740 f   EngineLib:DxLightMan.obj
 0001:0002e860       ??0DxLightMan@@QAE@XZ      0042f860 f   EngineLib:DxLightMan.obj
 0001:0002eab0       ??_EDxLightMan@@UAEPAXI@Z  0042fab0 f i EngineLib:DxLightMan.obj
 0001:0002eab0       ??_GDxLightMan@@UAEPAXI@Z  0042fab0 f i EngineLib:DxLightMan.obj
 0001:0002ead0       ??$transform@Viterator@?$basic_string@DU?$char_traits@D@std@@V?$allocator@D@2@@std@@V123@P6AHH@Z@std@@YA?AViterator@?$basic_string@DU?$char_traits@D@std@@V?$allocator@D@2@@0@V120@00P6AHH@Z@Z 0042fad0 f i EngineLib:DxSurfaceTex.obj
 0001:0002eb20       ??1DxWeatherMan@@QAE@XZ    0042fb20 f   EngineLib:DxWeatherMan.obj
 0001:0002eba0       ?InitDeviceObjects@DxWeatherMan@@UAEJPAUIDirect3DDevice9@@@Z 0042fba0 f   EngineLib:DxWeatherMan.obj
 0001:0002ebd0       ?RestoreDeviceObjects@DxWeatherMan@@UAEJPAUIDirect3DDevice9@@@Z 0042fbd0 f   EngineLib:DxWeatherMan.obj
 0001:0002ebd0       ?InvalidateDeviceObjects@DxWeatherMan@@UAEJPAUIDirect3DDevice9@@@Z 0042fbd0 f   EngineLib:DxWeatherMan.obj
 0001:0002ebf0       ?DeleteDeviceObjects@DxWeatherMan@@UAEJXZ 0042fbf0 f   EngineLib:DxWeatherMan.obj
 0001:0002ec00       ?Render@DxWeatherMan@@UAEJPAUIDirect3DDevice9@@@Z 0042fc00 f   EngineLib:DxWeatherMan.obj
 0001:0002ec20       ??0DxWeatherMan@@QAE@XZ    0042fc20 f   EngineLib:DxWeatherMan.obj
 0001:0002ecd0       ?_Xlen@?$vector@USONEMAPWEATHER@@V?$allocator@USONEMAPWEATHER@@@std@@@std@@IBEXXZ 0042fcd0 f i EngineLib:DxWeatherMan.obj
 0001:0002ed50       ??$_Uninit_copy@Vconst_iterator@?$vector@USONEMAPWEATHER@@V?$allocator@USONEMAPWEATHER@@@std@@@std@@PAUSONEMAPWEATHER@@V?$allocator@USONEMAPWEATHER@@@3@@std@@YAPAUSONEMAPWEATHER@@Vconst_iterator@?$vector@USONEMAPWEATHER@@V?$allocator@USONEMAPWEATHER@@@std@@@0@0PAU1@AAV?$allocator@USONEMAPWEATHER@@@0@U_Nonscalar_ptr_iterator_tag@0@@Z 0042fd50 f i EngineLib:DxWeatherMan.obj
 0001:0002ed80       ??0?$vector@USONEMAPWEATHER@@V?$allocator@USONEMAPWEATHER@@@std@@@std@@QAE@ABV01@@Z 0042fd80 f i EngineLib:DxWeatherMan.obj
 0001:0002ee50       ?GetOneMapWeather@GLPeriod@@QAE?AV?$vector@USONEMAPWEATHER@@V?$allocator@USONEMAPWEATHER@@@std@@@std@@XZ 0042fe50 f i EngineLib:DxWeatherMan.obj
 0001:0002ee80       ?FrameMove@DxWeatherMan@@UAEJMM@Z 0042fe80 f   EngineLib:DxWeatherMan.obj
 0001:0002f060       ?_Max@?$_Tree@V?$_Tmap_traits@KUCOUNTVERTEXFACE@NSCHARSG@@U?$less@K@std@@V?$allocator@U?$pair@$$CBKUCOUNTVERTEXFACE@NSCHARSG@@@std@@@4@$0A@@std@@@std@@KAPAU_Node@?$_Tree_nod@V?$_Tmap_traits@KUCOUNTVERTEXFACE@NSCHARSG@@U?$less@K@std@@V?$allocator@U?$pair@$$CBKUCOUNTVERTEXFACE@NSCHARSG@@@std@@@4@$0A@@std@@@2@PAU342@@Z 00430060 f i EngineLib:NsSMeshSceneGraph.obj
 0001:0002f060       ?_Max@?$_Tree@V?$_Tmap_traits@KUSMTH@GLPeriod@@U?$less@K@std@@V?$allocator@U?$pair@$$CBKUSMTH@GLPeriod@@@std@@@4@$0A@@std@@@std@@KAPAU_Node@?$_Tree_nod@V?$_Tmap_traits@KUSMTH@GLPeriod@@U?$less@K@std@@V?$allocator@U?$pair@$$CBKUSMTH@GLPeriod@@@std@@@4@$0A@@std@@@2@PAU342@@Z 00430060 f i EngineLib:GLPeriod.obj
 0001:0002f080       ?_Min@?$_Tree@V?$_Tmap_traits@KUCOUNTVERTEXFACE@NSCHARSG@@U?$less@K@std@@V?$allocator@U?$pair@$$CBKUCOUNTVERTEXFACE@NSCHARSG@@@std@@@4@$0A@@std@@@std@@KAPAU_Node@?$_Tree_nod@V?$_Tmap_traits@KUCOUNTVERTEXFACE@NSCHARSG@@U?$less@K@std@@V?$allocator@U?$pair@$$CBKUCOUNTVERTEXFACE@NSCHARSG@@@std@@@4@$0A@@std@@@2@PAU342@@Z 00430080 f i EngineLib:NsSMeshSceneGraph.obj
 0001:0002f080       ?_Min@?$_Tree@V?$_Tmap_traits@KUSMTH@GLPeriod@@U?$less@K@std@@V?$allocator@U?$pair@$$CBKUSMTH@GLPeriod@@@std@@@4@$0A@@std@@@std@@KAPAU_Node@?$_Tree_nod@V?$_Tmap_traits@KUSMTH@GLPeriod@@U?$less@K@std@@V?$allocator@U?$pair@$$CBKUSMTH@GLPeriod@@@std@@@4@$0A@@std@@@2@PAU342@@Z 00430080 f i EngineLib:GLPeriod.obj
 0001:0002f0a0       ?_Inc@const_iterator@?$_Tree@V?$_Tmap_traits@KUSMTH@GLPeriod@@U?$less@K@std@@V?$allocator@U?$pair@$$CBKUSMTH@GLPeriod@@@std@@@4@$0A@@std@@@std@@QAEXXZ 004300a0 f i EngineLib:GLPeriod.obj
 0001:0002f0a0       ?_Inc@const_iterator@?$_Tree@V?$_Tmap_traits@KUCOUNTVERTEXFACE@NSCHARSG@@U?$less@K@std@@V?$allocator@U?$pair@$$CBKUCOUNTVERTEXFACE@NSCHARSG@@@std@@@4@$0A@@std@@@std@@QAEXXZ 004300a0 f i EngineLib:NsSMeshSceneGraph.obj
 0001:0002f100       ?_Lrotate@?$_Tree@V?$_Tmap_traits@KUCOUNTVERTEXFACE@NSCHARSG@@U?$less@K@std@@V?$allocator@U?$pair@$$CBKUCOUNTVERTEXFACE@NSCHARSG@@@std@@@4@$0A@@std@@@std@@IAEXPAU_Node@?$_Tree_nod@V?$_Tmap_traits@KUCOUNTVERTEXFACE@NSCHARSG@@U?$less@K@std@@V?$allocator@U?$pair@$$CBKUCOUNTVERTEXFACE@NSCHARSG@@@std@@@4@$0A@@std@@@2@@Z 00430100 f i EngineLib:NsSMeshSceneGraph.obj
 0001:0002f100       ?_Lrotate@?$_Tree@V?$_Tmap_traits@KUSMTH@GLPeriod@@U?$less@K@std@@V?$allocator@U?$pair@$$CBKUSMTH@GLPeriod@@@std@@@4@$0A@@std@@@std@@IAEXPAU_Node@?$_Tree_nod@V?$_Tmap_traits@KUSMTH@GLPeriod@@U?$less@K@std@@V?$allocator@U?$pair@$$CBKUSMTH@GLPeriod@@@std@@@4@$0A@@std@@@2@@Z 00430100 f i EngineLib:GLPeriod.obj
 0001:0002f160       ?_Rrotate@?$_Tree@V?$_Tmap_traits@KUSMTH@GLPeriod@@U?$less@K@std@@V?$allocator@U?$pair@$$CBKUSMTH@GLPeriod@@@std@@@4@$0A@@std@@@std@@IAEXPAU_Node@?$_Tree_nod@V?$_Tmap_traits@KUSMTH@GLPeriod@@U?$less@K@std@@V?$allocator@U?$pair@$$CBKUSMTH@GLPeriod@@@std@@@4@$0A@@std@@@2@@Z 00430160 f i EngineLib:GLPeriod.obj
 0001:0002f160       ?_Rrotate@?$_Tree@V?$_Tmap_traits@KUCOUNTVERTEXFACE@NSCHARSG@@U?$less@K@std@@V?$allocator@U?$pair@$$CBKUCOUNTVERTEXFACE@NSCHARSG@@@std@@@4@$0A@@std@@@std@@IAEXPAU_Node@?$_Tree_nod@V?$_Tmap_traits@KUCOUNTVERTEXFACE@NSCHARSG@@U?$less@K@std@@V?$allocator@U?$pair@$$CBKUCOUNTVERTEXFACE@NSCHARSG@@@std@@@4@$0A@@std@@@2@@Z 00430160 f i EngineLib:NsSMeshSceneGraph.obj
 0001:0002f1c0       ?_Dec@const_iterator@?$_Tree@V?$_Tmap_traits@KUSMTH@GLPeriod@@U?$less@K@std@@V?$allocator@U?$pair@$$CBKUSMTH@GLPeriod@@@std@@@4@$0A@@std@@@std@@QAEXXZ 004301c0 f i EngineLib:GLPeriod.obj
 0001:0002f220       ?_Buynode@?$_Tree@V?$_Tmap_traits@KUSMTH@GLPeriod@@U?$less@K@std@@V?$allocator@U?$pair@$$CBKUSMTH@GLPeriod@@@std@@@4@$0A@@std@@@std@@IAEPAU_Node@?$_Tree_nod@V?$_Tmap_traits@KUSMTH@GLPeriod@@U?$less@K@std@@V?$allocator@U?$pair@$$CBKUSMTH@GLPeriod@@@std@@@4@$0A@@std@@@2@PAU342@00ABU?$pair@$$CBKUSMTH@GLPeriod@@@2@D@Z 00430220 f i EngineLib:GLPeriod.obj
 0001:0002f270       ?_Erase@?$_Tree@V?$_Tmap_traits@KUSMTH@GLPeriod@@U?$less@K@std@@V?$allocator@U?$pair@$$CBKUSMTH@GLPeriod@@@std@@@4@$0A@@std@@@std@@IAEXPAU_Node@?$_Tree_nod@V?$_Tmap_traits@KUSMTH@GLPeriod@@U?$less@K@std@@V?$allocator@U?$pair@$$CBKUSMTH@GLPeriod@@@std@@@4@$0A@@std@@@2@@Z 00430270 f i EngineLib:GLPeriod.obj
 0001:0002f2b0       ?_Insert@?$_Tree@V?$_Tmap_traits@KUSMTH@GLPeriod@@U?$less@K@std@@V?$allocator@U?$pair@$$CBKUSMTH@GLPeriod@@@std@@@4@$0A@@std@@@std@@IAE?AViterator@12@_NPAU_Node@?$_Tree_nod@V?$_Tmap_traits@KUSMTH@GLPeriod@@U?$less@K@std@@V?$allocator@U?$pair@$$CBKUSMTH@GLPeriod@@@std@@@4@$0A@@std@@@2@ABU?$pair@$$CBKUSMTH@GLPeriod@@@2@@Z 004302b0 f i EngineLib:GLPeriod.obj
 0001:0002f470       ?erase@?$_Tree@V?$_Tmap_traits@KUSMTH@GLPeriod@@U?$less@K@std@@V?$allocator@U?$pair@$$CBKUSMTH@GLPeriod@@@std@@@4@$0A@@std@@@std@@QAE?AViterator@12@V312@@Z 00430470 f i EngineLib:GLPeriod.obj
 0001:0002f740       ??$getflag@K@CIniLoader@@QAE_NV?$basic_string@DU?$char_traits@D@std@@V?$allocator@D@2@@std@@0HHAAK@Z 00430740 f i EngineLib:GLPeriod.obj
 0001:0002f840       ?insert@?$_Tree@V?$_Tmap_traits@KUSMTH@GLPeriod@@U?$less@K@std@@V?$allocator@U?$pair@$$CBKUSMTH@GLPeriod@@@std@@@4@$0A@@std@@@std@@QAE?AU?$pair@Viterator@?$_Tree@V?$_Tmap_traits@KUSMTH@GLPeriod@@U?$less@K@std@@V?$allocator@U?$pair@$$CBKUSMTH@GLPeriod@@@std@@@4@$0A@@std@@@std@@_N@2@ABU?$pair@$$CBKUSMTH@GLPeriod@@@2@@Z 00430840 f i EngineLib:GLPeriod.obj
 0001:0002f900       ?erase@?$_Tree@V?$_Tmap_traits@KUSMTH@GLPeriod@@U?$less@K@std@@V?$allocator@U?$pair@$$CBKUSMTH@GLPeriod@@@std@@@4@$0A@@std@@@std@@QAE?AViterator@12@V312@0@Z 00430900 f i EngineLib:GLPeriod.obj
 0001:0002f9c0       ??1?$map@KUSMTH@GLPeriod@@U?$less@K@std@@V?$allocator@U?$pair@$$CBKUSMTH@GLPeriod@@@std@@@4@@std@@QAE@XZ 004309c0 f i EngineLib:GLPeriod.obj
 0001:0002f9f0       ??1GLPeriod@@QAE@XZ        004309f0 f   EngineLib:GLPeriod.obj
 0001:0002fa50       ??0GLPeriod@@IAE@XZ        00430a50 f   EngineLib:GLPeriod.obj
 0001:0002fee0       ?GetInstance@GLPeriod@@SAAAV1@XZ 00430ee0 f   EngineLib:GLPeriod.obj
 0001:0002ff40       ??0CRijndael@@QAE@XZ       00430f40 f   EngineLib:Rijndael.obj
 0001:0002ff60       ??1CRijndael@@UAE@XZ       00430f60 f   EngineLib:Rijndael.obj
 0001:0002ff70       ?Signature@CRijndael@@EAEXPAD@Z 00430f70 f   EngineLib:Rijndael.obj
 0001:00030050       ?EncryptEx@CRijndael@@QAEXPBDPADH@Z 00431050 f   EngineLib:Rijndael.obj
 0001:000300d0       ?DecryptEx@CRijndael@@QAEXPADH@Z 004310d0 f   EngineLib:Rijndael.obj
 0001:00030130       ??0runtime_error@std@@QAE@ABV?$basic_string@DU?$char_traits@D@std@@V?$allocator@D@2@@1@@Z 00431130 f i EngineLib:Rijndael.obj
 0001:00030190       ?what@runtime_error@std@@UBEPBDXZ 00431190 f i EngineLib:Rijndael.obj
 0001:000301a0       ??_Eruntime_error@std@@UAEPAXI@Z 004311a0 f i EngineLib:Rijndael.obj
 0001:000301a0       ??_Gruntime_error@std@@UAEPAXI@Z 004311a0 f i EngineLib:Rijndael.obj
 0001:000301c0       ??1runtime_error@std@@UAE@XZ 004311c0 f i EngineLib:Rijndael.obj
 0001:00030220       ??_GCRijndael@@UAEPAXI@Z   00431220 f i EngineLib:Rijndael.obj
 0001:00030220       ??_ECRijndael@@UAEPAXI@Z   00431220 f i EngineLib:Rijndael.obj
 0001:00030240       ?Initialize@CRijndael@@QAEXPBDH0HHHH@Z 00431240 f   EngineLib:Rijndael.obj
 0001:00030830       ??0runtime_error@std@@QAE@ABV01@@Z 00431830 f i EngineLib:Rijndael.obj
 0001:00030890       ?ResetChain@CRijndael@@UAEXXZ 00431890 f   EngineLib:Rijndael.obj
 0001:00030920       ?DefEncryptBlock@CRijndael@@AAEXPBDPAD@Z 00431920 f   EngineLib:Rijndael.obj
 0001:00030ce0       ?DefDecryptBlock@CRijndael@@AAEXPBDPAD@Z 00431ce0 f   EngineLib:Rijndael.obj
 0001:00031090       ?EncryptBlock@CRijndael@@AAEXPBDPAD@Z 00432090 f   EngineLib:Rijndael.obj
 0001:000313f0       ?DecryptBlock@CRijndael@@AAEXPBDPAD@Z 004323f0 f   EngineLib:Rijndael.obj
 0001:00031770       ?Encrypt@CRijndael@@UAEXPBDPADI@Z 00432770 f   EngineLib:Rijndael.obj
 0001:00031990       ?Decrypt@CRijndael@@UAEXPBDPADI@Z 00432990 f   EngineLib:Rijndael.obj
 0001:00031bd0       ?EncryptFileA@CRijndael@@UAEXABV?$basic_string@DU?$char_traits@D@std@@V?$allocator@D@2@@std@@0@Z 00432bd0 f   EngineLib:Rijndael.obj
 0001:00031f80       ?DecryptFileA@CRijndael@@UAEXABV?$basic_string@DU?$char_traits@D@std@@V?$allocator@D@2@@std@@0@Z 00432f80 f   EngineLib:Rijndael.obj
 0001:000323c0       ?decode@compbyte@@YAXPAEK@Z 004333c0 f   EngineLib:CompByte.obj
 0001:00032430       ?erase@?$_Tree@V?$_Tmap_traits@V?$basic_string@DU?$char_traits@D@std@@V?$allocator@D@2@@std@@PAUSTATICDATA@NSSTATICMESH@@U?$less@V?$basic_string@DU?$char_traits@D@std@@V?$allocator@D@2@@std@@@2@V?$allocator@U?$pair@$$CBV?$basic_string@DU?$char_traits@D@std@@V?$allocator@D@2@@std@@PAUSTATICDATA@NSSTATICMESH@@@std@@@2@$0A@@std@@@std@@QAE?AViterator@12@V312@@Z 00433430 f i EngineLib:DxStaticMesh.obj
 0001:00032710       ?_Erase@?$_Tree@V?$_Tmap_traits@V?$basic_string@DU?$char_traits@D@std@@V?$allocator@D@2@@std@@PAUSTATICDATA@NSSTATICMESH@@U?$less@V?$basic_string@DU?$char_traits@D@std@@V?$allocator@D@2@@std@@@2@V?$allocator@U?$pair@$$CBV?$basic_string@DU?$char_traits@D@std@@V?$allocator@D@2@@std@@PAUSTATICDATA@NSSTATICMESH@@@std@@@2@$0A@@std@@@std@@IAEXPAU_Node@?$_Tree_nod@V?$_Tmap_traits@V?$basic_string@DU?$char_traits@D@std@@V?$allocator@D@2@@std@@PAUSTATICDATA@NSSTATICMESH@@U?$less@V?$basic_string@DU?$char_traits@D@std@@V?$allocator@D@2@@std@@@2@V?$allocator@U?$pair@$$CBV?$basic_string@DU?$char_traits@D@std@@V?$allocator@D@2@@std@@PAUSTATICDATA@NSSTATICMESH@@@std@@@2@$0A@@std@@@2@@Z 00433710 f i EngineLib:DxStaticMesh.obj
 0001:00032750       ?erase@?$_Tree@V?$_Tmap_traits@V?$basic_string@DU?$char_traits@D@std@@V?$allocator@D@2@@std@@PAUSTATICDATA@NSSTATICMESH@@U?$less@V?$basic_string@DU?$char_traits@D@std@@V?$allocator@D@2@@std@@@2@V?$allocator@U?$pair@$$CBV?$basic_string@DU?$char_traits@D@std@@V?$allocator@D@2@@std@@PAUSTATICDATA@NSSTATICMESH@@@std@@@2@$0A@@std@@@std@@QAE?AViterator@12@V312@0@Z 00433750 f i EngineLib:DxStaticMesh.obj
 0001:00032810       ??1?$map@V?$basic_string@DU?$char_traits@D@std@@V?$allocator@D@2@@std@@PAUSTATICDATA@NSSTATICMESH@@U?$less@V?$basic_string@DU?$char_traits@D@std@@V?$allocator@D@2@@std@@@2@V?$allocator@U?$pair@$$CBV?$basic_string@DU?$char_traits@D@std@@V?$allocator@D@2@@std@@PAUSTATICDATA@NSSTATICMESH@@@std@@@2@@std@@QAE@XZ 00433810 f i EngineLib:DxStaticMesh.obj
 0001:00032840       ??0?$map@V?$basic_string@DU?$char_traits@D@std@@V?$allocator@D@2@@std@@PAUSTATICDATA@NSSTATICMESH@@U?$less@V?$basic_string@DU?$char_traits@D@std@@V?$allocator@D@2@@std@@@2@V?$allocator@U?$pair@$$CBV?$basic_string@DU?$char_traits@D@std@@V?$allocator@D@2@@std@@PAUSTATICDATA@NSSTATICMESH@@@std@@@2@@std@@QAE@XZ 00433840 f i EngineLib:DxStaticMesh.obj
 0001:00032840       ??0?$map@V?$basic_string@DU?$char_traits@D@std@@V?$allocator@D@2@@std@@KU?$less@V?$basic_string@DU?$char_traits@D@std@@V?$allocator@D@2@@std@@@2@V?$allocator@U?$pair@$$CBV?$basic_string@DU?$char_traits@D@std@@V?$allocator@D@2@@std@@K@std@@@2@@std@@QAE@XZ 00433840 f i EngineLib:TextureManager.obj
 0001:00032840       ??0?$map@V?$basic_string@DU?$char_traits@D@std@@V?$allocator@D@2@@std@@PAVTextureContainer@TextureManager@@U?$less@V?$basic_string@DU?$char_traits@D@std@@V?$allocator@D@2@@std@@@2@V?$allocator@U?$pair@$$CBV?$basic_string@DU?$char_traits@D@std@@V?$allocator@D@2@@std@@PAVTextureContainer@TextureManager@@@std@@@2@@std@@QAE@XZ 00433840 f i EngineLib:TextureManager.obj
 0001:00032870       ??0CMemoryTexture@@QAE@XZ  00433870 f   EngineLib:MemoryTexture.obj
 0001:00032880       ??1?$acCArray@D@@QAE@XZ    00433880 f   NetClientLib:minTea.obj
 0001:00032880       ??1CMemoryTexture@@QAE@XZ  00433880 f   EngineLib:MemoryTexture.obj
 0001:000328a0       ?DecryptTexture@CMemoryTexture@@QAE_NPAU_iobuf@@@Z 004338a0 f   EngineLib:MemoryTexture.obj
 0001:00032990       ?LoadFileDec@CMemoryTexture@@QAE_NPBD@Z 00433990 f   EngineLib:MemoryTexture.obj
 0001:00032a00       ??1?$pair@$$CBV?$basic_string@DU?$char_traits@D@std@@V?$allocator@D@2@@std@@V12@@std@@QAE@XZ 00433a00 f i EngineLib:CFileFind.obj
 0001:00032a50       ?_Max@?$_Tree@V?$_Tmap_traits@V?$basic_string@DU?$char_traits@D@std@@V?$allocator@D@2@@std@@V12@U?$less@V?$basic_string@DU?$char_traits@D@std@@V?$allocator@D@2@@std@@@2@V?$allocator@U?$pair@$$CBV?$basic_string@DU?$char_traits@D@std@@V?$allocator@D@2@@std@@V12@@std@@@2@$0A@@std@@@std@@KAPAU_Node@?$_Tree_nod@V?$_Tmap_traits@V?$basic_string@DU?$char_traits@D@std@@V?$allocator@D@2@@std@@V12@U?$less@V?$basic_string@DU?$char_traits@D@std@@V?$allocator@D@2@@std@@@2@V?$allocator@U?$pair@$$CBV?$basic_string@DU?$char_traits@D@std@@V?$allocator@D@2@@std@@V12@@std@@@2@$0A@@std@@@2@PAU342@@Z 00433a50 f i EngineLib:CFileFind.obj
 0001:00032a70       ?_Min@?$_Tree@V?$_Tmap_traits@V?$basic_string@DU?$char_traits@D@std@@V?$allocator@D@2@@std@@V12@U?$less@V?$basic_string@DU?$char_traits@D@std@@V?$allocator@D@2@@std@@@2@V?$allocator@U?$pair@$$CBV?$basic_string@DU?$char_traits@D@std@@V?$allocator@D@2@@std@@V12@@std@@@2@$0A@@std@@@std@@KAPAU_Node@?$_Tree_nod@V?$_Tmap_traits@V?$basic_string@DU?$char_traits@D@std@@V?$allocator@D@2@@std@@V12@U?$less@V?$basic_string@DU?$char_traits@D@std@@V?$allocator@D@2@@std@@@2@V?$allocator@U?$pair@$$CBV?$basic_string@DU?$char_traits@D@std@@V?$allocator@D@2@@std@@V12@@std@@@2@$0A@@std@@@2@PAU342@@Z 00433a70 f i EngineLib:CFileFind.obj
 0001:00032a90       ?_Inc@const_iterator@?$_Tree@V?$_Tmap_traits@V?$basic_string@DU?$char_traits@D@std@@V?$allocator@D@2@@std@@V12@U?$less@V?$basic_string@DU?$char_traits@D@std@@V?$allocator@D@2@@std@@@2@V?$allocator@U?$pair@$$CBV?$basic_string@DU?$char_traits@D@std@@V?$allocator@D@2@@std@@V12@@std@@@2@$0A@@std@@@std@@QAEXXZ 00433a90 f i EngineLib:CFileFind.obj
 0001:00032af0       ??1_Node@?$_Tree_nod@V?$_Tmap_traits@V?$basic_string@DU?$char_traits@D@std@@V?$allocator@D@2@@std@@V12@U?$less@V?$basic_string@DU?$char_traits@D@std@@V?$allocator@D@2@@std@@@2@V?$allocator@U?$pair@$$CBV?$basic_string@DU?$char_traits@D@std@@V?$allocator@D@2@@std@@V12@@std@@@2@$0A@@std@@@std@@QAE@XZ 00433af0 f i EngineLib:CFileFind.obj
 0001:00032b00       ?_Lbound@?$_Tree@V?$_Tmap_traits@V?$basic_string@DU?$char_traits@D@std@@V?$allocator@D@2@@std@@V12@U?$less@V?$basic_string@DU?$char_traits@D@std@@V?$allocator@D@2@@std@@@2@V?$allocator@U?$pair@$$CBV?$basic_string@DU?$char_traits@D@std@@V?$allocator@D@2@@std@@V12@@std@@@2@$0A@@std@@@std@@IBEPAU_Node@?$_Tree_nod@V?$_Tmap_traits@V?$basic_string@DU?$char_traits@D@std@@V?$allocator@D@2@@std@@V12@U?$less@V?$basic_string@DU?$char_traits@D@std@@V?$allocator@D@2@@std@@@2@V?$allocator@U?$pair@$$CBV?$basic_string@DU?$char_traits@D@std@@V?$allocator@D@2@@std@@V12@@std@@@2@$0A@@std@@@2@ABV?$basic_string@DU?$char_traits@D@std@@V?$allocator@D@2@@2@@Z 00433b00 f i EngineLib:CFileFind.obj
 0001:00032b50       ?_Lrotate@?$_Tree@V?$_Tmap_traits@V?$basic_string@DU?$char_traits@D@std@@V?$allocator@D@2@@std@@V12@U?$less@V?$basic_string@DU?$char_traits@D@std@@V?$allocator@D@2@@std@@@2@V?$allocator@U?$pair@$$CBV?$basic_string@DU?$char_traits@D@std@@V?$allocator@D@2@@std@@V12@@std@@@2@$0A@@std@@@std@@IAEXPAU_Node@?$_Tree_nod@V?$_Tmap_traits@V?$basic_string@DU?$char_traits@D@std@@V?$allocator@D@2@@std@@V12@U?$less@V?$basic_string@DU?$char_traits@D@std@@V?$allocator@D@2@@std@@@2@V?$allocator@U?$pair@$$CBV?$basic_string@DU?$char_traits@D@std@@V?$allocator@D@2@@std@@V12@@std@@@2@$0A@@std@@@2@@Z 00433b50 f i EngineLib:CFileFind.obj
 0001:00032bb0       ?_Rrotate@?$_Tree@V?$_Tmap_traits@V?$basic_string@DU?$char_traits@D@std@@V?$allocator@D@2@@std@@V12@U?$less@V?$basic_string@DU?$char_traits@D@std@@V?$allocator@D@2@@std@@@2@V?$allocator@U?$pair@$$CBV?$basic_string@DU?$char_traits@D@std@@V?$allocator@D@2@@std@@V12@@std@@@2@$0A@@std@@@std@@IAEXPAU_Node@?$_Tree_nod@V?$_Tmap_traits@V?$basic_string@DU?$char_traits@D@std@@V?$allocator@D@2@@std@@V12@U?$less@V?$basic_string@DU?$char_traits@D@std@@V?$allocator@D@2@@std@@@2@V?$allocator@U?$pair@$$CBV?$basic_string@DU?$char_traits@D@std@@V?$allocator@D@2@@std@@V12@@std@@@2@$0A@@std@@@2@@Z 00433bb0 f i EngineLib:CFileFind.obj
 0001:00032c10       ?_Buynode@?$_Tree@V?$_Tmap_traits@V?$basic_string@DU?$char_traits@D@std@@V?$allocator@D@2@@std@@V12@U?$less@V?$basic_string@DU?$char_traits@D@std@@V?$allocator@D@2@@std@@@2@V?$allocator@U?$pair@$$CBV?$basic_string@DU?$char_traits@D@std@@V?$allocator@D@2@@std@@V12@@std@@@2@$0A@@std@@@std@@IAEPAU_Node@?$_Tree_nod@V?$_Tmap_traits@V?$basic_string@DU?$char_traits@D@std@@V?$allocator@D@2@@std@@V12@U?$less@V?$basic_string@DU?$char_traits@D@std@@V?$allocator@D@2@@std@@@2@V?$allocator@U?$pair@$$CBV?$basic_string@DU?$char_traits@D@std@@V?$allocator@D@2@@std@@V12@@std@@@2@$0A@@std@@@2@XZ 00433c10 f i EngineLib:CFileFind.obj
 0001:00032c50       ?find@?$_Tree@V?$_Tmap_traits@V?$basic_string@DU?$char_traits@D@std@@V?$allocator@D@2@@std@@V12@U?$less@V?$basic_string@DU?$char_traits@D@std@@V?$allocator@D@2@@std@@@2@V?$allocator@U?$pair@$$CBV?$basic_string@DU?$char_traits@D@std@@V?$allocator@D@2@@std@@V12@@std@@@2@$0A@@std@@@std@@QAE?AViterator@12@ABV?$basic_string@DU?$char_traits@D@std@@V?$allocator@D@2@@2@@Z 00433c50 f i EngineLib:CFileFind.obj
 0001:00032cb0       ?erase@?$_Tree@V?$_Tmap_traits@V?$basic_string@DU?$char_traits@D@std@@V?$allocator@D@2@@std@@V12@U?$less@V?$basic_string@DU?$char_traits@D@std@@V?$allocator@D@2@@std@@@2@V?$allocator@U?$pair@$$CBV?$basic_string@DU?$char_traits@D@std@@V?$allocator@D@2@@std@@V12@@std@@@2@$0A@@std@@@std@@QAE?AViterator@12@V312@@Z 00433cb0 f i EngineLib:CFileFind.obj
 0001:00032fb0       ?FindPathName@CFileFindTree@@QAEPAV?$basic_string@DU?$char_traits@D@std@@V?$allocator@D@2@@std@@AAV23@@Z 00433fb0 f   EngineLib:CFileFind.obj
 0001:00032fe0       ?_Erase@?$_Tree@V?$_Tmap_traits@V?$basic_string@DU?$char_traits@D@std@@V?$allocator@D@2@@std@@V12@U?$less@V?$basic_string@DU?$char_traits@D@std@@V?$allocator@D@2@@std@@@2@V?$allocator@U?$pair@$$CBV?$basic_string@DU?$char_traits@D@std@@V?$allocator@D@2@@std@@V12@@std@@@2@$0A@@std@@@std@@IAEXPAU_Node@?$_Tree_nod@V?$_Tmap_traits@V?$basic_string@DU?$char_traits@D@std@@V?$allocator@D@2@@std@@V12@U?$less@V?$basic_string@DU?$char_traits@D@std@@V?$allocator@D@2@@std@@@2@V?$allocator@U?$pair@$$CBV?$basic_string@DU?$char_traits@D@std@@V?$allocator@D@2@@std@@V12@@std@@@2@$0A@@std@@@2@@Z 00433fe0 f i EngineLib:CFileFind.obj
 0001:00033020       ?erase@?$_Tree@V?$_Tmap_traits@V?$basic_string@DU?$char_traits@D@std@@V?$allocator@D@2@@std@@V12@U?$less@V?$basic_string@DU?$char_traits@D@std@@V?$allocator@D@2@@std@@@2@V?$allocator@U?$pair@$$CBV?$basic_string@DU?$char_traits@D@std@@V?$allocator@D@2@@std@@V12@@std@@@2@$0A@@std@@@std@@QAE?AViterator@12@V312@0@Z 00434020 f i EngineLib:CFileFind.obj
 0001:000330e0       ??1CFileFindTree@@QAE@XZ   004340e0 f   EngineLib:CFileFind.obj
 0001:00033160       ??0CFileFindTree@@QAE@XZ   00434160 f   EngineLib:CFileFind.obj
 0001:000331d0       ?_Max@?$_Tree@V?$_Tmap_traits@KUIDFACE@@U?$less@K@std@@V?$allocator@U?$pair@$$CBKUIDFACE@@@std@@@3@$00@std@@@std@@KAPAU_Node@?$_Tree_nod@V?$_Tmap_traits@KUIDFACE@@U?$less@K@std@@V?$allocator@U?$pair@$$CBKUIDFACE@@@std@@@3@$00@std@@@2@PAU342@@Z 004341d0 f i EngineLib:NsSMeshSceneGraph.obj
 0001:000331f0       ?_Min@?$_Tree@V?$_Tmap_traits@KUIDFACE@@U?$less@K@std@@V?$allocator@U?$pair@$$CBKUIDFACE@@@std@@@3@$00@std@@@std@@KAPAU_Node@?$_Tree_nod@V?$_Tmap_traits@KUIDFACE@@U?$less@K@std@@V?$allocator@U?$pair@$$CBKUIDFACE@@@std@@@3@$00@std@@@2@PAU342@@Z 004341f0 f i EngineLib:NsSMeshSceneGraph.obj
 0001:00033210       ?_Inc@const_iterator@?$_Tree@V?$_Tmap_traits@KUIDFACE@@U?$less@K@std@@V?$allocator@U?$pair@$$CBKUIDFACE@@@std@@@3@$00@std@@@std@@QAEXXZ 00434210 f i EngineLib:NsSMeshSceneGraph.obj
 0001:00033270       ?_Lrotate@?$_Tree@V?$_Tmap_traits@KUIDFACE@@U?$less@K@std@@V?$allocator@U?$pair@$$CBKUIDFACE@@@std@@@3@$00@std@@@std@@IAEXPAU_Node@?$_Tree_nod@V?$_Tmap_traits@KUIDFACE@@U?$less@K@std@@V?$allocator@U?$pair@$$CBKUIDFACE@@@std@@@3@$00@std@@@2@@Z 00434270 f i EngineLib:NsSMeshSceneGraph.obj
 0001:000332d0       ?_Rrotate@?$_Tree@V?$_Tmap_traits@KUIDFACE@@U?$less@K@std@@V?$allocator@U?$pair@$$CBKUIDFACE@@@std@@@3@$00@std@@@std@@IAEXPAU_Node@?$_Tree_nod@V?$_Tmap_traits@KUIDFACE@@U?$less@K@std@@V?$allocator@U?$pair@$$CBKUIDFACE@@@std@@@3@$00@std@@@2@@Z 004342d0 f i EngineLib:NsSMeshSceneGraph.obj
 0001:00033330       ?_Lrotate@?$_Tree@V?$_Tmap_traits@KKU?$less@K@std@@V?$allocator@U?$pair@$$CBKK@std@@@2@$00@std@@@std@@IAEXPAU_Node@?$_Tree_nod@V?$_Tmap_traits@KKU?$less@K@std@@V?$allocator@U?$pair@$$CBKK@std@@@2@$00@std@@@2@@Z 00434330 f i EngineLib:NsSMeshSceneGraph.obj
 0001:00033330       ?_Lrotate@?$_Tree@V?$_Tmap_traits@KUOBJQUADTemp@@U?$less@K@std@@V?$allocator@U?$pair@$$CBKUOBJQUADTemp@@@std@@@3@$0A@@std@@@std@@IAEXPAU_Node@?$_Tree_nod@V?$_Tmap_traits@KUOBJQUADTemp@@U?$less@K@std@@V?$allocator@U?$pair@$$CBKUOBJQUADTemp@@@std@@@3@$0A@@std@@@2@@Z 00434330 f i EngineLib:DxMapEditManThread.obj
 0001:00033330       ?_Lrotate@?$_Tree@V?$_Tmap_traits@MPAVDXLIGHT@@U?$less@M@std@@V?$allocator@U?$pair@$$CBMPAVDXLIGHT@@@std@@@3@$00@std@@@std@@IAEXPAU_Node@?$_Tree_nod@V?$_Tmap_traits@MPAVDXLIGHT@@U?$less@M@std@@V?$allocator@U?$pair@$$CBMPAVDXLIGHT@@@std@@@3@$00@std@@@2@@Z 00434330 f i EngineLib:DxLightMan.obj
 0001:00033390       ?_Erase@?$_Tree@V?$_Tmap_traits@KUIDFACE@@U?$less@K@std@@V?$allocator@U?$pair@$$CBKUIDFACE@@@std@@@3@$00@std@@@std@@IAEXPAU_Node@?$_Tree_nod@V?$_Tmap_traits@KUIDFACE@@U?$less@K@std@@V?$allocator@U?$pair@$$CBKUIDFACE@@@std@@@3@$00@std@@@2@@Z 00434390 f i EngineLib:NsSMeshSceneGraph.obj
 0001:000333d0       ?_Erase@?$_Tree@V?$_Tmap_traits@KKU?$less@K@std@@V?$allocator@U?$pair@$$CBKK@std@@@2@$00@std@@@std@@IAEXPAU_Node@?$_Tree_nod@V?$_Tmap_traits@KKU?$less@K@std@@V?$allocator@U?$pair@$$CBKK@std@@@2@$00@std@@@2@@Z 004343d0 f i EngineLib:NsSMeshSceneGraph.obj
 0001:00033410       ?_Erase@?$_Tree@V?$_Tmap_traits@KUCOUNTVERTEXFACE@NSCHARSG@@U?$less@K@std@@V?$allocator@U?$pair@$$CBKUCOUNTVERTEXFACE@NSCHARSG@@@std@@@4@$0A@@std@@@std@@IAEXPAU_Node@?$_Tree_nod@V?$_Tmap_traits@KUCOUNTVERTEXFACE@NSCHARSG@@U?$less@K@std@@V?$allocator@U?$pair@$$CBKUCOUNTVERTEXFACE@NSCHARSG@@@std@@@4@$0A@@std@@@2@@Z 00434410 f i EngineLib:NsSMeshSceneGraph.obj
 0001:00033450       ?_Buynode@?$_Tree@V?$_Tmap_traits@KUIDFACE@@U?$less@K@std@@V?$allocator@U?$pair@$$CBKUIDFACE@@@std@@@3@$00@std@@@std@@IAEPAU_Node@?$_Tree_nod@V?$_Tmap_traits@KUIDFACE@@U?$less@K@std@@V?$allocator@U?$pair@$$CBKUIDFACE@@@std@@@3@$00@std@@@2@XZ 00434450 f i EngineLib:NsSMeshSceneGraph.obj
 0001:00033490       ?_Buynode@?$_Tree@V?$_Tmap_traits@KKU?$less@K@std@@V?$allocator@U?$pair@$$CBKK@std@@@2@$00@std@@@std@@IAEPAU_Node@?$_Tree_nod@V?$_Tmap_traits@KKU?$less@K@std@@V?$allocator@U?$pair@$$CBKK@std@@@2@$00@std@@@2@XZ 00434490 f i EngineLib:NsSMeshSceneGraph.obj
 0001:00033490       ?_Buynode@?$_Tree@V?$_Tmap_traits@KUOBJQUADTemp@@U?$less@K@std@@V?$allocator@U?$pair@$$CBKUOBJQUADTemp@@@std@@@3@$0A@@std@@@std@@IAEPAU_Node@?$_Tree_nod@V?$_Tmap_traits@KUOBJQUADTemp@@U?$less@K@std@@V?$allocator@U?$pair@$$CBKUOBJQUADTemp@@@std@@@3@$0A@@std@@@2@XZ 00434490 f i EngineLib:DxQUADTree.obj
 0001:00033490       ?_Buynode@?$_Tree@V?$_Tmap_traits@MPAVDXLIGHT@@U?$less@M@std@@V?$allocator@U?$pair@$$CBMPAVDXLIGHT@@@std@@@3@$00@std@@@std@@IAEPAU_Node@?$_Tree_nod@V?$_Tmap_traits@MPAVDXLIGHT@@U?$less@M@std@@V?$allocator@U?$pair@$$CBMPAVDXLIGHT@@@std@@@3@$00@std@@@2@XZ 00434490 f i EngineLib:DxLightMan.obj
 0001:000334d0       ?_Buynode@?$_Tree@V?$_Tmap_traits@KUSMTH@GLPeriod@@U?$less@K@std@@V?$allocator@U?$pair@$$CBKUSMTH@GLPeriod@@@std@@@4@$0A@@std@@@std@@IAEPAU_Node@?$_Tree_nod@V?$_Tmap_traits@KUSMTH@GLPeriod@@U?$less@K@std@@V?$allocator@U?$pair@$$CBKUSMTH@GLPeriod@@@std@@@4@$0A@@std@@@2@XZ 004344d0 f i EngineLib:GLPeriod.obj
 0001:000334d0       ?_Buynode@?$_Tree@V?$_Tmap_traits@KUCOUNTVERTEXFACE@NSCHARSG@@U?$less@K@std@@V?$allocator@U?$pair@$$CBKUCOUNTVERTEXFACE@NSCHARSG@@@std@@@4@$0A@@std@@@std@@IAEPAU_Node@?$_Tree_nod@V?$_Tmap_traits@KUCOUNTVERTEXFACE@NSCHARSG@@U?$less@K@std@@V?$allocator@U?$pair@$$CBKUCOUNTVERTEXFACE@NSCHARSG@@@std@@@4@$0A@@std@@@2@XZ 004344d0 f i EngineLib:NsSMeshSceneGraph.obj
 0001:00033510       ??$for_each@Viterator@?$vector@PAUAttributeIB@@V?$allocator@PAUAttributeIB@@@std@@@std@@UDeleteObject@std_afunc@@@std@@YA?AUDeleteObject@std_afunc@@Viterator@?$vector@PAUAttributeIB@@V?$allocator@PAUAttributeIB@@@std@@@0@0U12@@Z 00434510 f i EngineLib:NsSMeshSceneGraph.obj
 0001:00033550       ?erase@?$_Tree@V?$_Tmap_traits@KUCOUNTVERTEXFACE@NSCHARSG@@U?$less@K@std@@V?$allocator@U?$pair@$$CBKUCOUNTVERTEXFACE@NSCHARSG@@@std@@@4@$0A@@std@@@std@@QAE?AViterator@12@V312@@Z 00434550 f i EngineLib:NsSMeshSceneGraph.obj
 0001:00033820       ?find@?$_Tree@V?$_Tmap_traits@KUCOUNTVERTEXFACE@NSCHARSG@@U?$less@K@std@@V?$allocator@U?$pair@$$CBKUCOUNTVERTEXFACE@NSCHARSG@@@std@@@4@$0A@@std@@@std@@QAE?AViterator@12@ABK@Z 00434820 f i EngineLib:NsSMeshSceneGraph.obj
 0001:00033890       ?erase@?$_Tree@V?$_Tmap_traits@KUCOUNTVERTEXFACE@NSCHARSG@@U?$less@K@std@@V?$allocator@U?$pair@$$CBKUCOUNTVERTEXFACE@NSCHARSG@@@std@@@4@$0A@@std@@@std@@QAE?AViterator@12@V312@0@Z 00434890 f i EngineLib:NsSMeshSceneGraph.obj
 0001:00033950       ?erase@?$_Tree@V?$_Tmap_traits@KUIDFACE@@U?$less@K@std@@V?$allocator@U?$pair@$$CBKUIDFACE@@@std@@@3@$00@std@@@std@@QAE?AViterator@12@V312@@Z 00434950 f i EngineLib:NsSMeshSceneGraph.obj
 0001:00033c20       ?erase@?$_Tree@V?$_Tmap_traits@KKU?$less@K@std@@V?$allocator@U?$pair@$$CBKK@std@@@2@$00@std@@@std@@QAE?AViterator@12@V312@@Z 00434c20 f i EngineLib:NsSMeshSceneGraph.obj
 0001:00033ef0       ?ReleaseTexture@NSCHARSG@@YAXK@Z 00434ef0 f   EngineLib:NsSMeshSceneGraph.obj
 0001:00033f30       ?erase@?$_Tree@V?$_Tmap_traits@KUIDFACE@@U?$less@K@std@@V?$allocator@U?$pair@$$CBKUIDFACE@@@std@@@3@$00@std@@@std@@QAE?AViterator@12@V312@0@Z 00434f30 f i EngineLib:NsSMeshSceneGraph.obj
 0001:00033ff0       ?erase@?$_Tree@V?$_Tmap_traits@KKU?$less@K@std@@V?$allocator@U?$pair@$$CBKK@std@@@2@$00@std@@@std@@QAE?AViterator@12@V312@0@Z 00434ff0 f i EngineLib:NsSMeshSceneGraph.obj
 0001:000340b0       ?CleanUp@DxDynamicMesh@@AAEXXZ 004350b0 f   EngineLib:NsSMeshSceneGraph.obj
 0001:00034100       ??1DxDynamicMesh@@QAE@XZ   00435100 f   EngineLib:NsSMeshSceneGraph.obj
 0001:00034160       ??1?$map@KUCOUNTVERTEXFACE@NSCHARSG@@U?$less@K@std@@V?$allocator@U?$pair@$$CBKUCOUNTVERTEXFACE@NSCHARSG@@@std@@@4@@std@@QAE@XZ 00435160 f i EngineLib:NsSMeshSceneGraph.obj
 0001:00034190       ??0?$map@KUCOUNTVERTEXFACE@NSCHARSG@@U?$less@K@std@@V?$allocator@U?$pair@$$CBKUCOUNTVERTEXFACE@NSCHARSG@@@std@@@4@@std@@QAE@XZ 00435190 f i EngineLib:NsSMeshSceneGraph.obj
 0001:000341c0       ??1?$multimap@KKU?$less@K@std@@V?$allocator@U?$pair@$$CBKK@std@@@2@@std@@QAE@XZ 004351c0 f i EngineLib:NsSMeshSceneGraph.obj
 0001:000341f0       ??1?$multimap@KUIDFACE@@U?$less@K@std@@V?$allocator@U?$pair@$$CBKUIDFACE@@@std@@@3@@std@@QAE@XZ 004351f0 f i EngineLib:NsSMeshSceneGraph.obj
 0001:00034220       ??0?$multimap@KUIDFACE@@U?$less@K@std@@V?$allocator@U?$pair@$$CBKUIDFACE@@@std@@@3@@std@@QAE@XZ 00435220 f i EngineLib:NsSMeshSceneGraph.obj
 0001:00034250       ??0SMeshDynamicRenderMan@@QAE@XZ 00435250 f   EngineLib:NsSMeshSceneGraph.obj
 0001:000342c0       ??$for_each@Viterator@?$vector@PAVDxDynamicMesh@@V?$allocator@PAVDxDynamicMesh@@@std@@@std@@UDeleteObject@std_afunc@@@std@@YA?AUDeleteObject@std_afunc@@Viterator@?$vector@PAVDxDynamicMesh@@V?$allocator@PAVDxDynamicMesh@@@std@@@0@0U12@@Z 004352c0 f i EngineLib:NsSMeshSceneGraph.obj
 0001:00034300       ??1SMeshDynamicRenderMan@@QAE@XZ 00435300 f   EngineLib:NsSMeshSceneGraph.obj
 0001:000343c0       ??1DxEffectRain@@UAE@XZ    004353c0 f   EngineLib:DxWeatherManEx.obj
 0001:00034440       ?DeleteDeviceObjects@DxEffectRain@@QAEJXZ 00435440 f   EngineLib:DxWeatherManEx.obj
 0001:00034510       ?StopSound@DxEffectRain@@QAEJXZ 00435510 f   EngineLib:DxWeatherManEx.obj
 0001:00034590       ??1DxEffectCloud@@UAE@XZ   00435590 f   EngineLib:DxWeatherManEx.obj
 0001:000345a0       ??0DxEffectRain@@QAE@XZ    004355a0 f   EngineLib:DxWeatherManEx.obj
 0001:00034630       ??_GDxEffectRain@@UAEPAXI@Z 00435630 f i EngineLib:DxWeatherManEx.obj
 0001:00034630       ??_EDxEffectRain@@UAEPAXI@Z 00435630 f i EngineLib:DxWeatherManEx.obj
 0001:00034650       ?FrameMove@DxEffectRain@@QAEJMUD3DXVECTOR3@@MH@Z 00435650 f   EngineLib:DxWeatherManEx.obj
 0001:00034e30       ?Render@DxEffectRain@@QAEJPAUIDirect3DDevice9@@@Z 00435e30 f   EngineLib:DxWeatherManEx.obj
 0001:00035130       ??_GDxEffectCloud@@UAEPAXI@Z 00436130 f i EngineLib:DxWeatherManEx.obj
 0001:00035130       ??_EDxEffectCloud@@UAEPAXI@Z 00436130 f i EngineLib:DxWeatherManEx.obj
 0001:00035150       ?InitDeviceObjects@DxEffectRain@@QAEJPAUIDirect3DDevice9@@UD3DXVECTOR3@@M@Z 00436150 f   EngineLib:DxWeatherManEx.obj
 0001:000358f0       ??0DxEffectCloud@@QAE@XZ   004368f0 f   EngineLib:DxWeatherManEx.obj
 0001:00035960       ??0DxEffectSnow@@QAE@XZ    00436960 f   EngineLib:DxWeatherManSnow.obj
 0001:00035980       ??1DxEffectSnow@@UAE@XZ    00436980 f   EngineLib:DxWeatherManSnow.obj
 0001:00035990       ?FrameMove@DxEffectSnow@@QAEJMUD3DXVECTOR3@@MH@Z 00436990 f   EngineLib:DxWeatherManSnow.obj
 0001:00035a70       ??0DxEffectLeaves@@QAE@XZ  00436a70 f   EngineLib:DxWeatherManSnow.obj
 0001:00035a90       ??1DxEffectLeaves@@UAE@XZ  00436a90 f   EngineLib:DxWeatherManSnow.obj
 0001:00035aa0       ?FrameMove@DxEffectLeaves@@QAEJMUD3DXVECTOR3@@MH@Z 00436aa0 f   EngineLib:DxWeatherManSnow.obj
 0001:00035b80       ??_GDxEffectSnow@@UAEPAXI@Z 00436b80 f i EngineLib:DxWeatherManSnow.obj
 0001:00035b80       ??_EDxEffectSnow@@UAEPAXI@Z 00436b80 f i EngineLib:DxWeatherManSnow.obj
 0001:00035ba0       ??_EDxEffectLeaves@@UAEPAXI@Z 00436ba0 f i EngineLib:DxWeatherManSnow.obj
 0001:00035ba0       ??_GDxEffectLeaves@@UAEPAXI@Z 00436ba0 f i EngineLib:DxWeatherManSnow.obj
 0001:00035bc0       ?IsNotes@CIniLoader@@AAE_NABV?$CStringT@DV?$StrTraitMFC_DLL@DV?$ChTraitsCRT@D@ATL@@@@@ATL@@@Z 00436bc0 f   EngineLib:IniLoader.obj
 0001:00035c10       ?IsSection@CIniLoader@@AAE_NABV?$CStringT@DV?$StrTraitMFC_DLL@DV?$ChTraitsCRT@D@ATL@@@@@ATL@@AAV?$basic_string@DU?$char_traits@D@std@@V?$allocator@D@2@@std@@@Z 00436c10 f   EngineLib:IniLoader.obj
 0001:00035d10       ?findfirstof@CIniLoader@@AAEHABV?$basic_string@DU?$char_traits@D@std@@V?$allocator@D@2@@std@@0I@Z 00436d10 f   EngineLib:IniLoader.obj
 0001:00035d90       ??1?$auto_ptr@VCBaseString@@@std@@QAE@XZ 00436d90 f i EngineLib:IniLoader.obj
 0001:00035da0       ?advquoted@CIniLoader@@AAEHABV?$basic_string@DU?$char_traits@D@std@@V?$allocator@D@2@@std@@AAV23@I@Z 00436da0 f   EngineLib:IniLoader.obj
 0001:00035e70       ?advplain@CIniLoader@@AAEHABV?$basic_string@DU?$char_traits@D@std@@V?$allocator@D@2@@std@@AAV23@I@Z 00436e70 f   EngineLib:IniLoader.obj
 0001:00035f00       ?_Rrotate@?$_Tree@V?$_Tmap_traits@V?$basic_string@DU?$char_traits@D@std@@V?$allocator@D@2@@std@@PAV?$vector@V?$basic_string@DU?$char_traits@D@std@@V?$allocator@D@2@@std@@V?$allocator@V?$basic_string@DU?$char_traits@D@std@@V?$allocator@D@2@@std@@@2@@2@U?$less@V?$basic_string@DU?$char_traits@D@std@@V?$allocator@D@2@@std@@@2@V?$allocator@U?$pair@$$CBV?$basic_string@DU?$char_traits@D@std@@V?$allocator@D@2@@std@@PAV?$vector@V?$basic_string@DU?$char_traits@D@std@@V?$allocator@D@2@@std@@V?$allocator@V?$basic_string@DU?$char_traits@D@std@@V?$allocator@D@2@@std@@@2@@2@@std@@@2@$00@std@@@std@@IAEXPAU_Node@?$_Tree_nod@V?$_Tmap_traits@V?$basic_string@DU?$char_traits@D@std@@V?$allocator@D@2@@std@@PAV?$vector@V?$basic_string@DU?$char_traits@D@std@@V?$allocator@D@2@@std@@V?$allocator@V?$basic_string@DU?$char_traits@D@std@@V?$allocator@D@2@@std@@@2@@2@U?$less@V?$basic_string@DU?$char_traits@D@std@@V?$allocator@D@2@@std@@@2@V?$allocator@U?$pair@$$CBV?$basic_string@DU?$char_traits@D@std@@V?$allocator@D@2@@std@@PAV?$vector@V?$basic_string@DU?$char_traits@D@std@@V?$allocator@D@2@@std@@V?$allocator@V?$basic_string@DU?$char_traits@D@std@@V?$allocator@D@2@@std@@@2@@2@@std@@@2@$00@std@@@2@@Z 00436f00 f i EngineLib:IniLoader.obj
 0001:00035f00       ?_Rrotate@?$_Tree@V?$_Tmap_traits@V?$basic_string@DU?$char_traits@D@std@@V?$allocator@D@2@@std@@PAUSFILENODE@@U?$less@V?$basic_string@DU?$char_traits@D@std@@V?$allocator@D@2@@std@@@2@V?$allocator@U?$pair@$$CBV?$basic_string@DU?$char_traits@D@std@@V?$allocator@D@2@@std@@PAUSFILENODE@@@std@@@2@$0A@@std@@@std@@IAEXPAU_Node@?$_Tree_nod@V?$_Tmap_traits@V?$basic_string@DU?$char_traits@D@std@@V?$allocator@D@2@@std@@PAUSFILENODE@@U?$less@V?$basic_string@DU?$char_traits@D@std@@V?$allocator@D@2@@std@@@2@V?$allocator@U?$pair@$$CBV?$basic_string@DU?$char_traits@D@std@@V?$allocator@D@2@@std@@PAUSFILENODE@@@std@@@2@$0A@@std@@@2@@Z 00436f00 f i AutoPatchThread.obj
 0001:00035f00       ?_Rrotate@?$_Tree@V?$_Tmap_traits@V?$basic_string@DU?$char_traits@D@std@@V?$allocator@D@2@@std@@PAVTextureContainer@TextureManager@@U?$less@V?$basic_string@DU?$char_traits@D@std@@V?$allocator@D@2@@std@@@2@V?$allocator@U?$pair@$$CBV?$basic_string@DU?$char_traits@D@std@@V?$allocator@D@2@@std@@PAVTextureContainer@TextureManager@@@std@@@2@$0A@@std@@@std@@IAEXPAU_Node@?$_Tree_nod@V?$_Tmap_traits@V?$basic_string@DU?$char_traits@D@std@@V?$allocator@D@2@@std@@PAVTextureContainer@TextureManager@@U?$less@V?$basic_string@DU?$char_traits@D@std@@V?$allocator@D@2@@std@@@2@V?$allocator@U?$pair@$$CBV?$basic_string@DU?$char_traits@D@std@@V?$allocator@D@2@@std@@PAVTextureContainer@TextureManager@@@std@@@2@$0A@@std@@@2@@Z 00436f00 f i EngineLib:TextureManager.obj
 0001:00035f00       ?_Rrotate@?$_Tree@V?$_Tmap_traits@V?$basic_string@DU?$char_traits@D@std@@V?$allocator@D@2@@std@@PAVCStringArray@@U?$less@V?$basic_string@DU?$char_traits@D@std@@V?$allocator@D@2@@std@@@2@V?$allocator@U?$pair@$$CBV?$basic_string@DU?$char_traits@D@std@@V?$allocator@D@2@@std@@PAVCStringArray@@@std@@@2@$0A@@std@@@std@@IAEXPAU_Node@?$_Tree_nod@V?$_Tmap_traits@V?$basic_string@DU?$char_traits@D@std@@V?$allocator@D@2@@std@@PAVCStringArray@@U?$less@V?$basic_string@DU?$char_traits@D@std@@V?$allocator@D@2@@std@@@2@V?$allocator@U?$pair@$$CBV?$basic_string@DU?$char_traits@D@std@@V?$allocator@D@2@@std@@PAVCStringArray@@@std@@@2@$0A@@std@@@2@@Z 00436f00 f i LauncherText.obj
 0001:00035f00       ?_Rrotate@?$_Tree@V?$_Tmap_traits@V?$basic_string@DU?$char_traits@D@std@@V?$allocator@D@2@@std@@PAUSTATICDATA@NSSTATICMESH@@U?$less@V?$basic_string@DU?$char_traits@D@std@@V?$allocator@D@2@@std@@@2@V?$allocator@U?$pair@$$CBV?$basic_string@DU?$char_traits@D@std@@V?$allocator@D@2@@std@@PAUSTATICDATA@NSSTATICMESH@@@std@@@2@$0A@@std@@@std@@IAEXPAU_Node@?$_Tree_nod@V?$_Tmap_traits@V?$basic_string@DU?$char_traits@D@std@@V?$allocator@D@2@@std@@PAUSTATICDATA@NSSTATICMESH@@U?$less@V?$basic_string@DU?$char_traits@D@std@@V?$allocator@D@2@@std@@@2@V?$allocator@U?$pair@$$CBV?$basic_string@DU?$char_traits@D@std@@V?$allocator@D@2@@std@@PAUSTATICDATA@NSSTATICMESH@@@std@@@2@$0A@@std@@@2@@Z 00436f00 f i EngineLib:DxStaticMesh.obj
 0001:00035f00       ?_Rrotate@?$_Tree@V?$_Tmap_traits@V?$basic_string@DU?$char_traits@D@std@@V?$allocator@D@2@@std@@KU?$less@V?$basic_string@DU?$char_traits@D@std@@V?$allocator@D@2@@std@@@2@V?$allocator@U?$pair@$$CBV?$basic_string@DU?$char_traits@D@std@@V?$allocator@D@2@@std@@K@std@@@2@$0A@@std@@@std@@IAEXPAU_Node@?$_Tree_nod@V?$_Tmap_traits@V?$basic_string@DU?$char_traits@D@std@@V?$allocator@D@2@@std@@KU?$less@V?$basic_string@DU?$char_traits@D@std@@V?$allocator@D@2@@std@@@2@V?$allocator@U?$pair@$$CBV?$basic_string@DU?$char_traits@D@std@@V?$allocator@D@2@@std@@K@std@@@2@$0A@@std@@@2@@Z 00436f00 f i EngineLib:TextureManager.obj
 0001:00035f00       ?_Rrotate@?$_Tree@V?$_Tmap_traits@V?$basic_string@DU?$char_traits@D@std@@V?$allocator@D@2@@std@@PAV?$multimap@V?$basic_string@DU?$char_traits@D@std@@V?$allocator@D@2@@std@@PAV?$vector@V?$basic_string@DU?$char_traits@D@std@@V?$allocator@D@2@@std@@V?$allocator@V?$basic_string@DU?$char_traits@D@std@@V?$allocator@D@2@@std@@@2@@2@U?$less@V?$basic_string@DU?$char_traits@D@std@@V?$allocator@D@2@@std@@@2@V?$allocator@U?$pair@$$CBV?$basic_string@DU?$char_traits@D@std@@V?$allocator@D@2@@std@@PAV?$vector@V?$basic_string@DU?$char_traits@D@std@@V?$allocator@D@2@@std@@V?$allocator@V?$basic_string@DU?$char_traits@D@std@@V?$allocator@D@2@@std@@@2@@2@@std@@@2@@2@U?$less@V?$basic_string@DU?$char_traits@D@std@@V?$allocator@D@2@@std@@@2@V?$allocator@U?$pair@$$CBV?$basic_string@DU?$char_traits@D@std@@V?$allocator@D@2@@std@@PAV?$multimap@V?$basic_string@DU?$char_traits@D@std@@V?$allocator@D@2@@std@@PAV?$vector@V?$basic_string@DU?$char_traits@D@std@@V?$allocator@D@2@@std@@V?$allocator@V?$basic_string@DU?$char_traits@D@std@@V?$allocator@D@2@@std@@@2@@2@U?$less@V?$basic_string@DU?$char_traits@D@std@@V?$allocator@D@2@@std@@@2@V?$allocator@U?$pair@$$CBV?$basic_string@DU?$char_traits@D@std@@V?$allocator@D@2@@std@@PAV?$vector@V?$basic_string@DU?$char_traits@D@std@@V?$allocator@D@2@@std@@V?$allocator@V?$basic_string@DU?$char_traits@D@std@@V?$allocator@D@2@@std@@@2@@2@@std@@@2@@2@@std@@@2@$0A@@std@@@std@@IAEXPAU_Node@?$_Tree_nod@V?$_Tmap_traits@V?$basic_string@DU?$char_traits@D@std@@V?$allocator@D@2@@std@@PAV?$multimap@V?$basic_string@DU?$char_traits@D@std@@V?$allocator@D@2@@std@@PAV?$vector@V?$basic_string@DU?$char_traits@D@std@@V?$allocator@D@2@@std@@V?$allocator@V?$basic_string@DU?$char_traits@D@std@@V?$allocator@D@2@@std@@@2@@2@U?$less@V?$basic_string@DU?$char_traits@D@std@@V?$allocator@D@2@@std@@@2@V?$allocator@U?$pair@$$CBV?$basic_string@DU?$char_traits@D@std@@V?$allocator@D@2@@std@@PAV?$vector@V?$basic_string@DU?$char_traits@D@std@@V?$allocator@D@2@@std@@V?$allocator@V?$basic_string@DU?$char_traits@D@std@@V?$allocator@D@2@@std@@@2@@2@@std@@@2@@2@U?$less@V?$basic_string@DU?$char_traits@D@std@@V?$allocator@D@2@@std@@@2@V?$allocator@U?$pair@$$CBV?$basic_string@DU?$char_traits@D@std@@V?$allocator@D@2@@std@@PAV?$multimap@V?$basic_string@DU?$char_traits@D@std@@V?$allocator@D@2@@std@@PAV?$vector@V?$basic_string@DU?$char_traits@D@std@@V?$allocator@D@2@@std@@V?$allocator@V?$basic_string@DU?$char_traits@D@std@@V?$allocator@D@2@@std@@@2@@2@U?$less@V?$basic_string@DU?$char_traits@D@std@@V?$allocator@D@2@@std@@@2@V?$allocator@U?$pair@$$CBV?$basic_string@DU?$char_traits@D@std@@V?$allocator@D@2@@std@@PAV?$vector@V?$basic_string@DU?$char_traits@D@std@@V?$allocator@D@2@@std@@V?$allocator@V?$basic_string@DU?$char_traits@D@std@@V?$allocator@D@2@@std@@@2@@2@@std@@@2@@2@@std@@@2@$0A@@std@@@2@@Z 00436f00 f i EngineLib:IniLoader.obj
 0001:00035f60       ??$make_pair@V?$basic_string@DU?$char_traits@D@std@@V?$allocator@D@2@@std@@PAV?$vector@V?$basic_string@DU?$char_traits@D@std@@V?$allocator@D@2@@std@@V?$allocator@V?$basic_string@DU?$char_traits@D@std@@V?$allocator@D@2@@std@@@2@@2@@std@@YA?AU?$pair@V?$basic_string@DU?$char_traits@D@std@@V?$allocator@D@2@@std@@PAV?$vector@V?$basic_string@DU?$char_traits@D@std@@V?$allocator@D@2@@std@@V?$allocator@V?$basic_string@DU?$char_traits@D@std@@V?$allocator@D@2@@std@@@2@@2@@0@V?$basic_string@DU?$char_traits@D@std@@V?$allocator@D@2@@0@PAV?$vector@V?$basic_string@DU?$char_traits@D@std@@V?$allocator@D@2@@std@@V?$allocator@V?$basic_string@DU?$char_traits@D@std@@V?$allocator@D@2@@std@@@2@@0@@Z 00436f60 f i EngineLib:IniLoader.obj
 0001:00035f60       ??$make_pair@V?$basic_string@DU?$char_traits@D@std@@V?$allocator@D@2@@std@@PAV?$multimap@V?$basic_string@DU?$char_traits@D@std@@V?$allocator@D@2@@std@@PAV?$vector@V?$basic_string@DU?$char_traits@D@std@@V?$allocator@D@2@@std@@V?$allocator@V?$basic_string@DU?$char_traits@D@std@@V?$allocator@D@2@@std@@@2@@2@U?$less@V?$basic_string@DU?$char_traits@D@std@@V?$allocator@D@2@@std@@@2@V?$allocator@U?$pair@$$CBV?$basic_string@DU?$char_traits@D@std@@V?$allocator@D@2@@std@@PAV?$vector@V?$basic_string@DU?$char_traits@D@std@@V?$allocator@D@2@@std@@V?$allocator@V?$basic_string@DU?$char_traits@D@std@@V?$allocator@D@2@@std@@@2@@2@@std@@@2@@2@@std@@YA?AU?$pair@V?$basic_string@DU?$char_traits@D@std@@V?$allocator@D@2@@std@@PAV?$multimap@V?$basic_string@DU?$char_traits@D@std@@V?$allocator@D@2@@std@@PAV?$vector@V?$basic_string@DU?$char_traits@D@std@@V?$allocator@D@2@@std@@V?$allocator@V?$basic_string@DU?$char_traits@D@std@@V?$allocator@D@2@@std@@@2@@2@U?$less@V?$basic_string@DU?$char_traits@D@std@@V?$allocator@D@2@@std@@@2@V?$allocator@U?$pair@$$CBV?$basic_string@DU?$char_traits@D@std@@V?$allocator@D@2@@std@@PAV?$vector@V?$basic_string@DU?$char_traits@D@std@@V?$allocator@D@2@@std@@V?$allocator@V?$basic_string@DU?$char_traits@D@std@@V?$allocator@D@2@@std@@@2@@2@@std@@@2@@2@@0@V?$basic_string@DU?$char_traits@D@std@@V?$allocator@D@2@@0@PAV?$multimap@V?$basic_string@DU?$char_traits@D@std@@V?$allocator@D@2@@std@@PAV?$vector@V?$basic_string@DU?$char_traits@D@std@@V?$allocator@D@2@@std@@V?$allocator@V?$basic_string@DU?$char_traits@D@std@@V?$allocator@D@2@@std@@@2@@2@U?$less@V?$basic_string@DU?$char_traits@D@std@@V?$allocator@D@2@@std@@@2@V?$allocator@U?$pair@$$CBV?$basic_string@DU?$char_traits@D@std@@V?$allocator@D@2@@std@@PAV?$vector@V?$basic_string@DU?$char_traits@D@std@@V?$allocator@D@2@@std@@V?$allocator@V?$basic_string@DU?$char_traits@D@std@@V?$allocator@D@2@@std@@@2@@2@@std@@@2@@0@@Z 00436f60 f i EngineLib:IniLoader.obj
 0001:00035fd0       ?ErrorMegBox@CIniLoader@@AAEXPBD0@Z 00436fd0 f   EngineLib:IniLoader.obj
 0001:00036050       ?ErrorMegBox@CIniLoader@@AAEXPBD00@Z 00437050 f   EngineLib:IniLoader.obj
 0001:000360e0       ?_Buynode@?$_Tree@V?$_Tmap_traits@V?$basic_string@DU?$char_traits@D@std@@V?$allocator@D@2@@std@@PAV?$vector@V?$basic_string@DU?$char_traits@D@std@@V?$allocator@D@2@@std@@V?$allocator@V?$basic_string@DU?$char_traits@D@std@@V?$allocator@D@2@@std@@@2@@2@U?$less@V?$basic_string@DU?$char_traits@D@std@@V?$allocator@D@2@@std@@@2@V?$allocator@U?$pair@$$CBV?$basic_string@DU?$char_traits@D@std@@V?$allocator@D@2@@std@@PAV?$vector@V?$basic_string@DU?$char_traits@D@std@@V?$allocator@D@2@@std@@V?$allocator@V?$basic_string@DU?$char_traits@D@std@@V?$allocator@D@2@@std@@@2@@2@@std@@@2@$00@std@@@std@@IAEPAU_Node@?$_Tree_nod@V?$_Tmap_traits@V?$basic_string@DU?$char_traits@D@std@@V?$allocator@D@2@@std@@PAV?$vector@V?$basic_string@DU?$char_traits@D@std@@V?$allocator@D@2@@std@@V?$allocator@V?$basic_string@DU?$char_traits@D@std@@V?$allocator@D@2@@std@@@2@@2@U?$less@V?$basic_string@DU?$char_traits@D@std@@V?$allocator@D@2@@std@@@2@V?$allocator@U?$pair@$$CBV?$basic_string@DU?$char_traits@D@std@@V?$allocator@D@2@@std@@PAV?$vector@V?$basic_string@DU?$char_traits@D@std@@V?$allocator@D@2@@std@@V?$allocator@V?$basic_string@DU?$char_traits@D@std@@V?$allocator@D@2@@std@@@2@@2@@std@@@2@$00@std@@@2@PAU342@00ABU?$pair@$$CBV?$basic_string@DU?$char_traits@D@std@@V?$allocator@D@2@@std@@PAV?$vector@V?$basic_string@DU?$char_traits@D@std@@V?$allocator@D@2@@std@@V?$allocator@V?$basic_string@DU?$char_traits@D@std@@V?$allocator@D@2@@std@@@2@@2@@2@D@Z 004370e0 f i EngineLib:IniLoader.obj
 0001:000360e0       ?_Buynode@?$_Tree@V?$_Tmap_traits@V?$basic_string@DU?$char_traits@D@std@@V?$allocator@D@2@@std@@PAV?$multimap@V?$basic_string@DU?$char_traits@D@std@@V?$allocator@D@2@@std@@PAV?$vector@V?$basic_string@DU?$char_traits@D@std@@V?$allocator@D@2@@std@@V?$allocator@V?$basic_string@DU?$char_traits@D@std@@V?$allocator@D@2@@std@@@2@@2@U?$less@V?$basic_string@DU?$char_traits@D@std@@V?$allocator@D@2@@std@@@2@V?$allocator@U?$pair@$$CBV?$basic_string@DU?$char_traits@D@std@@V?$allocator@D@2@@std@@PAV?$vector@V?$basic_string@DU?$char_traits@D@std@@V?$allocator@D@2@@std@@V?$allocator@V?$basic_string@DU?$char_traits@D@std@@V?$allocator@D@2@@std@@@2@@2@@std@@@2@@2@U?$less@V?$basic_string@DU?$char_traits@D@std@@V?$allocator@D@2@@std@@@2@V?$allocator@U?$pair@$$CBV?$basic_string@DU?$char_traits@D@std@@V?$allocator@D@2@@std@@PAV?$multimap@V?$basic_string@DU?$char_traits@D@std@@V?$allocator@D@2@@std@@PAV?$vector@V?$basic_string@DU?$char_traits@D@std@@V?$allocator@D@2@@std@@V?$allocator@V?$basic_string@DU?$char_traits@D@std@@V?$allocator@D@2@@std@@@2@@2@U?$less@V?$basic_string@DU?$char_traits@D@std@@V?$allocator@D@2@@std@@@2@V?$allocator@U?$pair@$$CBV?$basic_string@DU?$char_traits@D@std@@V?$allocator@D@2@@std@@PAV?$vector@V?$basic_string@DU?$char_traits@D@std@@V?$allocator@D@2@@std@@V?$allocator@V?$basic_string@DU?$char_traits@D@std@@V?$allocator@D@2@@std@@@2@@2@@std@@@2@@2@@std@@@2@$0A@@std@@@std@@IAEPAU_Node@?$_Tree_nod@V?$_Tmap_traits@V?$basic_string@DU?$char_traits@D@std@@V?$allocator@D@2@@std@@PAV?$multimap@V?$basic_string@DU?$char_traits@D@std@@V?$allocator@D@2@@std@@PAV?$vector@V?$basic_string@DU?$char_traits@D@std@@V?$allocator@D@2@@std@@V?$allocator@V?$basic_string@DU?$char_traits@D@std@@V?$allocator@D@2@@std@@@2@@2@U?$less@V?$basic_string@DU?$char_traits@D@std@@V?$allocator@D@2@@std@@@2@V?$allocator@U?$pair@$$CBV?$basic_string@DU?$char_traits@D@std@@V?$allocator@D@2@@std@@PAV?$vector@V?$basic_string@DU?$char_traits@D@std@@V?$allocator@D@2@@std@@V?$allocator@V?$basic_string@DU?$char_traits@D@std@@V?$allocator@D@2@@std@@@2@@2@@std@@@2@@2@U?$less@V?$basic_string@DU?$char_traits@D@std@@V?$allocator@D@2@@std@@@2@V?$allocator@U?$pair@$$CBV?$basic_string@DU?$char_traits@D@std@@V?$allocator@D@2@@std@@PAV?$multimap@V?$basic_string@DU?$char_traits@D@std@@V?$allocator@D@2@@std@@PAV?$vector@V?$basic_string@DU?$char_traits@D@std@@V?$allocator@D@2@@std@@V?$allocator@V?$basic_string@DU?$char_traits@D@std@@V?$allocator@D@2@@std@@@2@@2@U?$less@V?$basic_string@DU?$char_traits@D@std@@V?$allocator@D@2@@std@@@2@V?$allocator@U?$pair@$$CBV?$basic_string@DU?$char_traits@D@std@@V?$allocator@D@2@@std@@PAV?$vector@V?$basic_string@DU?$char_traits@D@std@@V?$allocator@D@2@@std@@V?$allocator@V?$basic_string@DU?$char_traits@D@std@@V?$allocator@D@2@@std@@@2@@2@@std@@@2@@2@@std@@@2@$0A@@std@@@2@PAU342@00ABU?$pair@$$CBV?$basic_string@DU?$char_traits@D@std@@V?$allocator@D@2@@std@@PAV?$multimap@V?$basic_string@DU?$char_traits@D@std@@V?$allocator@D@2@@std@@PAV?$vector@V?$basic_string@DU?$char_traits@D@std@@V?$allocator@D@2@@std@@V?$allocator@V?$basic_string@DU?$char_traits@D@std@@V?$allocator@D@2@@std@@@2@@2@U?$less@V?$basic_string@DU?$char_traits@D@std@@V?$allocator@D@2@@std@@@2@V?$allocator@U?$pair@$$CBV?$basic_string@DU?$char_traits@D@std@@V?$allocator@D@2@@std@@PAV?$vector@V?$basic_string@DU?$char_traits@D@std@@V?$allocator@D@2@@std@@V?$allocator@V?$basic_string@DU?$char_traits@D@std@@V?$allocator@D@2@@std@@@2@@2@@std@@@2@@2@@2@D@Z 004370e0 f i EngineLib:IniLoader.obj
 0001:00036180       ?_Insert@?$_Tree@V?$_Tmap_traits@V?$basic_string@DU?$char_traits@D@std@@V?$allocator@D@2@@std@@PAV?$vector@V?$basic_string@DU?$char_traits@D@std@@V?$allocator@D@2@@std@@V?$allocator@V?$basic_string@DU?$char_traits@D@std@@V?$allocator@D@2@@std@@@2@@2@U?$less@V?$basic_string@DU?$char_traits@D@std@@V?$allocator@D@2@@std@@@2@V?$allocator@U?$pair@$$CBV?$basic_string@DU?$char_traits@D@std@@V?$allocator@D@2@@std@@PAV?$vector@V?$basic_string@DU?$char_traits@D@std@@V?$allocator@D@2@@std@@V?$allocator@V?$basic_string@DU?$char_traits@D@std@@V?$allocator@D@2@@std@@@2@@2@@std@@@2@$00@std@@@std@@IAE?AViterator@12@_NPAU_Node@?$_Tree_nod@V?$_Tmap_traits@V?$basic_string@DU?$char_traits@D@std@@V?$allocator@D@2@@std@@PAV?$vector@V?$basic_string@DU?$char_traits@D@std@@V?$allocator@D@2@@std@@V?$allocator@V?$basic_string@DU?$char_traits@D@std@@V?$allocator@D@2@@std@@@2@@2@U?$less@V?$basic_string@DU?$char_traits@D@std@@V?$allocator@D@2@@std@@@2@V?$allocator@U?$pair@$$CBV?$basic_string@DU?$char_traits@D@std@@V?$allocator@D@2@@std@@PAV?$vector@V?$basic_string@DU?$char_traits@D@std@@V?$allocator@D@2@@std@@V?$allocator@V?$basic_string@DU?$char_traits@D@std@@V?$allocator@D@2@@std@@@2@@2@@std@@@2@$00@std@@@2@ABU?$pair@$$CBV?$basic_string@DU?$char_traits@D@std@@V?$allocator@D@2@@std@@PAV?$vector@V?$basic_string@DU?$char_traits@D@std@@V?$allocator@D@2@@std@@V?$allocator@V?$basic_string@DU?$char_traits@D@std@@V?$allocator@D@2@@std@@@2@@2@@2@@Z 00437180 f i EngineLib:IniLoader.obj
 0001:00036180       ?_Insert@?$_Tree@V?$_Tmap_traits@V?$basic_string@DU?$char_traits@D@std@@V?$allocator@D@2@@std@@PAV?$multimap@V?$basic_string@DU?$char_traits@D@std@@V?$allocator@D@2@@std@@PAV?$vector@V?$basic_string@DU?$char_traits@D@std@@V?$allocator@D@2@@std@@V?$allocator@V?$basic_string@DU?$char_traits@D@std@@V?$allocator@D@2@@std@@@2@@2@U?$less@V?$basic_string@DU?$char_traits@D@std@@V?$allocator@D@2@@std@@@2@V?$allocator@U?$pair@$$CBV?$basic_string@DU?$char_traits@D@std@@V?$allocator@D@2@@std@@PAV?$vector@V?$basic_string@DU?$char_traits@D@std@@V?$allocator@D@2@@std@@V?$allocator@V?$basic_string@DU?$char_traits@D@std@@V?$allocator@D@2@@std@@@2@@2@@std@@@2@@2@U?$less@V?$basic_string@DU?$char_traits@D@std@@V?$allocator@D@2@@std@@@2@V?$allocator@U?$pair@$$CBV?$basic_string@DU?$char_traits@D@std@@V?$allocator@D@2@@std@@PAV?$multimap@V?$basic_string@DU?$char_traits@D@std@@V?$allocator@D@2@@std@@PAV?$vector@V?$basic_string@DU?$char_traits@D@std@@V?$allocator@D@2@@std@@V?$allocator@V?$basic_string@DU?$char_traits@D@std@@V?$allocator@D@2@@std@@@2@@2@U?$less@V?$basic_string@DU?$char_traits@D@std@@V?$allocator@D@2@@std@@@2@V?$allocator@U?$pair@$$CBV?$basic_string@DU?$char_traits@D@std@@V?$allocator@D@2@@std@@PAV?$vector@V?$basic_string@DU?$char_traits@D@std@@V?$allocator@D@2@@std@@V?$allocator@V?$basic_string@DU?$char_traits@D@std@@V?$allocator@D@2@@std@@@2@@2@@std@@@2@@2@@std@@@2@$0A@@std@@@std@@IAE?AViterator@12@_NPAU_Node@?$_Tree_nod@V?$_Tmap_traits@V?$basic_string@DU?$char_traits@D@std@@V?$allocator@D@2@@std@@PAV?$multimap@V?$basic_string@DU?$char_traits@D@std@@V?$allocator@D@2@@std@@PAV?$vector@V?$basic_string@DU?$char_traits@D@std@@V?$allocator@D@2@@std@@V?$allocator@V?$basic_string@DU?$char_traits@D@std@@V?$allocator@D@2@@std@@@2@@2@U?$less@V?$basic_string@DU?$char_traits@D@std@@V?$allocator@D@2@@std@@@2@V?$allocator@U?$pair@$$CBV?$basic_string@DU?$char_traits@D@std@@V?$allocator@D@2@@std@@PAV?$vector@V?$basic_string@DU?$char_traits@D@std@@V?$allocator@D@2@@std@@V?$allocator@V?$basic_string@DU?$char_traits@D@std@@V?$allocator@D@2@@std@@@2@@2@@std@@@2@@2@U?$less@V?$basic_string@DU?$char_traits@D@std@@V?$allocator@D@2@@std@@@2@V?$allocator@U?$pair@$$CBV?$basic_string@DU?$char_traits@D@std@@V?$allocator@D@2@@std@@PAV?$multimap@V?$basic_string@DU?$char_traits@D@std@@V?$allocator@D@2@@std@@PAV?$vector@V?$basic_string@DU?$char_traits@D@std@@V?$allocator@D@2@@std@@V?$allocator@V?$basic_string@DU?$char_traits@D@std@@V?$allocator@D@2@@std@@@2@@2@U?$less@V?$basic_string@DU?$char_traits@D@std@@V?$allocator@D@2@@std@@@2@V?$allocator@U?$pair@$$CBV?$basic_string@DU?$char_traits@D@std@@V?$allocator@D@2@@std@@PAV?$vector@V?$basic_string@DU?$char_traits@D@std@@V?$allocator@D@2@@std@@V?$allocator@V?$basic_string@DU?$char_traits@D@std@@V?$allocator@D@2@@std@@@2@@2@@std@@@2@@2@@std@@@2@$0A@@std@@@2@ABU?$pair@$$CBV?$basic_string@DU?$char_traits@D@std@@V?$allocator@D@2@@std@@PAV?$multimap@V?$basic_string@DU?$char_traits@D@std@@V?$allocator@D@2@@std@@PAV?$vector@V?$basic_string@DU?$char_traits@D@std@@V?$allocator@D@2@@std@@V?$allocator@V?$basic_string@DU?$char_traits@D@std@@V?$allocator@D@2@@std@@@2@@2@U?$less@V?$basic_string@DU?$char_traits@D@std@@V?$allocator@D@2@@std@@@2@V?$allocator@U?$pair@$$CBV?$basic_string@DU?$char_traits@D@std@@V?$allocator@D@2@@std@@PAV?$vector@V?$basic_string@DU?$char_traits@D@std@@V?$allocator@D@2@@std@@V?$allocator@V?$basic_string@DU?$char_traits@D@std@@V?$allocator@D@2@@std@@@2@@2@@std@@@2@@2@@2@@Z 00437180 f i EngineLib:IniLoader.obj
 0001:00036340       ?erase@?$_Tree@V?$_Tmap_traits@V?$basic_string@DU?$char_traits@D@std@@V?$allocator@D@2@@std@@PAV?$vector@V?$basic_string@DU?$char_traits@D@std@@V?$allocator@D@2@@std@@V?$allocator@V?$basic_string@DU?$char_traits@D@std@@V?$allocator@D@2@@std@@@2@@2@U?$less@V?$basic_string@DU?$char_traits@D@std@@V?$allocator@D@2@@std@@@2@V?$allocator@U?$pair@$$CBV?$basic_string@DU?$char_traits@D@std@@V?$allocator@D@2@@std@@PAV?$vector@V?$basic_string@DU?$char_traits@D@std@@V?$allocator@D@2@@std@@V?$allocator@V?$basic_string@DU?$char_traits@D@std@@V?$allocator@D@2@@std@@@2@@2@@std@@@2@$00@std@@@std@@QAE?AViterator@12@V312@@Z 00437340 f i EngineLib:IniLoader.obj
 0001:00036340       ?erase@?$_Tree@V?$_Tmap_traits@V?$basic_string@DU?$char_traits@D@std@@V?$allocator@D@2@@std@@PAV?$multimap@V?$basic_string@DU?$char_traits@D@std@@V?$allocator@D@2@@std@@PAV?$vector@V?$basic_string@DU?$char_traits@D@std@@V?$allocator@D@2@@std@@V?$allocator@V?$basic_string@DU?$char_traits@D@std@@V?$allocator@D@2@@std@@@2@@2@U?$less@V?$basic_string@DU?$char_traits@D@std@@V?$allocator@D@2@@std@@@2@V?$allocator@U?$pair@$$CBV?$basic_string@DU?$char_traits@D@std@@V?$allocator@D@2@@std@@PAV?$vector@V?$basic_string@DU?$char_traits@D@std@@V?$allocator@D@2@@std@@V?$allocator@V?$basic_string@DU?$char_traits@D@std@@V?$allocator@D@2@@std@@@2@@2@@std@@@2@@2@U?$less@V?$basic_string@DU?$char_traits@D@std@@V?$allocator@D@2@@std@@@2@V?$allocator@U?$pair@$$CBV?$basic_string@DU?$char_traits@D@std@@V?$allocator@D@2@@std@@PAV?$multimap@V?$basic_string@DU?$char_traits@D@std@@V?$allocator@D@2@@std@@PAV?$vector@V?$basic_string@DU?$char_traits@D@std@@V?$allocator@D@2@@std@@V?$allocator@V?$basic_string@DU?$char_traits@D@std@@V?$allocator@D@2@@std@@@2@@2@U?$less@V?$basic_string@DU?$char_traits@D@std@@V?$allocator@D@2@@std@@@2@V?$allocator@U?$pair@$$CBV?$basic_string@DU?$char_traits@D@std@@V?$allocator@D@2@@std@@PAV?$vector@V?$basic_string@DU?$char_traits@D@std@@V?$allocator@D@2@@std@@V?$allocator@V?$basic_string@DU?$char_traits@D@std@@V?$allocator@D@2@@std@@@2@@2@@std@@@2@@2@@std@@@2@$0A@@std@@@std@@QAE?AViterator@12@V312@@Z 00437340 f i EngineLib:IniLoader.obj
 0001:00036620       ?FindKey@CIniLoader@@AAEPAV?$vector@V?$basic_string@DU?$char_traits@D@std@@V?$allocator@D@2@@std@@V?$allocator@V?$basic_string@DU?$char_traits@D@std@@V?$allocator@D@2@@std@@@2@@std@@V?$basic_string@DU?$char_traits@D@std@@V?$allocator@D@2@@3@0@Z 00437620 f   EngineLib:IniLoader.obj
 0001:00036740       ?validflag@CIniLoader@@AAEPAV?$vector@V?$basic_string@DU?$char_traits@D@std@@V?$allocator@D@2@@std@@V?$allocator@V?$basic_string@DU?$char_traits@D@std@@V?$allocator@D@2@@std@@@2@@std@@V?$basic_string@DU?$char_traits@D@std@@V?$allocator@D@2@@3@0HH@Z 00437740 f   EngineLib:IniLoader.obj
 0001:00036870       ?GetKeyDataSize@CIniLoader@@QAEIV?$basic_string@DU?$char_traits@D@std@@V?$allocator@D@2@@std@@0@Z 00437870 f   EngineLib:IniLoader.obj
 0001:00036960       ?insert@?$_Tree@V?$_Tmap_traits@V?$basic_string@DU?$char_traits@D@std@@V?$allocator@D@2@@std@@PAV?$multimap@V?$basic_string@DU?$char_traits@D@std@@V?$allocator@D@2@@std@@PAV?$vector@V?$basic_string@DU?$char_traits@D@std@@V?$allocator@D@2@@std@@V?$allocator@V?$basic_string@DU?$char_traits@D@std@@V?$allocator@D@2@@std@@@2@@2@U?$less@V?$basic_string@DU?$char_traits@D@std@@V?$allocator@D@2@@std@@@2@V?$allocator@U?$pair@$$CBV?$basic_string@DU?$char_traits@D@std@@V?$allocator@D@2@@std@@PAV?$vector@V?$basic_string@DU?$char_traits@D@std@@V?$allocator@D@2@@std@@V?$allocator@V?$basic_string@DU?$char_traits@D@std@@V?$allocator@D@2@@std@@@2@@2@@std@@@2@@2@U?$less@V?$basic_string@DU?$char_traits@D@std@@V?$allocator@D@2@@std@@@2@V?$allocator@U?$pair@$$CBV?$basic_string@DU?$char_traits@D@std@@V?$allocator@D@2@@std@@PAV?$multimap@V?$basic_string@DU?$char_traits@D@std@@V?$allocator@D@2@@std@@PAV?$vector@V?$basic_string@DU?$char_traits@D@std@@V?$allocator@D@2@@std@@V?$allocator@V?$basic_string@DU?$char_traits@D@std@@V?$allocator@D@2@@std@@@2@@2@U?$less@V?$basic_string@DU?$char_traits@D@std@@V?$allocator@D@2@@std@@@2@V?$allocator@U?$pair@$$CBV?$basic_string@DU?$char_traits@D@std@@V?$allocator@D@2@@std@@PAV?$vector@V?$basic_string@DU?$char_traits@D@std@@V?$allocator@D@2@@std@@V?$allocator@V?$basic_string@DU?$char_traits@D@std@@V?$allocator@D@2@@std@@@2@@2@@std@@@2@@2@@std@@@2@$0A@@std@@@std@@QAE?AU?$pair@Viterator@?$_Tree@V?$_Tmap_traits@V?$basic_string@DU?$char_traits@D@std@@V?$allocator@D@2@@std@@PAV?$multimap@V?$basic_string@DU?$char_traits@D@std@@V?$allocator@D@2@@std@@PAV?$vector@V?$basic_string@DU?$char_traits@D@std@@V?$allocator@D@2@@std@@V?$allocator@V?$basic_string@DU?$char_traits@D@std@@V?$allocator@D@2@@std@@@2@@2@U?$less@V?$basic_string@DU?$char_traits@D@std@@V?$allocator@D@2@@std@@@2@V?$allocator@U?$pair@$$CBV?$basic_string@DU?$char_traits@D@std@@V?$allocator@D@2@@std@@PAV?$vector@V?$basic_string@DU?$char_traits@D@std@@V?$allocator@D@2@@std@@V?$allocator@V?$basic_string@DU?$char_traits@D@std@@V?$allocator@D@2@@std@@@2@@2@@std@@@2@@2@U?$less@V?$basic_string@DU?$char_traits@D@std@@V?$allocator@D@2@@std@@@2@V?$allocator@U?$pair@$$CBV?$basic_string@DU?$char_traits@D@std@@V?$allocator@D@2@@std@@PAV?$multimap@V?$basic_string@DU?$char_traits@D@std@@V?$allocator@D@2@@std@@PAV?$vector@V?$basic_string@DU?$char_traits@D@std@@V?$allocator@D@2@@std@@V?$allocator@V?$basic_string@DU?$char_traits@D@std@@V?$allocator@D@2@@std@@@2@@2@U?$less@V?$basic_string@DU?$char_traits@D@std@@V?$allocator@D@2@@std@@@2@V?$allocator@U?$pair@$$CBV?$basic_string@DU?$char_traits@D@std@@V?$allocator@D@2@@std@@PAV?$vector@V?$basic_string@DU?$char_traits@D@std@@V?$allocator@D@2@@std@@V?$allocator@V?$basic_string@DU?$char_traits@D@std@@V?$allocator@D@2@@std@@@2@@2@@std@@@2@@2@@std@@@2@$0A@@std@@@std@@_N@2@ABU?$pair@$$CBV?$basic_string@DU?$char_traits@D@std@@V?$allocator@D@2@@std@@PAV?$multimap@V?$basic_string@DU?$char_traits@D@std@@V?$allocator@D@2@@std@@PAV?$vector@V?$basic_string@DU?$char_traits@D@std@@V?$allocator@D@2@@std@@V?$allocator@V?$basic_string@DU?$char_traits@D@std@@V?$allocator@D@2@@std@@@2@@2@U?$less@V?$basic_string@DU?$char_traits@D@std@@V?$allocator@D@2@@std@@@2@V?$allocator@U?$pair@$$CBV?$basic_string@DU?$char_traits@D@std@@V?$allocator@D@2@@std@@PAV?$vector@V?$basic_string@DU?$char_traits@D@std@@V?$allocator@D@2@@std@@V?$allocator@V?$basic_string@DU?$char_traits@D@std@@V?$allocator@D@2@@std@@@2@@2@@std@@@2@@2@@2@@Z 00437960 f i EngineLib:IniLoader.obj
 0001:00036a40       ?insert@?$_Tree@V?$_Tmap_traits@V?$basic_string@DU?$char_traits@D@std@@V?$allocator@D@2@@std@@PAV?$vector@V?$basic_string@DU?$char_traits@D@std@@V?$allocator@D@2@@std@@V?$allocator@V?$basic_string@DU?$char_traits@D@std@@V?$allocator@D@2@@std@@@2@@2@U?$less@V?$basic_string@DU?$char_traits@D@std@@V?$allocator@D@2@@std@@@2@V?$allocator@U?$pair@$$CBV?$basic_string@DU?$char_traits@D@std@@V?$allocator@D@2@@std@@PAV?$vector@V?$basic_string@DU?$char_traits@D@std@@V?$allocator@D@2@@std@@V?$allocator@V?$basic_string@DU?$char_traits@D@std@@V?$allocator@D@2@@std@@@2@@2@@std@@@2@$00@std@@@std@@QAE?AU?$pair@Viterator@?$_Tree@V?$_Tmap_traits@V?$basic_string@DU?$char_traits@D@std@@V?$allocator@D@2@@std@@PAV?$vector@V?$basic_string@DU?$char_traits@D@std@@V?$allocator@D@2@@std@@V?$allocator@V?$basic_string@DU?$char_traits@D@std@@V?$allocator@D@2@@std@@@2@@2@U?$less@V?$basic_string@DU?$char_traits@D@std@@V?$allocator@D@2@@std@@@2@V?$allocator@U?$pair@$$CBV?$basic_string@DU?$char_traits@D@std@@V?$allocator@D@2@@std@@PAV?$vector@V?$basic_string@DU?$char_traits@D@std@@V?$allocator@D@2@@std@@V?$allocator@V?$basic_string@DU?$char_traits@D@std@@V?$allocator@D@2@@std@@@2@@2@@std@@@2@$00@std@@@std@@_N@2@ABU?$pair@$$CBV?$basic_string@DU?$char_traits@D@std@@V?$allocator@D@2@@std@@PAV?$vector@V?$basic_string@DU?$char_traits@D@std@@V?$allocator@D@2@@std@@V?$allocator@V?$basic_string@DU?$char_traits@D@std@@V?$allocator@D@2@@std@@@2@@2@@2@@Z 00437a40 f i EngineLib:IniLoader.obj
 0001:00036ab0       ?_Erase@?$_Tree@V?$_Tmap_traits@V?$basic_string@DU?$char_traits@D@std@@V?$allocator@D@2@@std@@PAV?$vector@V?$basic_string@DU?$char_traits@D@std@@V?$allocator@D@2@@std@@V?$allocator@V?$basic_string@DU?$char_traits@D@std@@V?$allocator@D@2@@std@@@2@@2@U?$less@V?$basic_string@DU?$char_traits@D@std@@V?$allocator@D@2@@std@@@2@V?$allocator@U?$pair@$$CBV?$basic_string@DU?$char_traits@D@std@@V?$allocator@D@2@@std@@PAV?$vector@V?$basic_string@DU?$char_traits@D@std@@V?$allocator@D@2@@std@@V?$allocator@V?$basic_string@DU?$char_traits@D@std@@V?$allocator@D@2@@std@@@2@@2@@std@@@2@$00@std@@@std@@IAEXPAU_Node@?$_Tree_nod@V?$_Tmap_traits@V?$basic_string@DU?$char_traits@D@std@@V?$allocator@D@2@@std@@PAV?$vector@V?$basic_string@DU?$char_traits@D@std@@V?$allocator@D@2@@std@@V?$allocator@V?$basic_string@DU?$char_traits@D@std@@V?$allocator@D@2@@std@@@2@@2@U?$less@V?$basic_string@DU?$char_traits@D@std@@V?$allocator@D@2@@std@@@2@V?$allocator@U?$pair@$$CBV?$basic_string@DU?$char_traits@D@std@@V?$allocator@D@2@@std@@PAV?$vector@V?$basic_string@DU?$char_traits@D@std@@V?$allocator@D@2@@std@@V?$allocator@V?$basic_string@DU?$char_traits@D@std@@V?$allocator@D@2@@std@@@2@@2@@std@@@2@$00@std@@@2@@Z 00437ab0 f i EngineLib:IniLoader.obj
 0001:00036af0       ?_Erase@?$_Tree@V?$_Tmap_traits@V?$basic_string@DU?$char_traits@D@std@@V?$allocator@D@2@@std@@PAV?$multimap@V?$basic_string@DU?$char_traits@D@std@@V?$allocator@D@2@@std@@PAV?$vector@V?$basic_string@DU?$char_traits@D@std@@V?$allocator@D@2@@std@@V?$allocator@V?$basic_string@DU?$char_traits@D@std@@V?$allocator@D@2@@std@@@2@@2@U?$less@V?$basic_string@DU?$char_traits@D@std@@V?$allocator@D@2@@std@@@2@V?$allocator@U?$pair@$$CBV?$basic_string@DU?$char_traits@D@std@@V?$allocator@D@2@@std@@PAV?$vector@V?$basic_string@DU?$char_traits@D@std@@V?$allocator@D@2@@std@@V?$allocator@V?$basic_string@DU?$char_traits@D@std@@V?$allocator@D@2@@std@@@2@@2@@std@@@2@@2@U?$less@V?$basic_string@DU?$char_traits@D@std@@V?$allocator@D@2@@std@@@2@V?$allocator@U?$pair@$$CBV?$basic_string@DU?$char_traits@D@std@@V?$allocator@D@2@@std@@PAV?$multimap@V?$basic_string@DU?$char_traits@D@std@@V?$allocator@D@2@@std@@PAV?$vector@V?$basic_string@DU?$char_traits@D@std@@V?$allocator@D@2@@std@@V?$allocator@V?$basic_string@DU?$char_traits@D@std@@V?$allocator@D@2@@std@@@2@@2@U?$less@V?$basic_string@DU?$char_traits@D@std@@V?$allocator@D@2@@std@@@2@V?$allocator@U?$pair@$$CBV?$basic_string@DU?$char_traits@D@std@@V?$allocator@D@2@@std@@PAV?$vector@V?$basic_string@DU?$char_traits@D@std@@V?$allocator@D@2@@std@@V?$allocator@V?$basic_string@DU?$char_traits@D@std@@V?$allocator@D@2@@std@@@2@@2@@std@@@2@@2@@std@@@2@$0A@@std@@@std@@IAEXPAU_Node@?$_Tree_nod@V?$_Tmap_traits@V?$basic_string@DU?$char_traits@D@std@@V?$allocator@D@2@@std@@PAV?$multimap@V?$basic_string@DU?$char_traits@D@std@@V?$allocator@D@2@@std@@PAV?$vector@V?$basic_string@DU?$char_traits@D@std@@V?$allocator@D@2@@std@@V?$allocator@V?$basic_string@DU?$char_traits@D@std@@V?$allocator@D@2@@std@@@2@@2@U?$less@V?$basic_string@DU?$char_traits@D@std@@V?$allocator@D@2@@std@@@2@V?$allocator@U?$pair@$$CBV?$basic_string@DU?$char_traits@D@std@@V?$allocator@D@2@@std@@PAV?$vector@V?$basic_string@DU?$char_traits@D@std@@V?$allocator@D@2@@std@@V?$allocator@V?$basic_string@DU?$char_traits@D@std@@V?$allocator@D@2@@std@@@2@@2@@std@@@2@@2@U?$less@V?$basic_string@DU?$char_traits@D@std@@V?$allocator@D@2@@std@@@2@V?$allocator@U?$pair@$$CBV?$basic_string@DU?$char_traits@D@std@@V?$allocator@D@2@@std@@PAV?$multimap@V?$basic_string@DU?$char_traits@D@std@@V?$allocator@D@2@@std@@PAV?$vector@V?$basic_string@DU?$char_traits@D@std@@V?$allocator@D@2@@std@@V?$allocator@V?$basic_string@DU?$char_traits@D@std@@V?$allocator@D@2@@std@@@2@@2@U?$less@V?$basic_string@DU?$char_traits@D@std@@V?$allocator@D@2@@std@@@2@V?$allocator@U?$pair@$$CBV?$basic_string@DU?$char_traits@D@std@@V?$allocator@D@2@@std@@PAV?$vector@V?$basic_string@DU?$char_traits@D@std@@V?$allocator@D@2@@std@@V?$allocator@V?$basic_string@DU?$char_traits@D@std@@V?$allocator@D@2@@std@@@2@@2@@std@@@2@@2@@std@@@2@$0A@@std@@@2@@Z 00437af0 f i EngineLib:IniLoader.obj
 0001:00036b30       ?erase@?$_Tree@V?$_Tmap_traits@V?$basic_string@DU?$char_traits@D@std@@V?$allocator@D@2@@std@@PAV?$vector@V?$basic_string@DU?$char_traits@D@std@@V?$allocator@D@2@@std@@V?$allocator@V?$basic_string@DU?$char_traits@D@std@@V?$allocator@D@2@@std@@@2@@2@U?$less@V?$basic_string@DU?$char_traits@D@std@@V?$allocator@D@2@@std@@@2@V?$allocator@U?$pair@$$CBV?$basic_string@DU?$char_traits@D@std@@V?$allocator@D@2@@std@@PAV?$vector@V?$basic_string@DU?$char_traits@D@std@@V?$allocator@D@2@@std@@V?$allocator@V?$basic_string@DU?$char_traits@D@std@@V?$allocator@D@2@@std@@@2@@2@@std@@@2@$00@std@@@std@@QAE?AViterator@12@V312@0@Z 00437b30 f i EngineLib:IniLoader.obj
 0001:00036bf0       ?erase@?$_Tree@V?$_Tmap_traits@V?$basic_string@DU?$char_traits@D@std@@V?$allocator@D@2@@std@@PAV?$multimap@V?$basic_string@DU?$char_traits@D@std@@V?$allocator@D@2@@std@@PAV?$vector@V?$basic_string@DU?$char_traits@D@std@@V?$allocator@D@2@@std@@V?$allocator@V?$basic_string@DU?$char_traits@D@std@@V?$allocator@D@2@@std@@@2@@2@U?$less@V?$basic_string@DU?$char_traits@D@std@@V?$allocator@D@2@@std@@@2@V?$allocator@U?$pair@$$CBV?$basic_string@DU?$char_traits@D@std@@V?$allocator@D@2@@std@@PAV?$vector@V?$basic_string@DU?$char_traits@D@std@@V?$allocator@D@2@@std@@V?$allocator@V?$basic_string@DU?$char_traits@D@std@@V?$allocator@D@2@@std@@@2@@2@@std@@@2@@2@U?$less@V?$basic_string@DU?$char_traits@D@std@@V?$allocator@D@2@@std@@@2@V?$allocator@U?$pair@$$CBV?$basic_string@DU?$char_traits@D@std@@V?$allocator@D@2@@std@@PAV?$multimap@V?$basic_string@DU?$char_traits@D@std@@V?$allocator@D@2@@std@@PAV?$vector@V?$basic_string@DU?$char_traits@D@std@@V?$allocator@D@2@@std@@V?$allocator@V?$basic_string@DU?$char_traits@D@std@@V?$allocator@D@2@@std@@@2@@2@U?$less@V?$basic_string@DU?$char_traits@D@std@@V?$allocator@D@2@@std@@@2@V?$allocator@U?$pair@$$CBV?$basic_string@DU?$char_traits@D@std@@V?$allocator@D@2@@std@@PAV?$vector@V?$basic_string@DU?$char_traits@D@std@@V?$allocator@D@2@@std@@V?$allocator@V?$basic_string@DU?$char_traits@D@std@@V?$allocator@D@2@@std@@@2@@2@@std@@@2@@2@@std@@@2@$0A@@std@@@std@@QAE?AViterator@12@V312@0@Z 00437bf0 f i EngineLib:IniLoader.obj
 0001:00036cb0       ?split@CIniLoader@@AAEHABV?$basic_string@DU?$char_traits@D@std@@V?$allocator@D@2@@std@@PAV?$vector@V?$basic_string@DU?$char_traits@D@std@@V?$allocator@D@2@@std@@V?$allocator@V?$basic_string@DU?$char_traits@D@std@@V?$allocator@D@2@@std@@@2@@3@@Z 00437cb0 f   EngineLib:IniLoader.obj
 0001:00036df0       ??1?$map@V?$basic_string@DU?$char_traits@D@std@@V?$allocator@D@2@@std@@PAV?$multimap@V?$basic_string@DU?$char_traits@D@std@@V?$allocator@D@2@@std@@PAV?$vector@V?$basic_string@DU?$char_traits@D@std@@V?$allocator@D@2@@std@@V?$allocator@V?$basic_string@DU?$char_traits@D@std@@V?$allocator@D@2@@std@@@2@@2@U?$less@V?$basic_string@DU?$char_traits@D@std@@V?$allocator@D@2@@std@@@2@V?$allocator@U?$pair@$$CBV?$basic_string@DU?$char_traits@D@std@@V?$allocator@D@2@@std@@PAV?$vector@V?$basic_string@DU?$char_traits@D@std@@V?$allocator@D@2@@std@@V?$allocator@V?$basic_string@DU?$char_traits@D@std@@V?$allocator@D@2@@std@@@2@@2@@std@@@2@@2@U?$less@V?$basic_string@DU?$char_traits@D@std@@V?$allocator@D@2@@std@@@2@V?$allocator@U?$pair@$$CBV?$basic_string@DU?$char_traits@D@std@@V?$allocator@D@2@@std@@PAV?$multimap@V?$basic_string@DU?$char_traits@D@std@@V?$allocator@D@2@@std@@PAV?$vector@V?$basic_string@DU?$char_traits@D@std@@V?$allocator@D@2@@std@@V?$allocator@V?$basic_string@DU?$char_traits@D@std@@V?$allocator@D@2@@std@@@2@@2@U?$less@V?$basic_string@DU?$char_traits@D@std@@V?$allocator@D@2@@std@@@2@V?$allocator@U?$pair@$$CBV?$basic_string@DU?$char_traits@D@std@@V?$allocator@D@2@@std@@PAV?$vector@V?$basic_string@DU?$char_traits@D@std@@V?$allocator@D@2@@std@@V?$allocator@V?$basic_string@DU?$char_traits@D@std@@V?$allocator@D@2@@std@@@2@@2@@std@@@2@@2@@std@@@2@@std@@QAE@XZ 00437df0 f i EngineLib:IniLoader.obj
 0001:00036e20       ??1?$multimap@V?$basic_string@DU?$char_traits@D@std@@V?$allocator@D@2@@std@@PAV?$vector@V?$basic_string@DU?$char_traits@D@std@@V?$allocator@D@2@@std@@V?$allocator@V?$basic_string@DU?$char_traits@D@std@@V?$allocator@D@2@@std@@@2@@2@U?$less@V?$basic_string@DU?$char_traits@D@std@@V?$allocator@D@2@@std@@@2@V?$allocator@U?$pair@$$CBV?$basic_string@DU?$char_traits@D@std@@V?$allocator@D@2@@std@@PAV?$vector@V?$basic_string@DU?$char_traits@D@std@@V?$allocator@D@2@@std@@V?$allocator@V?$basic_string@DU?$char_traits@D@std@@V?$allocator@D@2@@std@@@2@@2@@std@@@2@@std@@QAE@XZ 00437e20 f i EngineLib:IniLoader.obj
 0001:00036e50       ?GetKeyData@CIniLoader@@AAEHABV?$CStringT@DV?$StrTraitMFC_DLL@DV?$ChTraitsCRT@D@ATL@@@@@ATL@@AAV?$basic_string@DU?$char_traits@D@std@@V?$allocator@D@2@@std@@PAV?$vector@V?$basic_string@DU?$char_traits@D@std@@V?$allocator@D@2@@std@@V?$allocator@V?$basic_string@DU?$char_traits@D@std@@V?$allocator@D@2@@std@@@2@@5@@Z 00437e50 f   EngineLib:IniLoader.obj
 0001:00036ff0       ??0CIniLoader@@QAE@V?$basic_string@DU?$char_traits@D@std@@V?$allocator@D@2@@std@@@Z 00437ff0 f   EngineLib:IniLoader.obj
 0001:000370a0       ?open@CIniLoader@@QAE_NV?$basic_string@DU?$char_traits@D@std@@V?$allocator@D@2@@std@@_NH@Z 004380a0 f   EngineLib:IniLoader.obj
 0001:00037630       ??1CIniLoader@@QAE@XZ      00438630 f   EngineLib:IniLoader.obj
 0001:000378c0       ?openfile_basestring@GLOGIC@@YAPAVCBaseString@@HPBD00_NH@Z 004388c0 f   EngineLib:GLogic.obj
 0001:000379d0       ??0IMethod@@QAE@XZ         004389d0 f   EngineLib:Method.obj
 0001:000379e0       ??1IMethod@@UAE@XZ         004389e0 f   EngineLib:Method.obj
 0001:000379f0       ??_EIMethod@@UAEPAXI@Z     004389f0 f i EngineLib:Method.obj
 0001:000379f0       ??_GIMethod@@UAEPAXI@Z     004389f0 f i EngineLib:Method.obj
 0001:00037a10       ?Xor@IMethod@@IAEXPADPBD@Z 00438a10 f   EngineLib:Method.obj
 0001:00037aa0       ?GetBlockSize@IMethod@@QAEHXZ 00438aa0 f   EngineLib:Method.obj
 0001:00037b10       ?GetEncryptStringLength@IMethod@@QAEHABV?$CStringT@DV?$StrTraitMFC_DLL@DV?$ChTraitsCRT@D@ATL@@@@@ATL@@@Z 00438b10 f   EngineLib:Method.obj
 0001:00037b40       ?GetEncryptLength@IMethod@@QAEHH@Z 00438b40 f   EngineLib:Method.obj
 0001:00037b70       ?Pad@IMethod@@QAEHPADH@Z   00438b70 f   EngineLib:Method.obj
 0001:00037c50       ??0CSHA@@QAE@XZ            00438c50 f   EngineLib:Sha.obj
 0001:00037ca0       ?Transform@CSHA@@AAEXXZ    00438ca0 f   EngineLib:Sha.obj
 0001:0003a650       ?AddData@CSHA@@QAEXPBDH@Z  0043b650 f   EngineLib:Sha.obj
 0001:0003a7b0       ?FinalDigest@CSHA@@QAEXPAD@Z 0043b7b0 f   EngineLib:Sha.obj
 0001:0003a9e0       ??0CDoubleBuffering@@QAE@AAV?$basic_ifstream@DU?$char_traits@D@std@@@std@@PADHH@Z 0043b9e0 f   EngineLib:DoubleBuffering.obj
 0001:0003ab40       ?GetData@CDoubleBuffering@@QAEHPADH@Z 0043bb40 f   EngineLib:DoubleBuffering.obj
 0001:0003ada0       ??$hash_value@DU?$char_traits@D@std@@V?$allocator@D@2@@stdext@@YAIABV?$basic_string@DU?$char_traits@D@std@@V?$allocator@D@2@@std@@@Z 0043bda0 f i EngineLib:DxEffSinglePropGMan.obj
 0001:0003ade0       ??1ANIMCONTNODE@@QAE@XZ    0043bde0 f   EngineLib:DxSkinAniControl.obj
 0001:0003ae00       ?clear@?$list@PAUANIMCONTNODE@@V?$allocator@PAUANIMCONTNODE@@@std@@@std@@QAEXXZ 0043be00 f i EngineLib:DxSkinAniControl.obj
 0001:0003ae00       ?clear@?$list@PAVSFileHandle@@V?$allocator@PAVSFileHandle@@@std@@@std@@QAEXXZ 0043be00 f i EngineLib:SFileSystem.obj
 0001:0003ae40       ??$for_each@Viterator@?$list@PAUANIMCONTNODE@@V?$allocator@PAUANIMCONTNODE@@@std@@@std@@UDeleteObject@?$CMemPool@UANIMCONTNODE@@@@@std@@YA?AUDeleteObject@?$CMemPool@UANIMCONTNODE@@@@Viterator@?$list@PAUANIMCONTNODE@@V?$allocator@PAUANIMCONTNODE@@@std@@@0@0U12@@Z 0043be40 f i EngineLib:DxSkinAniControl.obj
 0001:0003ae80       ??0?$CMemPool@UANIMCONTNODE@@@@QAE@XZ 0043be80 f i EngineLib:DxSkinAniControl.obj
 0001:0003aeb0       ??1?$CMemPool@UANIMCONTNODE@@@@QAE@XZ 0043beb0 f i EngineLib:DxSkinAniControl.obj
 0001:0003af20       ??$getflag@K@gltexfile@@QAE_NV?$basic_string@DU?$char_traits@D@std@@V?$allocator@D@2@@std@@HHAAK@Z 0043bf20 f i EngineLib:RENDERPARAM.obj
 0001:0003af20       ??$getflag@H@gltexfile@@QAE_NV?$basic_string@DU?$char_traits@D@std@@V?$allocator@D@2@@std@@HHAAH@Z 0043bf20 f i EngineLib:RENDERPARAM.obj
 0001:0003afe0       ??0CStringFile@@QAE@I@Z    0043bfe0 f   EngineLib:StringFile.obj
 0001:0003b050       ?Close@CStringFile@@UAEXXZ 0043c050 f   EngineLib:StringFile.obj
 0001:0003b080       ?GetNextLine@CStringFile@@UAEKAAV?$CStringT@DV?$StrTraitMFC_DLL@DV?$ChTraitsCRT@D@ATL@@@@@ATL@@@Z 0043c080 f   EngineLib:StringFile.obj
 0001:0003b0d0       ?GetNextLine@CStringFile@@UAEKAAPAD@Z 0043c0d0 f   EngineLib:StringFile.obj
 0001:0003b140       ?Reset@CStringFile@@UAEXXZ 0043c140 f   EngineLib:StringFile.obj
 0001:0003b160       ??1CStringFile@@UAE@XZ     0043c160 f   EngineLib:StringFile.obj
 0001:0003b1b0       ??_ECStringFile@@UAEPAXI@Z 0043c1b0 f i EngineLib:StringFile.obj
 0001:0003b1b0       ??_GCStringFile@@UAEPAXI@Z 0043c1b0 f i EngineLib:StringFile.obj
 0001:0003b1d0       ?Open@CStringFile@@QAEHPBDH@Z 0043c1d0 f   EngineLib:StringFile.obj
 0001:0003b350       ?GetNextLine@CStringFile@@UAEKPADI@Z 0043c350 f   EngineLib:StringFile.obj
 0001:0003b5f0       ??0CStringMemory@@QAE@I@Z  0043c5f0 f   EngineLib:StringMemory.obj
 0001:0003b660       ?Close@CStringMemory@@UAEXXZ 0043c660 f   EngineLib:StringMemory.obj
 0001:0003b6a0       ?GetNextLine@CStringMemory@@UAEKAAV?$CStringT@DV?$StrTraitMFC_DLL@DV?$ChTraitsCRT@D@ATL@@@@@ATL@@@Z 0043c6a0 f   EngineLib:StringMemory.obj
 0001:0003b6f0       ?GetNextLine@CStringMemory@@UAEKAAPAD@Z 0043c6f0 f   EngineLib:StringMemory.obj
 0001:0003b760       ?Reset@CStringMemory@@UAEXXZ 0043c760 f   EngineLib:StringMemory.obj
 0001:0003b790       ??1CStringMemory@@UAE@XZ   0043c790 f   EngineLib:StringMemory.obj
 0001:0003b7f0       ??_ECStringMemory@@UAEPAXI@Z 0043c7f0 f i EngineLib:StringMemory.obj
 0001:0003b7f0       ??_GCStringMemory@@UAEPAXI@Z 0043c7f0 f i EngineLib:StringMemory.obj
 0001:0003b810       ?Open@CStringMemory@@QAEHPBD0HH@Z 0043c810 f   EngineLib:StringMemory.obj
 0001:0003bac0       ?GetNextLine@CStringMemory@@UAEKPADI@Z 0043cac0 f   EngineLib:StringMemory.obj
 0001:0003bd30       ??0CUnzipper@@QAE@PBD@Z    0043cd30 f   EngineLib:Unzipper.obj
 0001:0003bd70       ?GetFileInfo@CUnzipper@@QAEHAAUUZ_FileInfo@@@Z 0043cd70 f   EngineLib:Unzipper.obj
 0001:0003be80       ?_Min@?$_Tree@V?$_Tmap_traits@USWavFileKey@@PAUSWavFileData@@U?$less@USWavFileKey@@@std@@V?$allocator@U?$pair@$$CBUSWavFileKey@@PAUSWavFileData@@@std@@@4@$0A@@std@@@std@@KAPAU_Node@?$_Tree_nod@V?$_Tmap_traits@USWavFileKey@@PAUSWavFileData@@U?$less@USWavFileKey@@@std@@V?$allocator@U?$pair@$$CBUSWavFileKey@@PAUSWavFileData@@@std@@@4@$0A@@std@@@2@PAU342@@Z 0043ce80 f i EngineSoundLib:DxSoundMan.obj
 0001:0003be80       ?_Min@?$_Tree@V?$_Tmap_traits@V?$basic_string@DU?$char_traits@D@std@@V?$allocator@D@2@@std@@Uunz_file_pos_s@@U?$less@V?$basic_string@DU?$char_traits@D@std@@V?$allocator@D@2@@std@@@2@V?$allocator@U?$pair@$$CBV?$basic_string@DU?$char_traits@D@std@@V?$allocator@D@2@@std@@Uunz_file_pos_s@@@std@@@2@$0A@@std@@@std@@KAPAU_Node@?$_Tree_nod@V?$_Tmap_traits@V?$basic_string@DU?$char_traits@D@std@@V?$allocator@D@2@@std@@Uunz_file_pos_s@@U?$less@V?$basic_string@DU?$char_traits@D@std@@V?$allocator@D@2@@std@@@2@V?$allocator@U?$pair@$$CBV?$basic_string@DU?$char_traits@D@std@@V?$allocator@D@2@@std@@Uunz_file_pos_s@@@std@@@2@$0A@@std@@@2@PAU342@@Z 0043ce80 f i EngineLib:Unzipper.obj
 0001:0003bea0       ??1CUnzipper@@UAE@XZ       0043cea0 f   EngineLib:Unzipper.obj
 0001:0003bed0       ?_Lbound@?$_Tree@V?$_Tmap_traits@V?$basic_string@DU?$char_traits@D@std@@V?$allocator@D@2@@std@@Uunz_file_pos_s@@U?$less@V?$basic_string@DU?$char_traits@D@std@@V?$allocator@D@2@@std@@@2@V?$allocator@U?$pair@$$CBV?$basic_string@DU?$char_traits@D@std@@V?$allocator@D@2@@std@@Uunz_file_pos_s@@@std@@@2@$0A@@std@@@std@@IBEPAU_Node@?$_Tree_nod@V?$_Tmap_traits@V?$basic_string@DU?$char_traits@D@std@@V?$allocator@D@2@@std@@Uunz_file_pos_s@@U?$less@V?$basic_string@DU?$char_traits@D@std@@V?$allocator@D@2@@std@@@2@V?$allocator@U?$pair@$$CBV?$basic_string@DU?$char_traits@D@std@@V?$allocator@D@2@@std@@Uunz_file_pos_s@@@std@@@2@$0A@@std@@@2@ABV?$basic_string@DU?$char_traits@D@std@@V?$allocator@D@2@@2@@Z 0043ced0 f i EngineLib:Unzipper.obj
 0001:0003bed0       ?_Lbound@?$_Tree@V?$_Tmap_traits@USWavFileKey@@PAUSWavFileData@@U?$less@USWavFileKey@@@std@@V?$allocator@U?$pair@$$CBUSWavFileKey@@PAUSWavFileData@@@std@@@4@$0A@@std@@@std@@IBEPAU_Node@?$_Tree_nod@V?$_Tmap_traits@USWavFileKey@@PAUSWavFileData@@U?$less@USWavFileKey@@@std@@V?$allocator@U?$pair@$$CBUSWavFileKey@@PAUSWavFileData@@@std@@@4@$0A@@std@@@2@ABUSWavFileKey@@@Z 0043ced0 f i EngineSoundLib:DxSoundMan.obj
 0001:0003bf20       ?_Lrotate@?$_Tree@V?$_Tmap_traits@USWavFileKey@@PAUSWavFileData@@U?$less@USWavFileKey@@@std@@V?$allocator@U?$pair@$$CBUSWavFileKey@@PAUSWavFileData@@@std@@@4@$0A@@std@@@std@@IAEXPAU_Node@?$_Tree_nod@V?$_Tmap_traits@USWavFileKey@@PAUSWavFileData@@U?$less@USWavFileKey@@@std@@V?$allocator@U?$pair@$$CBUSWavFileKey@@PAUSWavFileData@@@std@@@4@$0A@@std@@@2@@Z 0043cf20 f i EngineSoundLib:DxSoundMan.obj
 0001:0003bf20       ?_Lrotate@?$_Tree@V?$_Tmap_traits@V?$basic_string@DU?$char_traits@D@std@@V?$allocator@D@2@@std@@Uunz_file_pos_s@@U?$less@V?$basic_string@DU?$char_traits@D@std@@V?$allocator@D@2@@std@@@2@V?$allocator@U?$pair@$$CBV?$basic_string@DU?$char_traits@D@std@@V?$allocator@D@2@@std@@Uunz_file_pos_s@@@std@@@2@$0A@@std@@@std@@IAEXPAU_Node@?$_Tree_nod@V?$_Tmap_traits@V?$basic_string@DU?$char_traits@D@std@@V?$allocator@D@2@@std@@Uunz_file_pos_s@@U?$less@V?$basic_string@DU?$char_traits@D@std@@V?$allocator@D@2@@std@@@2@V?$allocator@U?$pair@$$CBV?$basic_string@DU?$char_traits@D@std@@V?$allocator@D@2@@std@@Uunz_file_pos_s@@@std@@@2@$0A@@std@@@2@@Z 0043cf20 f i EngineLib:Unzipper.obj
 0001:0003bf80       ?_Rrotate@?$_Tree@V?$_Tmap_traits@USWavFileKey@@PAUSWavFileData@@U?$less@USWavFileKey@@@std@@V?$allocator@U?$pair@$$CBUSWavFileKey@@PAUSWavFileData@@@std@@@4@$0A@@std@@@std@@IAEXPAU_Node@?$_Tree_nod@V?$_Tmap_traits@USWavFileKey@@PAUSWavFileData@@U?$less@USWavFileKey@@@std@@V?$allocator@U?$pair@$$CBUSWavFileKey@@PAUSWavFileData@@@std@@@4@$0A@@std@@@2@@Z 0043cf80 f i EngineSoundLib:DxSoundMan.obj
 0001:0003bf80       ?_Rrotate@?$_Tree@V?$_Tmap_traits@V?$basic_string@DU?$char_traits@D@std@@V?$allocator@D@2@@std@@Uunz_file_pos_s@@U?$less@V?$basic_string@DU?$char_traits@D@std@@V?$allocator@D@2@@std@@@2@V?$allocator@U?$pair@$$CBV?$basic_string@DU?$char_traits@D@std@@V?$allocator@D@2@@std@@Uunz_file_pos_s@@@std@@@2@$0A@@std@@@std@@IAEXPAU_Node@?$_Tree_nod@V?$_Tmap_traits@V?$basic_string@DU?$char_traits@D@std@@V?$allocator@D@2@@std@@Uunz_file_pos_s@@U?$less@V?$basic_string@DU?$char_traits@D@std@@V?$allocator@D@2@@std@@@2@V?$allocator@U?$pair@$$CBV?$basic_string@DU?$char_traits@D@std@@V?$allocator@D@2@@std@@Uunz_file_pos_s@@@std@@@2@$0A@@std@@@2@@Z 0043cf80 f i EngineLib:Unzipper.obj
 0001:0003bfe0       ??_GCUnzipper@@UAEPAXI@Z   0043cfe0 f i EngineLib:Unzipper.obj
 0001:0003bfe0       ??_ECUnzipper@@UAEPAXI@Z   0043cfe0 f i EngineLib:Unzipper.obj
 0001:0003c020       ?_Buynode@?$_Tree@V?$_Tmap_traits@V?$basic_string@DU?$char_traits@D@std@@V?$allocator@D@2@@std@@Uunz_file_pos_s@@U?$less@V?$basic_string@DU?$char_traits@D@std@@V?$allocator@D@2@@std@@@2@V?$allocator@U?$pair@$$CBV?$basic_string@DU?$char_traits@D@std@@V?$allocator@D@2@@std@@Uunz_file_pos_s@@@std@@@2@$0A@@std@@@std@@IAEPAU_Node@?$_Tree_nod@V?$_Tmap_traits@V?$basic_string@DU?$char_traits@D@std@@V?$allocator@D@2@@std@@Uunz_file_pos_s@@U?$less@V?$basic_string@DU?$char_traits@D@std@@V?$allocator@D@2@@std@@@2@V?$allocator@U?$pair@$$CBV?$basic_string@DU?$char_traits@D@std@@V?$allocator@D@2@@std@@Uunz_file_pos_s@@@std@@@2@$0A@@std@@@2@XZ 0043d020 f i EngineLib:Unzipper.obj
 0001:0003c020       ?_Buynode@?$_Tree@V?$_Tmap_traits@USWavFileKey@@PAUSWavFileData@@U?$less@USWavFileKey@@@std@@V?$allocator@U?$pair@$$CBUSWavFileKey@@PAUSWavFileData@@@std@@@4@$0A@@std@@@std@@IAEPAU_Node@?$_Tree_nod@V?$_Tmap_traits@USWavFileKey@@PAUSWavFileData@@U?$less@USWavFileKey@@@std@@V?$allocator@U?$pair@$$CBUSWavFileKey@@PAUSWavFileData@@@std@@@4@$0A@@std@@@2@XZ 0043d020 f i EngineSoundLib:DxSoundMan.obj
 0001:0003c060       ?GOTOFILEPOS@CUnzipper@@QAEHV?$basic_string@DU?$char_traits@D@std@@V?$allocator@D@2@@std@@@Z 0043d060 f   EngineLib:Unzipper.obj
 0001:0003c190       ?UnzipToMemory@CUnzipper@@QAEIPBD0AAPAE@Z 0043d190 f   EngineLib:Unzipper.obj
 0001:0003c390       ?erase@?$_Tree@V?$_Tmap_traits@V?$basic_string@DU?$char_traits@D@std@@V?$allocator@D@2@@std@@Uunz_file_pos_s@@U?$less@V?$basic_string@DU?$char_traits@D@std@@V?$allocator@D@2@@std@@@2@V?$allocator@U?$pair@$$CBV?$basic_string@DU?$char_traits@D@std@@V?$allocator@D@2@@std@@Uunz_file_pos_s@@@std@@@2@$0A@@std@@@std@@QAE?AViterator@12@V312@@Z 0043d390 f i EngineLib:Unzipper.obj
 0001:0003c670       ?_Erase@?$_Tree@V?$_Tmap_traits@V?$basic_string@DU?$char_traits@D@std@@V?$allocator@D@2@@std@@Uunz_file_pos_s@@U?$less@V?$basic_string@DU?$char_traits@D@std@@V?$allocator@D@2@@std@@@2@V?$allocator@U?$pair@$$CBV?$basic_string@DU?$char_traits@D@std@@V?$allocator@D@2@@std@@Uunz_file_pos_s@@@std@@@2@$0A@@std@@@std@@IAEXPAU_Node@?$_Tree_nod@V?$_Tmap_traits@V?$basic_string@DU?$char_traits@D@std@@V?$allocator@D@2@@std@@Uunz_file_pos_s@@U?$less@V?$basic_string@DU?$char_traits@D@std@@V?$allocator@D@2@@std@@@2@V?$allocator@U?$pair@$$CBV?$basic_string@DU?$char_traits@D@std@@V?$allocator@D@2@@std@@Uunz_file_pos_s@@@std@@@2@$0A@@std@@@2@@Z 0043d670 f i EngineLib:Unzipper.obj
 0001:0003c6b0       ?erase@?$_Tree@V?$_Tmap_traits@V?$basic_string@DU?$char_traits@D@std@@V?$allocator@D@2@@std@@Uunz_file_pos_s@@U?$less@V?$basic_string@DU?$char_traits@D@std@@V?$allocator@D@2@@std@@@2@V?$allocator@U?$pair@$$CBV?$basic_string@DU?$char_traits@D@std@@V?$allocator@D@2@@std@@Uunz_file_pos_s@@@std@@@2@$0A@@std@@@std@@QAE?AViterator@12@V312@0@Z 0043d6b0 f i EngineLib:Unzipper.obj
 0001:0003c770       ??1?$map@V?$basic_string@DU?$char_traits@D@std@@V?$allocator@D@2@@std@@Uunz_file_pos_s@@U?$less@V?$basic_string@DU?$char_traits@D@std@@V?$allocator@D@2@@std@@@2@V?$allocator@U?$pair@$$CBV?$basic_string@DU?$char_traits@D@std@@V?$allocator@D@2@@std@@Uunz_file_pos_s@@@std@@@2@@std@@QAE@XZ 0043d770 f i EngineLib:Unzipper.obj
 0001:0003c7a0       ??0?$map@V?$basic_string@DU?$char_traits@D@std@@V?$allocator@D@2@@std@@Uunz_file_pos_s@@U?$less@V?$basic_string@DU?$char_traits@D@std@@V?$allocator@D@2@@std@@@2@V?$allocator@U?$pair@$$CBV?$basic_string@DU?$char_traits@D@std@@V?$allocator@D@2@@std@@Uunz_file_pos_s@@@std@@@2@@std@@QAE@XZ 0043d7a0 f i EngineLib:Unzipper.obj
 0001:0003c7d0       ?reg_sep@gltexfile@@QAEXD@Z 0043d7d0 f   EngineLib:gltexfile.obj
 0001:0003c7e0       ?findflag@gltexfile@@QAEPAV?$vector@V?$basic_string@DU?$char_traits@D@std@@V?$allocator@D@2@@std@@V?$allocator@V?$basic_string@DU?$char_traits@D@std@@V?$allocator@D@2@@std@@@2@@std@@V?$basic_string@DU?$char_traits@D@std@@V?$allocator@D@2@@3@@Z 0043d7e0 f   EngineLib:gltexfile.obj
 0001:0003c8a0       ?validflag@gltexfile@@QAEPAV?$vector@V?$basic_string@DU?$char_traits@D@std@@V?$allocator@D@2@@std@@V?$allocator@V?$basic_string@DU?$char_traits@D@std@@V?$allocator@D@2@@std@@@2@@std@@V?$basic_string@DU?$char_traits@D@std@@V?$allocator@D@2@@3@HH@Z 0043d8a0 f   EngineLib:gltexfile.obj
 0001:0003ca90       ??$_Construct@Viterator@?$basic_string@DU?$char_traits@D@std@@V?$allocator@D@2@@std@@@?$basic_string@DU?$char_traits@D@std@@V?$allocator@D@2@@std@@QAEXViterator@01@0Uforward_iterator_tag@1@@Z 0043da90 f i EngineLib:gltexfile.obj
 0001:0003cb10       ?open@gltexfile@@QAE_NV?$basic_string@DU?$char_traits@D@std@@V?$allocator@D@2@@std@@_NH@Z 0043db10 f   EngineLib:gltexfile.obj
 0001:0003cf30       ??$for_each@Viterator@?$_Tree@V?$_Tmap_traits@V?$basic_string@DU?$char_traits@D@std@@V?$allocator@D@2@@std@@PAV?$vector@V?$basic_string@DU?$char_traits@D@std@@V?$allocator@D@2@@std@@V?$allocator@V?$basic_string@DU?$char_traits@D@std@@V?$allocator@D@2@@std@@@2@@2@U?$less@V?$basic_string@DU?$char_traits@D@std@@V?$allocator@D@2@@std@@@2@V?$allocator@U?$pair@$$CBV?$basic_string@DU?$char_traits@D@std@@V?$allocator@D@2@@std@@PAV?$vector@V?$basic_string@DU?$char_traits@D@std@@V?$allocator@D@2@@std@@V?$allocator@V?$basic_string@DU?$char_traits@D@std@@V?$allocator@D@2@@std@@@2@@2@@std@@@2@$00@std@@@std@@UDeleteMapObject@std_afunc@@@std@@YA?AUDeleteMapObject@std_afunc@@Viterator@?$_Tree@V?$_Tmap_traits@V?$basic_string@DU?$char_traits@D@std@@V?$allocator@D@2@@std@@PAV?$vector@V?$basic_string@DU?$char_traits@D@std@@V?$allocator@D@2@@std@@V?$allocator@V?$basic_string@DU?$char_traits@D@std@@V?$allocator@D@2@@std@@@2@@2@U?$less@V?$basic_string@DU?$char_traits@D@std@@V?$allocator@D@2@@std@@@2@V?$allocator@U?$pair@$$CBV?$basic_string@DU?$char_traits@D@std@@V?$allocator@D@2@@std@@PAV?$vector@V?$basic_string@DU?$char_traits@D@std@@V?$allocator@D@2@@std@@V?$allocator@V?$basic_string@DU?$char_traits@D@std@@V?$allocator@D@2@@std@@@2@@2@@std@@@2@$00@std@@@0@0U12@@Z 0043df30 f i EngineLib:gltexfile.obj
 0001:0003cfd0       ?clean@gltexfile@@QAEXXZ   0043dfd0 f   EngineLib:gltexfile.obj
 0001:0003d030       ??0gltexfile@@QAE@XZ       0043e030 f   EngineLib:gltexfile.obj
 0001:0003d0c0       ??1gltexfile@@QAE@XZ       0043e0c0 f   EngineLib:gltexfile.obj
 0001:0003d170       ??1CBaseString@@UAE@XZ     0043e170 f   EngineLib:BaseString.obj
 0001:0003d190       ??0CBaseString@@QAE@XZ     0043e190 f   EngineLib:BaseString.obj
 0001:0003d1e0       ??_GCBaseString@@UAEPAXI@Z 0043e1e0 f i EngineLib:BaseString.obj
 0001:0003d1e0       ??_ECBaseString@@UAEPAXI@Z 0043e1e0 f i EngineLib:BaseString.obj
 0001:0003d200       ??1SBIN@DxSkinAniMan@@QAE@XZ 0043e200 f i EngineLib:DxSkinAniManThread.obj
 0001:0003d250       ??1_Node@?$_List_nod@USBIN@DxSkinAniMan@@V?$allocator@USBIN@DxSkinAniMan@@@std@@@std@@QAE@XZ 0043e250 f i EngineLib:DxSkinAniManThread.obj
 0001:0003d260       ?_Buynode@?$list@USBIN@DxSkinAniMan@@V?$allocator@USBIN@DxSkinAniMan@@@std@@@std@@IAEPAU_Node@?$_List_nod@USBIN@DxSkinAniMan@@V?$allocator@USBIN@DxSkinAniMan@@@std@@@2@XZ 0043e260 f i EngineLib:DxSkinAniManThread.obj
 0001:0003d280       ?clear@?$list@USBIN@DxSkinAniMan@@V?$allocator@USBIN@DxSkinAniMan@@@std@@@std@@QAEXXZ 0043e280 f i EngineLib:DxSkinAniManThread.obj
 0001:0003d2c0       ?_Erase@?$_Tree@V?$_Tmap_traits@KUOBJQUADTemp@@U?$less@K@std@@V?$allocator@U?$pair@$$CBKUOBJQUADTemp@@@std@@@3@$0A@@std@@@std@@IAEXPAU_Node@?$_Tree_nod@V?$_Tmap_traits@KUOBJQUADTemp@@U?$less@K@std@@V?$allocator@U?$pair@$$CBKUOBJQUADTemp@@@std@@@3@$0A@@std@@@2@@Z 0043e2c0 f i EngineLib:DxMapEditMan.obj
 0001:0003d300       ?_Max@?$_Tree@V?$_Tmap_traits@KKU?$less@K@std@@V?$allocator@U?$pair@$$CBKK@std@@@2@$00@std@@@std@@KAPAU_Node@?$_Tree_nod@V?$_Tmap_traits@KKU?$less@K@std@@V?$allocator@U?$pair@$$CBKK@std@@@2@$00@std@@@2@PAU342@@Z 0043e300 f i EngineLib:NsSMeshSceneGraph.obj
 0001:0003d300       ?_Max@?$_Tree@V?$_Tmap_traits@KUOBJQUADTemp@@U?$less@K@std@@V?$allocator@U?$pair@$$CBKUOBJQUADTemp@@@std@@@3@$0A@@std@@@std@@KAPAU_Node@?$_Tree_nod@V?$_Tmap_traits@KUOBJQUADTemp@@U?$less@K@std@@V?$allocator@U?$pair@$$CBKUOBJQUADTemp@@@std@@@3@$0A@@std@@@2@PAU342@@Z 0043e300 f i EngineLib:DxMapEditManThread.obj
 0001:0003d300       ?_Max@?$_Tree@V?$_Tmap_traits@MPAVDXLIGHT@@U?$less@M@std@@V?$allocator@U?$pair@$$CBMPAVDXLIGHT@@@std@@@3@$00@std@@@std@@KAPAU_Node@?$_Tree_nod@V?$_Tmap_traits@MPAVDXLIGHT@@U?$less@M@std@@V?$allocator@U?$pair@$$CBMPAVDXLIGHT@@@std@@@3@$00@std@@@2@PAU342@@Z 0043e300 f i EngineLib:DxLightMan.obj
 0001:0003d320       ?_Min@?$_Tree@V?$_Tmap_traits@KKU?$less@K@std@@V?$allocator@U?$pair@$$CBKK@std@@@2@$00@std@@@std@@KAPAU_Node@?$_Tree_nod@V?$_Tmap_traits@KKU?$less@K@std@@V?$allocator@U?$pair@$$CBKK@std@@@2@$00@std@@@2@PAU342@@Z 0043e320 f i EngineLib:NsSMeshSceneGraph.obj
 0001:0003d320       ?_Min@?$_Tree@V?$_Tmap_traits@KUOBJQUADTemp@@U?$less@K@std@@V?$allocator@U?$pair@$$CBKUOBJQUADTemp@@@std@@@3@$0A@@std@@@std@@KAPAU_Node@?$_Tree_nod@V?$_Tmap_traits@KUOBJQUADTemp@@U?$less@K@std@@V?$allocator@U?$pair@$$CBKUOBJQUADTemp@@@std@@@3@$0A@@std@@@2@PAU342@@Z 0043e320 f i EngineLib:DxMapEditManThread.obj
 0001:0003d320       ?_Min@?$_Tree@V?$_Tmap_traits@MPAVDXLIGHT@@U?$less@M@std@@V?$allocator@U?$pair@$$CBMPAVDXLIGHT@@@std@@@3@$00@std@@@std@@KAPAU_Node@?$_Tree_nod@V?$_Tmap_traits@MPAVDXLIGHT@@U?$less@M@std@@V?$allocator@U?$pair@$$CBMPAVDXLIGHT@@@std@@@3@$00@std@@@2@PAU342@@Z 0043e320 f i EngineLib:DxLightMan.obj
 0001:0003d340       ?erase@?$_Tree@V?$_Tmap_traits@KUOBJQUADTemp@@U?$less@K@std@@V?$allocator@U?$pair@$$CBKUOBJQUADTemp@@@std@@@3@$0A@@std@@@std@@QAE?AViterator@12@V312@@Z 0043e340 f i EngineLib:DxMapEditManThread.obj
 0001:0003d610       ?erase@?$_Tree@V?$_Tmap_traits@KUOBJQUADTemp@@U?$less@K@std@@V?$allocator@U?$pair@$$CBKUOBJQUADTemp@@@std@@@3@$0A@@std@@@std@@QAE?AViterator@12@V312@0@Z 0043e610 f i EngineLib:DxQUADTree.obj
 0001:0003d6d0       ??1?$map@KUOBJQUADTemp@@U?$less@K@std@@V?$allocator@U?$pair@$$CBKUOBJQUADTemp@@@std@@@3@@std@@QAE@XZ 0043e6d0 f i EngineLib:DxQUADTree.obj
 0001:0003d700       ??0?$map@KUOBJQUADTemp@@U?$less@K@std@@V?$allocator@U?$pair@$$CBKUOBJQUADTemp@@@std@@@3@@std@@QAE@XZ 0043e700 f i EngineLib:DxQUADTree.obj
 0001:0003d730       ?find@?$_Tree@V?$_Tmap_traits@V?$basic_string@DU?$char_traits@D@std@@V?$allocator@D@2@@std@@PAVCStringArray@@U?$less@V?$basic_string@DU?$char_traits@D@std@@V?$allocator@D@2@@std@@@2@V?$allocator@U?$pair@$$CBV?$basic_string@DU?$char_traits@D@std@@V?$allocator@D@2@@std@@PAVCStringArray@@@std@@@2@$0A@@std@@@std@@QAE?AViterator@12@ABV?$basic_string@DU?$char_traits@D@std@@V?$allocator@D@2@@2@@Z 0043e730 f i EngineUILib:GameTextLoader.obj
 0001:0003d730       ?find@?$_Tree@V?$_Tmap_traits@V?$basic_string@DU?$char_traits@D@std@@V?$allocator@D@2@@std@@PAV?$vector@V?$basic_string@DU?$char_traits@D@std@@V?$allocator@D@2@@std@@V?$allocator@V?$basic_string@DU?$char_traits@D@std@@V?$allocator@D@2@@std@@@2@@2@U?$less@V?$basic_string@DU?$char_traits@D@std@@V?$allocator@D@2@@std@@@2@V?$allocator@U?$pair@$$CBV?$basic_string@DU?$char_traits@D@std@@V?$allocator@D@2@@std@@PAV?$vector@V?$basic_string@DU?$char_traits@D@std@@V?$allocator@D@2@@std@@V?$allocator@V?$basic_string@DU?$char_traits@D@std@@V?$allocator@D@2@@std@@@2@@2@@std@@@2@$00@std@@@std@@QAE?AViterator@12@ABV?$basic_string@DU?$char_traits@D@std@@V?$allocator@D@2@@2@@Z 0043e730 f i EngineLib:IniLoader.obj
 0001:0003d790       ??$for_each@Viterator@?$_Tree@V?$_Tmap_traits@V?$basic_string@DU?$char_traits@D@std@@V?$allocator@D@2@@std@@PAVCStringArray@@U?$less@V?$basic_string@DU?$char_traits@D@std@@V?$allocator@D@2@@std@@@2@V?$allocator@U?$pair@$$CBV?$basic_string@DU?$char_traits@D@std@@V?$allocator@D@2@@std@@PAVCStringArray@@@std@@@2@$0A@@std@@@std@@UDeleteMapObject@std_afunc@@@std@@YA?AUDeleteMapObject@std_afunc@@Viterator@?$_Tree@V?$_Tmap_traits@V?$basic_string@DU?$char_traits@D@std@@V?$allocator@D@2@@std@@PAVCStringArray@@U?$less@V?$basic_string@DU?$char_traits@D@std@@V?$allocator@D@2@@std@@@2@V?$allocator@U?$pair@$$CBV?$basic_string@DU?$char_traits@D@std@@V?$allocator@D@2@@std@@PAVCStringArray@@@std@@@2@$0A@@std@@@0@0U12@@Z 0043e790 f i EngineUILib:GameTextLoader.obj
 0001:0003d830       ?IsValid_Syntax@NS_TEXT_LOADER@@YAHPBDAAVCStringArray@@AAV?$map@V?$basic_string@DU?$char_traits@D@std@@V?$allocator@D@2@@std@@PAVCStringArray@@U?$less@V?$basic_string@DU?$char_traits@D@std@@V?$allocator@D@2@@std@@@2@V?$allocator@U?$pair@$$CBV?$basic_string@DU?$char_traits@D@std@@V?$allocator@D@2@@std@@PAVCStringArray@@@std@@@2@@std@@@Z 0043e830 f   EngineUILib:GameTextLoader.obj
 0001:0003d9b0       ?ClearText@NS_TEXT_LOADER@@YAHAAV?$map@V?$basic_string@DU?$char_traits@D@std@@V?$allocator@D@2@@std@@PAVCStringArray@@U?$less@V?$basic_string@DU?$char_traits@D@std@@V?$allocator@D@2@@std@@@2@V?$allocator@U?$pair@$$CBV?$basic_string@DU?$char_traits@D@std@@V?$allocator@D@2@@std@@PAVCStringArray@@@std@@@2@@std@@@Z 0043e9b0 f   EngineUILib:GameTextLoader.obj
 0001:0003d9e0       ?GetText@NS_TEXT_LOADER@@YAABV?$CStringT@DV?$StrTraitMFC_DLL@DV?$ChTraitsCRT@D@ATL@@@@@ATL@@V?$basic_string@DU?$char_traits@D@std@@V?$allocator@D@2@@std@@HAAV?$map@V?$basic_string@DU?$char_traits@D@std@@V?$allocator@D@2@@std@@PAVCStringArray@@U?$less@V?$basic_string@DU?$char_traits@D@std@@V?$allocator@D@2@@std@@@2@V?$allocator@U?$pair@$$CBV?$basic_string@DU?$char_traits@D@std@@V?$allocator@D@2@@std@@PAVCStringArray@@@std@@@2@@5@@Z 0043e9e0 f   EngineUILib:GameTextLoader.obj
 0001:0003dc30       ?Analyze_Sentense@NS_TEXT_LOADER@@YAHPBDAAVCStringFile@@AAV?$CStringT@DV?$StrTraitMFC_DLL@DV?$ChTraitsCRT@D@ATL@@@@@ATL@@AAVCStringArray@@AAV?$map@V?$basic_string@DU?$char_traits@D@std@@V?$allocator@D@2@@std@@PAVCStringArray@@U?$less@V?$basic_string@DU?$char_traits@D@std@@V?$allocator@D@2@@std@@@2@V?$allocator@U?$pair@$$CBV?$basic_string@DU?$char_traits@D@std@@V?$allocator@D@2@@std@@PAVCStringArray@@@std@@@2@@std@@@Z 0043ec30 f   EngineUILib:GameTextLoader.obj
 0001:0003de90       ?Analyze_Word@NS_TEXT_LOADER@@YAHPBDAAVCStringFile@@AAV?$CStringT@DV?$StrTraitMFC_DLL@DV?$ChTraitsCRT@D@ATL@@@@@ATL@@AAVCStringArray@@AAV?$map@V?$basic_string@DU?$char_traits@D@std@@V?$allocator@D@2@@std@@PAVCStringArray@@U?$less@V?$basic_string@DU?$char_traits@D@std@@V?$allocator@D@2@@std@@@2@V?$allocator@U?$pair@$$CBV?$basic_string@DU?$char_traits@D@std@@V?$allocator@D@2@@std@@PAVCStringArray@@@std@@@2@@std@@@Z 0043ee90 f   EngineUILib:GameTextLoader.obj
 0001:0003de90       ?Analyze_Numeric@NS_TEXT_LOADER@@YAHPBDAAVCStringFile@@AAV?$CStringT@DV?$StrTraitMFC_DLL@DV?$ChTraitsCRT@D@ATL@@@@@ATL@@AAVCStringArray@@AAV?$map@V?$basic_string@DU?$char_traits@D@std@@V?$allocator@D@2@@std@@PAVCStringArray@@U?$less@V?$basic_string@DU?$char_traits@D@std@@V?$allocator@D@2@@std@@@2@V?$allocator@U?$pair@$$CBV?$basic_string@DU?$char_traits@D@std@@V?$allocator@D@2@@std@@PAVCStringArray@@@std@@@2@@std@@@Z 0043ee90 f   EngineUILib:GameTextLoader.obj
 0001:0003e0a0       ?LoadText@NS_TEXT_LOADER@@YAHPBDGAAV?$map@V?$basic_string@DU?$char_traits@D@std@@V?$allocator@D@2@@std@@PAVCStringArray@@U?$less@V?$basic_string@DU?$char_traits@D@std@@V?$allocator@D@2@@std@@@2@V?$allocator@U?$pair@$$CBV?$basic_string@DU?$char_traits@D@std@@V?$allocator@D@2@@std@@PAVCStringArray@@@std@@@2@@std@@HH@Z 0043f0a0 f   EngineUILib:GameTextLoader.obj
 0001:0003e4f0       ?SetShowCursor@CCursor@@QAEXH@Z 0043f4f0 f   EngineUILib:Cursor.obj
 0001:0003e540       ??0CCursor@@IAE@XZ         0043f540 f   EngineUILib:Cursor.obj
 0001:0003e650       ??1CCursor@@QAE@XZ         0043f650 f   EngineUILib:Cursor.obj
 0001:0003e710       ?GetInstance@CCursor@@SAAAV1@XZ 0043f710 f   EngineUILib:Cursor.obj
 0001:0003e770       ?MAKE_UIMSG@@YAKEEEE@Z     0043f770 f   EngineUILib:UIControlMessage.obj
 0001:0003e790       ??1TiXmlDocument@@UAE@XZ   0043f790 f i EngineUILib:RanXMLParser.obj
 0001:0003e800       ??_GTiXmlDocument@@UAEPAXI@Z 0043f800 f i EngineUILib:RanXMLParser.obj
 0001:0003e800       ??_ETiXmlDocument@@UAEPAXI@Z 0043f800 f i EngineUILib:RanXMLParser.obj
 0001:0003e820       ??0CRanXMLParser@@QAE@AAV?$CStringT@DV?$StrTraitMFC_DLL@DV?$ChTraitsCRT@D@ATL@@@@@ATL@@@Z 0043f820 f   EngineUILib:RanXMLParser.obj
 0001:0003e870       ??1CRanXMLParser@@QAE@XZ   0043f870 f   EngineUILib:RanXMLParser.obj
 0001:0003e8d0       ?_ParseSENTENSE@CRanXMLParser@@AAEHAAV?$map@V?$basic_string@DU?$char_traits@D@std@@V?$allocator@D@2@@std@@PAVCStringArray@@U?$less@V?$basic_string@DU?$char_traits@D@std@@V?$allocator@D@2@@std@@@2@V?$allocator@U?$pair@$$CBV?$basic_string@DU?$char_traits@D@std@@V?$allocator@D@2@@std@@PAVCStringArray@@@std@@@2@@std@@@Z 0043f8d0 f   EngineUILib:RanXMLParser.obj
 0001:0003ecd0       ?_ParseWORD@CRanXMLParser@@AAEHAAV?$map@V?$basic_string@DU?$char_traits@D@std@@V?$allocator@D@2@@std@@PAVCStringArray@@U?$less@V?$basic_string@DU?$char_traits@D@std@@V?$allocator@D@2@@std@@@2@V?$allocator@U?$pair@$$CBV?$basic_string@DU?$char_traits@D@std@@V?$allocator@D@2@@std@@PAVCStringArray@@@std@@@2@@std@@@Z 0043fcd0 f   EngineUILib:RanXMLParser.obj
 0001:0003f0d0       ?_ParseNUMBER@CRanXMLParser@@AAEHAAV?$map@V?$basic_string@DU?$char_traits@D@std@@V?$allocator@D@2@@std@@PAVCStringArray@@U?$less@V?$basic_string@DU?$char_traits@D@std@@V?$allocator@D@2@@std@@@2@V?$allocator@U?$pair@$$CBV?$basic_string@DU?$char_traits@D@std@@V?$allocator@D@2@@std@@PAVCStringArray@@@std@@@2@@std@@@Z 004400d0 f   EngineUILib:RanXMLParser.obj
 0001:0003f4b0       ?Parse_XML@CRanXMLParser@@QAEHAAV?$map@V?$basic_string@DU?$char_traits@D@std@@V?$allocator@D@2@@std@@PAVCStringArray@@U?$less@V?$basic_string@DU?$char_traits@D@std@@V?$allocator@D@2@@std@@@2@V?$allocator@U?$pair@$$CBV?$basic_string@DU?$char_traits@D@std@@V?$allocator@D@2@@std@@PAVCStringArray@@@std@@@2@@std@@PBD@Z 004404b0 f   EngineUILib:RanXMLParser.obj
 0001:0003f560       ??1TiXmlBase@@UAE@XZ       00440560 f i EngineUILib:tinyxml.obj
 0001:0003f570       ??_GTiXmlBase@@UAEPAXI@Z   00440570 f i EngineUILib:tinyxml.obj
 0001:0003f570       ??_ETiXmlBase@@UAEPAXI@Z   00440570 f i EngineUILib:tinyxml.obj
 0001:0003f590       ??1TiXmlAttribute@@UAE@XZ  00440590 f i EngineUILib:tinyxml.obj
 0001:0003f5f0       ?PutString@TiXmlBase@@KAXABV?$basic_string@DU?$char_traits@D@std@@V?$allocator@D@2@@std@@PAV23@@Z 004405f0 f   EngineUILib:tinyxml.obj
 0001:0003f790       ??1TiXmlNode@@UAE@XZ       00440790 f   EngineUILib:tinyxml.obj
 0001:0003f800       ?Clear@TiXmlNode@@QAEXXZ   00440800 f   EngineUILib:tinyxml.obj
 0001:0003f830       ?FirstChild@TiXmlNode@@QBEPBV1@PBD@Z 00440830 f   EngineUILib:tinyxml.obj
 0001:0003f8a0       ?NextSibling@TiXmlNode@@QBEPBV1@PBD@Z 004408a0 f   EngineUILib:tinyxml.obj
 0001:0003f910       ?FirstChildElement@TiXmlNode@@QBEPBVTiXmlElement@@PBD@Z 00440910 f   EngineUILib:tinyxml.obj
 0001:0003f950       ?NextSiblingElement@TiXmlNode@@QBEPBVTiXmlElement@@PBD@Z 00440950 f   EngineUILib:tinyxml.obj
 0001:0003f990       ?GetDocument@TiXmlNode@@QBEPBVTiXmlDocument@@XZ 00440990 f   EngineUILib:tinyxml.obj
 0001:0003f9c0       ?Accept@TiXmlElement@@UBE_NPAVTiXmlVisitor@@@Z 004409c0 f   EngineUILib:tinyxml.obj
 0001:0003fa20       ?LoadFile@TiXmlDocument@@QAE_NPAU_iobuf@@W4TiXmlEncoding@@@Z 00440a20 f   EngineUILib:tinyxml.obj
 0001:0003fbc0       ?Print@TiXmlDocument@@UBEXPAU_iobuf@@H@Z 00440bc0 f   EngineUILib:tinyxml.obj
 0001:0003fc10       ?PrintData@TiXmlDocument@@UAEXAAV?$basic_string@DU?$char_traits@D@std@@V?$allocator@D@2@@std@@H@Z 00440c10 f   EngineUILib:tinyxml.obj
 0001:0003fc50       ?Accept@TiXmlDocument@@UBE_NPAVTiXmlVisitor@@@Z 00440c50 f   EngineUILib:tinyxml.obj
 0001:0003fca0       ?Print@TiXmlAttribute@@QBEXPAU_iobuf@@HPAV?$basic_string@DU?$char_traits@D@std@@V?$allocator@D@2@@std@@@Z 00440ca0 f   EngineUILib:tinyxml.obj
 0001:0003fe40       ?PrintData@TiXmlAttribute@@UAEXAAV?$basic_string@DU?$char_traits@D@std@@V?$allocator@D@2@@std@@H@Z 00440e40 f   EngineUILib:tinyxml.obj
 0001:0003ff60       ?Print@TiXmlComment@@UBEXPAU_iobuf@@H@Z 00440f60 f   EngineUILib:tinyxml.obj
 0001:0003ffc0       ?PrintData@TiXmlComment@@UAEXAAV?$basic_string@DU?$char_traits@D@std@@V?$allocator@D@2@@std@@H@Z 00440fc0 f   EngineUILib:tinyxml.obj
 0001:00040010       ?Accept@TiXmlComment@@UBE_NPAVTiXmlVisitor@@@Z 00441010 f   EngineUILib:tinyxml.obj
 0001:00040020       ?Print@TiXmlText@@UBEXPAU_iobuf@@H@Z 00441020 f   EngineUILib:tinyxml.obj
 0001:00040130       ?PrintData@TiXmlText@@UAEXAAV?$basic_string@DU?$char_traits@D@std@@V?$allocator@D@2@@std@@H@Z 00441130 f   EngineUILib:tinyxml.obj
 0001:00040210       ?Accept@TiXmlText@@UBE_NPAVTiXmlVisitor@@@Z 00441210 f   EngineUILib:tinyxml.obj
 0001:00040220       ?Print@TiXmlDeclaration@@UBEXPAU_iobuf@@HPAV?$basic_string@DU?$char_traits@D@std@@V?$allocator@D@2@@std@@@Z 00441220 f   EngineUILib:tinyxml.obj
 0001:00040380       ?PrintData@TiXmlDeclaration@@UAEXAAV?$basic_string@DU?$char_traits@D@std@@V?$allocator@D@2@@std@@H@Z 00441380 f   EngineUILib:tinyxml.obj
 0001:00040440       ?CopyTo@TiXmlDeclaration@@IBEXPAV1@@Z 00441440 f   EngineUILib:tinyxml.obj
 0001:000404a0       ?Accept@TiXmlDeclaration@@UBE_NPAVTiXmlVisitor@@@Z 004414a0 f   EngineUILib:tinyxml.obj
 0001:000404b0       ?Print@TiXmlUnknown@@UBEXPAU_iobuf@@H@Z 004414b0 f   EngineUILib:tinyxml.obj
 0001:00040510       ?PrintData@TiXmlUnknown@@UAEXAAV?$basic_string@DU?$char_traits@D@std@@V?$allocator@D@2@@std@@H@Z 00441510 f   EngineUILib:tinyxml.obj
 0001:00040560       ?Accept@TiXmlUnknown@@UBE_NPAVTiXmlVisitor@@@Z 00441560 f   EngineUILib:tinyxml.obj
 0001:00040570       ??1TiXmlAttributeSet@@QAE@XZ 00441570 f   EngineUILib:tinyxml.obj
 0001:00040580       ?Add@TiXmlAttributeSet@@QAEXPAVTiXmlAttribute@@@Z 00441580 f   EngineUILib:tinyxml.obj
 0001:000405a0       ?Find@TiXmlAttributeSet@@QBEPBVTiXmlAttribute@@ABV?$basic_string@DU?$char_traits@D@std@@V?$allocator@D@2@@std@@@Z 004415a0 f   EngineUILib:tinyxml.obj
 0001:000405e0       ?Find@TiXmlAttributeSet@@QBEPBVTiXmlAttribute@@PBD@Z 004415e0 f   EngineUILib:tinyxml.obj
 0001:00040650       ??0TiXmlAttribute@@QAE@XZ  00441650 f i EngineUILib:tinyxml.obj
 0001:000406c0       ??0TiXmlAttribute@@QAE@PBD0@Z 004416c0 f i EngineUILib:tinyxml.obj
 0001:00040760       ?Print@TiXmlAttribute@@UBEXPAU_iobuf@@H@Z 00441760 f i EngineUILib:tinyxml.obj
 0001:00040780       ??_ETiXmlAttribute@@UAEPAXI@Z 00441780 f i EngineUILib:tinyxml.obj
 0001:00040780       ??_GTiXmlAttribute@@UAEPAXI@Z 00441780 f i EngineUILib:tinyxml.obj
 0001:000407a0       ??0TiXmlNode@@IAE@W4NodeType@0@@Z 004417a0 f   EngineUILib:tinyxml.obj
 0001:00040810       ??_GTiXmlNode@@UAEPAXI@Z   00441810 f i EngineUILib:tinyxml.obj
 0001:00040810       ??_ETiXmlNode@@UAEPAXI@Z   00441810 f i EngineUILib:tinyxml.obj
 0001:00040830       ?LinkEndChild@TiXmlNode@@QAEPAV1@PAV1@@Z 00441830 f   EngineUILib:tinyxml.obj
 0001:000408d0       ?ClearThis@TiXmlElement@@IAEXXZ 004418d0 f   EngineUILib:tinyxml.obj
 0001:00040950       ?Attribute@TiXmlElement@@QBEPBDPBD@Z 00441950 f   EngineUILib:tinyxml.obj
 0001:00040980       ?SetAttribute@TiXmlElement@@QAEXPBD0@Z 00441980 f   EngineUILib:tinyxml.obj
 0001:00040aa0       ?Print@TiXmlElement@@UBEXPAU_iobuf@@H@Z 00441aa0 f   EngineUILib:tinyxml.obj
 0001:00040c20       ?PrintData@TiXmlElement@@UAEXAAV?$basic_string@DU?$char_traits@D@std@@V?$allocator@D@2@@std@@H@Z 00441c20 f   EngineUILib:tinyxml.obj
 0001:00040d90       ?CopyTo@TiXmlElement@@IBEXPAV1@@Z 00441d90 f   EngineUILib:tinyxml.obj
 0001:00040e30       ??0TiXmlDocument@@QAE@XZ   00441e30 f   EngineUILib:tinyxml.obj
 0001:00040ec0       ?LoadFile@TiXmlDocument@@QAE_NPBDW4TiXmlEncoding@@@Z 00441ec0 f   EngineUILib:tinyxml.obj
 0001:00040fa0       ?CopyTo@TiXmlDocument@@ABEXPAV1@@Z 00441fa0 f   EngineUILib:tinyxml.obj
 0001:00041010       ?Clone@TiXmlDocument@@MBEPAVTiXmlNode@@XZ 00442010 f   EngineUILib:tinyxml.obj
 0001:00041090       ??_GTiXmlComment@@UAEPAXI@Z 00442090 f i EngineUILib:tinyxml.obj
 0001:00041090       ??_ETiXmlComment@@UAEPAXI@Z 00442090 f i EngineUILib:tinyxml.obj
 0001:000410b0       ??1TiXmlComment@@UAE@XZ    004420b0 f i EngineUILib:tinyxml.obj
 0001:000410c0       ?Print@TiXmlDeclaration@@UBEXPAU_iobuf@@H@Z 004420c0 f i EngineUILib:tinyxml.obj
 0001:000410e0       ??_GTiXmlDeclaration@@UAEPAXI@Z 004420e0 f i EngineUILib:tinyxml.obj
 0001:000410e0       ??_ETiXmlDeclaration@@UAEPAXI@Z 004420e0 f i EngineUILib:tinyxml.obj
 0001:00041100       ??1TiXmlDeclaration@@UAE@XZ 00442100 f i EngineUILib:tinyxml.obj
 0001:00041170       ??0TiXmlComment@@QAE@XZ    00442170 f i EngineUILib:tinyxml.obj
 0001:00041190       ??0TiXmlText@@QAE@PBD@Z    00442190 f i EngineUILib:tinyxml.obj
 0001:000411f0       ??_ETiXmlText@@UAEPAXI@Z   004421f0 f i EngineUILib:tinyxml.obj
 0001:000411f0       ??_GTiXmlText@@UAEPAXI@Z   004421f0 f i EngineUILib:tinyxml.obj
 0001:00041210       ??1TiXmlText@@UAE@XZ       00442210 f i EngineUILib:tinyxml.obj
 0001:00041220       ??0TiXmlDeclaration@@QAE@XZ 00442220 f i EngineUILib:tinyxml.obj
 0001:00041290       ??0TiXmlUnknown@@QAE@XZ    00442290 f i EngineUILib:tinyxml.obj
 0001:000412b0       ??_ETiXmlUnknown@@UAEPAXI@Z 004422b0 f i EngineUILib:tinyxml.obj
 0001:000412b0       ??_GTiXmlUnknown@@UAEPAXI@Z 004422b0 f i EngineUILib:tinyxml.obj
 0001:000412d0       ??1TiXmlUnknown@@UAE@XZ    004422d0 f i EngineUILib:tinyxml.obj
 0001:000412e0       ??0TiXmlElement@@QAE@PBD@Z 004422e0 f   EngineUILib:tinyxml.obj
 0001:00041360       ?ToUnknown@TiXmlUnknown@@UAEPAV1@XZ 00442360 f i EngineUILib:tinyxml.obj
 0001:00041360       ?ToDocument@TiXmlDocument@@UBEPBV1@XZ 00442360 f i EngineUILib:RanXMLParser.obj
 0001:00041360       ?ToText@TiXmlText@@UBEPBV1@XZ 00442360 f i EngineUILib:tinyxml.obj
 0001:00041360       ?ToDeclaration@TiXmlDeclaration@@UBEPBV1@XZ 00442360 f i EngineUILib:tinyxml.obj
 0001:00041360       ?ToText@TiXmlText@@UAEPAV1@XZ 00442360 f i EngineUILib:tinyxml.obj
 0001:00041360       ??0CBit@SERVER_UTIL@@QAE@XZ 00442360 f i NetClientLib:s_CBit.obj
 0001:00041360       ?ToComment@TiXmlComment@@UAEPAV1@XZ 00442360 f i EngineUILib:tinyxml.obj
 0001:00041360       ?ToComment@TiXmlComment@@UBEPBV1@XZ 00442360 f i EngineUILib:tinyxml.obj
 0001:00041360       ?ToUnknown@TiXmlUnknown@@UBEPBV1@XZ 00442360 f i EngineUILib:tinyxml.obj
 0001:00041360       ?ToDocument@TiXmlDocument@@UAEPAV1@XZ 00442360 f i EngineUILib:RanXMLParser.obj
 0001:00041360       ?ToDeclaration@TiXmlDeclaration@@UAEPAV1@XZ 00442360 f i EngineUILib:tinyxml.obj
 0001:00041360       ?ToElement@TiXmlElement@@UBEPBV1@XZ 00442360 f i EngineUILib:tinyxml.obj
 0001:00041360       ?ToElement@TiXmlElement@@UAEPAV1@XZ 00442360 f i EngineUILib:tinyxml.obj
 0001:00041360       ??0D3DXVECTOR3@@QAE@XZ     00442360 f i EngineSoundLib:DxSoundMan.obj
 0001:00041370       ??1TiXmlElement@@UAE@XZ    00442370 f   EngineUILib:tinyxml.obj
 0001:000413d0       ?Clone@TiXmlElement@@UBEPAVTiXmlNode@@XZ 004423d0 f   EngineUILib:tinyxml.obj
 0001:00041470       ?Clone@TiXmlComment@@UBEPAVTiXmlNode@@XZ 00442470 f   EngineUILib:tinyxml.obj
 0001:00041510       ?Clone@TiXmlText@@MBEPAVTiXmlNode@@XZ 00442510 f   EngineUILib:tinyxml.obj
 0001:000415b0       ?Clone@TiXmlDeclaration@@UBEPAVTiXmlNode@@XZ 004425b0 f   EngineUILib:tinyxml.obj
 0001:00041630       ?Clone@TiXmlUnknown@@UBEPAVTiXmlNode@@XZ 00442630 f   EngineUILib:tinyxml.obj
 0001:000416d0       ??_GTiXmlElement@@UAEPAXI@Z 004426d0 f i EngineUILib:tinyxml.obj
 0001:000416d0       ??_ETiXmlElement@@UAEPAXI@Z 004426d0 f i EngineUILib:tinyxml.obj
 0001:000416f0       ?IsWhiteSpace@TiXmlBase@@KA_ND@Z 004426f0 f i EngineUILib:tinyxmlparser.obj
 0001:00041720       ?ConvertUTF32ToUTF8@TiXmlBase@@KAXKPADPAH@Z 00442720 f   EngineUILib:tinyxmlparser.obj
 0001:00041820       ?IsAlpha@TiXmlBase@@KAHEW4TiXmlEncoding@@@Z 00442820 f   EngineUILib:tinyxmlparser.obj
 0001:00041840       ?Stamp@TiXmlParsingData@@QAEXPBDW4TiXmlEncoding@@@Z 00442840 f   EngineUILib:tinyxmlparser.obj
 0001:00041a40       ?SkipWhiteSpace@TiXmlBase@@KAPBDPBDW4TiXmlEncoding@@@Z 00442a40 f   EngineUILib:tinyxmlparser.obj
 0001:00041b00       ?StreamWhiteSpace@TiXmlBase@@KA_NPAV?$basic_istream@DU?$char_traits@D@std@@@std@@PAV?$basic_string@DU?$char_traits@D@std@@V?$allocator@D@2@@3@@Z 00442b00 f   EngineUILib:tinyxmlparser.obj
 0001:00041b80       ?StreamTo@TiXmlBase@@KA_NPAV?$basic_istream@DU?$char_traits@D@std@@@std@@HPAV?$basic_string@DU?$char_traits@D@std@@V?$allocator@D@2@@3@@Z 00442b80 f   EngineUILib:tinyxmlparser.obj
 0001:00041be0       ?ReadName@TiXmlBase@@KAPBDPBDPAV?$basic_string@DU?$char_traits@D@std@@V?$allocator@D@2@@std@@W4TiXmlEncoding@@@Z 00442be0 f   EngineUILib:tinyxmlparser.obj
 0001:00041c70       ?GetEntity@TiXmlBase@@KAPBDPBDPADPAHW4TiXmlEncoding@@@Z 00442c70 f   EngineUILib:tinyxmlparser.obj
 0001:00041ed0       ?StringEqual@TiXmlBase@@KA_NPBD0_NW4TiXmlEncoding@@@Z 00442ed0 f   EngineUILib:tinyxmlparser.obj
 0001:00041f80       ?SetError@TiXmlDocument@@QAEXHPBDPAVTiXmlParsingData@@W4TiXmlEncoding@@@Z 00442f80 f   EngineUILib:tinyxmlparser.obj
 0001:00041fe0       ?Identify@TiXmlNode@@IAEPAV1@PBDW4TiXmlEncoding@@@Z 00442fe0 f   EngineUILib:tinyxmlparser.obj
 0001:00042290       ?StreamIn@TiXmlUnknown@@MAEXPAV?$basic_istream@DU?$char_traits@D@std@@@std@@PAV?$basic_string@DU?$char_traits@D@std@@V?$allocator@D@2@@3@@Z 00443290 f   EngineUILib:tinyxmlparser.obj
 0001:00042290       ?StreamIn@TiXmlDeclaration@@MAEXPAV?$basic_istream@DU?$char_traits@D@std@@@std@@PAV?$basic_string@DU?$char_traits@D@std@@V?$allocator@D@2@@3@@Z 00443290 f   EngineUILib:tinyxmlparser.obj
 0001:00042320       ?Parse@TiXmlUnknown@@UAEPBDPBDPAVTiXmlParsingData@@W4TiXmlEncoding@@@Z 00443320 f   EngineUILib:tinyxmlparser.obj
 0001:00042400       ?StreamIn@TiXmlComment@@MAEXPAV?$basic_istream@DU?$char_traits@D@std@@@std@@PAV?$basic_string@DU?$char_traits@D@std@@V?$allocator@D@2@@3@@Z 00443400 f   EngineUILib:tinyxmlparser.obj
 0001:000424e0       ?StreamIn@TiXmlText@@MAEXPAV?$basic_istream@DU?$char_traits@D@std@@@std@@PAV?$basic_string@DU?$char_traits@D@std@@V?$allocator@D@2@@3@@Z 004434e0 f   EngineUILib:tinyxmlparser.obj
 0001:000425c0       ?Blank@TiXmlText@@IBE_NXZ  004435c0 f   EngineUILib:tinyxmlparser.obj
 0001:00042620       ?GetChar@TiXmlBase@@KAPBDPBDPADPAHW4TiXmlEncoding@@@Z 00443620 f i EngineUILib:tinyxmlparser.obj
 0001:000426b0       ?ReadText@TiXmlBase@@KAPBDPBDPAV?$basic_string@DU?$char_traits@D@std@@V?$allocator@D@2@@std@@_N02W4TiXmlEncoding@@@Z 004436b0 f   EngineUILib:tinyxmlparser.obj
 0001:00042860       ?StreamIn@TiXmlDocument@@MAEXPAV?$basic_istream@DU?$char_traits@D@std@@@std@@PAV?$basic_string@DU?$char_traits@D@std@@V?$allocator@D@2@@3@@Z 00443860 f   EngineUILib:tinyxmlparser.obj
 0001:000429e0       ?Parse@TiXmlDocument@@UAEPBDPBDPAVTiXmlParsingData@@W4TiXmlEncoding@@@Z 004439e0 f   EngineUILib:tinyxmlparser.obj
 0001:00042c70       ?StreamIn@TiXmlElement@@MAEXPAV?$basic_istream@DU?$char_traits@D@std@@@std@@PAV?$basic_string@DU?$char_traits@D@std@@V?$allocator@D@2@@3@@Z 00443c70 f   EngineUILib:tinyxmlparser.obj
 0001:00042fa0       ?ReadValue@TiXmlElement@@IAEPBDPBDPAVTiXmlParsingData@@W4TiXmlEncoding@@@Z 00443fa0 f   EngineUILib:tinyxmlparser.obj
 0001:000431a0       ?Parse@TiXmlComment@@UAEPBDPBDPAVTiXmlParsingData@@W4TiXmlEncoding@@@Z 004441a0 f   EngineUILib:tinyxmlparser.obj
 0001:00043270       ?Parse@TiXmlAttribute@@UAEPBDPBDPAVTiXmlParsingData@@W4TiXmlEncoding@@@Z 00444270 f   EngineUILib:tinyxmlparser.obj
 0001:00043400       ?Parse@TiXmlText@@UAEPBDPBDPAVTiXmlParsingData@@W4TiXmlEncoding@@@Z 00444400 f   EngineUILib:tinyxmlparser.obj
 0001:000435e0       ?Parse@TiXmlDeclaration@@UAEPBDPBDPAVTiXmlParsingData@@W4TiXmlEncoding@@@Z 004445e0 f   EngineUILib:tinyxmlparser.obj
 0001:000438b0       ?Parse@TiXmlElement@@UAEPBDPBDPAVTiXmlParsingData@@W4TiXmlEncoding@@@Z 004448b0 f   EngineUILib:tinyxmlparser.obj
 0001:00043c20       ?BugTrapInstall@BUG_TRAP@@YAXAAV?$basic_string@DU?$char_traits@D@std@@V?$allocator@D@2@@std@@_N1@Z 00444c20 f   MfcExLib:MinBugTrap.obj
 0001:00043ce0       ??0SERVER_SET@RANPARAM@@QAE@XZ 00444ce0 f i MfcExLib:RANPARAM.obj
 0001:00043d40       ??1SERVER_SET@RANPARAM@@QAE@XZ 00444d40 f i MfcExLib:RANPARAM.obj
 0001:00043da0       ?SAVE@RANPARAM@@YAHXZ      00444da0 f   MfcExLib:RANPARAM.obj
 0001:00044330       ??$getflag@I@gltexfile@@QAE_NV?$basic_string@DU?$char_traits@D@std@@V?$allocator@D@2@@std@@HHAAI@Z 00445330 f i MfcExLib:RANPARAM.obj
 0001:00044330       ??$getflag@J@gltexfile@@QAE_NV?$basic_string@DU?$char_traits@D@std@@V?$allocator@D@2@@std@@HHAAJ@Z 00445330 f i MfcExLib:RANPARAM.obj
 0001:000443f0       ??$getflag@I@CIniLoader@@QAE_NV?$basic_string@DU?$char_traits@D@std@@V?$allocator@D@2@@std@@0HHAAI@Z 004453f0 f i MfcExLib:RANPARAM.obj
 0001:000443f0       ??$getflag@J@CIniLoader@@QAE_NV?$basic_string@DU?$char_traits@D@std@@V?$allocator@D@2@@std@@0HHAAJ@Z 004453f0 f i MfcExLib:RANPARAM.obj
 0001:000443f0       ??$getflag@H@CIniLoader@@QAE_NV?$basic_string@DU?$char_traits@D@std@@V?$allocator@D@2@@std@@0HHAAH@Z 004453f0 f i MfcExLib:RANPARAM.obj
 0001:000444f0       ??$getflag@_N@gltexfile@@QAE_NV?$basic_string@DU?$char_traits@D@std@@V?$allocator@D@2@@std@@HHAA_N@Z 004454f0 f i MfcExLib:RANPARAM.obj
 0001:000445c0       ??$getflag@V?$basic_string@DU?$char_traits@D@std@@V?$allocator@D@2@@std@@@gltexfile@@QAE_NV?$basic_string@DU?$char_traits@D@std@@V?$allocator@D@2@@std@@HHAAV12@@Z 004455c0 f i MfcExLib:RANPARAM.obj
 0001:00044670       ??$getflag@V?$CStringT@DV?$StrTraitMFC_DLL@DV?$ChTraitsCRT@D@ATL@@@@@ATL@@@gltexfile@@QAE_NV?$basic_string@DU?$char_traits@D@std@@V?$allocator@D@2@@std@@HHAAV?$CStringT@DV?$StrTraitMFC_DLL@DV?$ChTraitsCRT@D@ATL@@@@@ATL@@@Z 00445670 f i MfcExLib:RANPARAM.obj
 0001:00044730       ?getflag_sz@gltexfile@@QAE_NV?$basic_string@DU?$char_traits@D@std@@V?$allocator@D@2@@std@@HHPADH@Z 00445730 f i MfcExLib:RANPARAM.obj
 0001:00044800       ??$getflag@V?$basic_string@DU?$char_traits@D@std@@V?$allocator@D@2@@std@@@CIniLoader@@QAE_NV?$basic_string@DU?$char_traits@D@std@@V?$allocator@D@2@@std@@0HHAAV12@@Z 00445800 f i MfcExLib:RANPARAM.obj
 0001:000448f0       ??$getflag@V?$CStringT@DV?$StrTraitMFC_DLL@DV?$ChTraitsCRT@D@ATL@@@@@ATL@@@CIniLoader@@QAE_NV?$basic_string@DU?$char_traits@D@std@@V?$allocator@D@2@@std@@0HHAAV?$CStringT@DV?$StrTraitMFC_DLL@DV?$ChTraitsCRT@D@ATL@@@@@ATL@@@Z 004458f0 f i MfcExLib:RANPARAM.obj
 0001:000449f0       ?getflag_sz@CIniLoader@@QAE_NV?$basic_string@DU?$char_traits@D@std@@V?$allocator@D@2@@std@@0HHPADH@Z 004459f0 f i MfcExLib:RANPARAM.obj
 0001:00044b00       ?LOAD_CFG@RANPARAM@@YAHPBD@Z 00445b00 f   MfcExLib:RANPARAM.obj
 0001:000455a0       ?LOAD_PARAM@RANPARAM@@YAHPBD@Z 004465a0 f   MfcExLib:RANPARAM.obj
 0001:00045da0       ?LOAD_OPT@RANPARAM@@YAHPBD_N@Z 00446da0 f   MfcExLib:RANPARAM.obj
 0001:00046840       ?LOAD@RANPARAM@@YAHPBD_N@Z 00447840 f   MfcExLib:RANPARAM.obj
 0001:00046880       ?_showLastError@rol_clipboard@@YAXPAD@Z 00447880 f   MfcExLib:rol_clipboard.obj
 0001:000468e0       ?InitClipboard@rol_clipboard@@YA_NXZ 004478e0 f   MfcExLib:rol_clipboard.obj
 0001:00046910       ??0SROL_HEADER@rol_clipboard@@QAE@XZ 00447910 f i MfcExLib:rol_clipboard.obj
 0001:00046960       ?NewGlobalAlloc@rol_clipboard@@YAPAXXZ 00447960 f   MfcExLib:rol_clipboard.obj
 0001:000469d0       ?PutClipboard@rol_clipboard@@YAPAXPAUHWND__@@@Z 004479d0 f   MfcExLib:rol_clipboard.obj
 0001:00046a50       ?SetCabForceTerminate@@YAXPAH@Z 00447a50 f   MfcExLib:CompactFdi.obj
 0001:00046a60       ?SetCabProgressValue@@YAXPA_K0@Z 00447a60 f   MfcExLib:CompactFdi.obj
 0001:00046a80       ?mem_alloc@@YAPAXK@Z       00447a80 f   MfcExLib:CompactFdi.obj
 0001:00046a90       ?mem_free@@YAXPAX@Z        00447a90 f   MfcExLib:CompactFdi.obj
 0001:00046aa0       ?file_open@@YAHPADHH@Z     00447aa0 f   MfcExLib:CompactFdi.obj
 0001:00046ab0       ?file_read@@YAIHPAXI@Z     00447ab0 f   MfcExLib:CompactFdi.obj
 0001:00046ac0       ?file_write@@YAIHPAXI@Z    00447ac0 f   MfcExLib:CompactFdi.obj
 0001:00046b10       ?file_close@@YAHH@Z        00447b10 f   MfcExLib:CompactFdi.obj
 0001:00046b20       ?file_seek@@YAJHJH@Z       00447b20 f   MfcExLib:CompactFdi.obj
 0001:00046b30       ?notification_function@@YAHW4FDINOTIFICATIONTYPE@@PAUFDINOTIFICATION@@@Z 00447b30 f   MfcExLib:CompactFdi.obj
 0001:00046cc0       ?return_fdi_error_string@@YAPBDW4FDIERROR@@@Z 00447cc0 f   MfcExLib:CompactFdi.obj
 0001:00046d70       ?StringCopyNWorkerA@@YGJPADIPBDI@Z 00447d70 f i MfcExLib:CompactFdi.obj
 0001:00046dd0       ?GetErrorMsg@@YAPBDXZ      00447dd0 f   MfcExLib:CompactFdi.obj
 0001:00046de0       ?test_fdi@@YAHPBD@Z        00447de0 f   MfcExLib:CompactFdi.obj
 0001:00047000       ?Extract@@YAHPBD0@Z        00448000 f   MfcExLib:CompactFdi.obj
 0001:00047060       ?SetWin_Combo_Init@@YAXPAVCDialog@@HPAV?$basic_string@DU?$char_traits@D@std@@V?$allocator@D@2@@std@@H@Z 00448060 f   MfcExLib:EtcFunction.obj
 0001:00047120       ?SetWin_Combo_SelMfc@@YA_NPAVCDialog@@HV?$CStringT@DV?$StrTraitMFC_DLL@DV?$ChTraitsCRT@D@ATL@@@@@ATL@@@Z 00448120 f   MfcExLib:EtcFunction.obj
 0001:00047210       ?SetWin_Combo_Sel@@YA_NPAVCDialog@@HV?$basic_string@DU?$char_traits@D@std@@V?$allocator@D@2@@std@@@Z 00448210 f   MfcExLib:EtcFunction.obj
 0001:00047370       ?SetWin_Combo_Sel@@YAXPAVCDialog@@HH@Z 00448370 f   MfcExLib:EtcFunction.obj
 0001:000473f0       ?SetWin_Check@@YAXPAVCDialog@@HH@Z 004483f0 f   MfcExLib:EtcFunction.obj
 0001:00047420       ?GetWin_Check@@YAHPAVCDialog@@H@Z 00448420 f   MfcExLib:EtcFunction.obj
 0001:00047442       _D3DXVec3Normalize@8       00448442 f   d3dx9:d3dx9_26.dll
 0001:00047448       _D3DXMatrixLookAtLH@16     00448448 f   d3dx9:d3dx9_26.dll
 0001:0004744e       _D3DXVec3Project@24        0044844e f   d3dx9:d3dx9_26.dll
 0001:00047454       _D3DXMatrixMultiply@12     00448454 f   d3dx9:d3dx9_26.dll
 0001:0004745a       _D3DXMatrixTranslation@16  0044845a f   d3dx9:d3dx9_26.dll
 0001:00047460       _D3DXMatrixScaling@16      00448460 f   d3dx9:d3dx9_26.dll
 0001:00047466       _D3DXCreateTextureFromFileExA@56 00448466 f   d3dx9:d3dx9_26.dll
 0001:0004746c       _D3DXGetFVFVertexSize@4    0044846c f   d3dx9:d3dx9_26.dll
 0001:00047472       _D3DXCreateTextureFromFileInMemoryEx@60 00448472 f   d3dx9:d3dx9_26.dll
 0001:00047478       _D3DXCreateCubeTextureFromFileExA@52 00448478 f   d3dx9:d3dx9_26.dll
 0001:0004747e       _D3DXCreateCubeTextureFromFileInMemoryEx@56 0044847e f   d3dx9:d3dx9_26.dll
 0001:00047484       _Direct3DCreate9@4         00448484 f   d3d9:d3d9.dll
 0001:0004748a       _DirectSoundCreate8@12     0044848a f   dsound:DSOUND.dll
 0001:00047490       _DXGetErrorString9A@4      00448490 f   DxErr9:dxerr9.obj
 0001:0005a1f0       _FDICreate                 0045b1f0 f   Fdi:fdi.obj
 0001:0005a290       _FDIDestroy                0045b290 f   Fdi:fdi.obj
 0001:0005a300       _FDIIsCabinet              0045b300 f   Fdi:fdi.obj
 0001:0005a3d0       _FDICopy                   0045b3d0 f   Fdi:fdi.obj
 0001:0005a680       _LoginCabinet              0045b680 f   Fdi:fdi.obj
 0001:0005aac0       _FDIGetFile                0045bac0 f   Fdi:fdi.obj
 0001:0005ac40       _FDIGetDataBlock           0045bc40 f   Fdi:fdi.obj
 0001:0005ad20       _SwitchToNewCab            0045bd20 f   Fdi:fdi.obj
 0001:0005aeb0       _doCabinetInfoNotify       0045beb0 f   Fdi:fdi.obj
 0001:0005af70       _InitFolder                0045bf70 f   Fdi:fdi.obj
 0001:0005aff0       _SeekFolder                0045bff0 f   Fdi:fdi.obj
 0001:0005b110       _FDIReadCFFILEEntry        0045c110 f   Fdi:fdi.obj
 0001:0005b160       _FDIReadCFDATAEntry        0045c160 f   Fdi:fdi.obj
 0001:0005b2d0       _FDIReadPSZ                0045c2d0 f   Fdi:fdi.obj
 0001:0005b390       _FDICallEnumerate          0045c390 f   Fdi:fdi.obj
 0001:0005b460       _SetDecompressionType      0045c460 f   Fdi:fdi.obj
 0001:0005b4c0       _MDIDestroyDecompressionGlobal 0045c4c0 f   Fdi:fdi.obj
 0001:0005b5b0       _MDICreateDecompressionGlobal 0045c5b0 f   Fdi:fdi.obj
 0001:0005b870       _MDIResetDecompressionGlobal 0045c870 f   Fdi:fdi.obj
 0001:0005b940       _MDIDecompressGlobal       0045c940 f   Fdi:fdi.obj
 0001:0005bad0       _ErfSetCodes               0045cad0 f   Fdi:erf.obj
 0001:0005baec       _CSUMCompute               0045caec f   Fdi:CSUM.OBJ
 0001:0005bb70       _LDICreateDecompression    0045cb70 f   Fdi:ldi.oad
 0001:0005bc70       _LDIDecompress             0045cc70 f   Fdi:ldi.oad
 0001:0005bcf0       _LDIResetDecompression     0045ccf0 f   Fdi:ldi.oad
 0001:0005bd20       _LDIDestroyDecompression   0045cd20 f   Fdi:ldi.oad
 0001:0005bd60       _QDICreateDecompression    0045cd60 f   Fdi:qdi.ord
 0001:0005be50       _QDIDecompress             0045ce50 f   Fdi:qdi.ord
 0001:0005beb0       _QDIResetDecompression     0045ceb0 f   Fdi:qdi.ord
 0001:0005bed0       _QDIDestroyDecompression   0045ced0 f   Fdi:qdi.ord
 0001:0005bf00       _Rtl_Malloc                0045cf00 f   Fdi:qdi.ord
 0001:0005bf20       _Rtl_Free                  0045cf20 f   Fdi:qdi.ord
 0001:0005bf40       _MDICreateDecompression    0045cf40 f   Fdi:mdi.obj
 0001:0005bfe0       _MDIDecompress             0045cfe0 f   Fdi:mdi.obj
 0001:0005c050       _MDIResetDecompression     0045d050 f   Fdi:mdi.obj
 0001:0005c070       _MDIDestroyDecompression   0045d070 f   Fdi:mdi.obj
 0001:0005c0b0       _LZX_DecodeInit            0045d0b0 f   Fdi:decapi.oad
 0001:0005c140       _LZX_DecodeFree            0045d140 f   Fdi:decapi.oad
 0001:0005c150       _LZX_DecodeNewGroup        0045d150 f   Fdi:decapi.oad
 0001:0005c180       _LZX_Decode                0045d180 f   Fdi:decapi.oad
 0001:0005c1f0       _DComp_Init                0045d1f0 f   Fdi:dcomp.ord
 0001:0005c3b0       _DComp_DecompressBlock     0045d3b0 f   Fdi:dcomp.ord
 0001:0005c440       _DComp_Close               0045d440 f   Fdi:dcomp.ord
 0001:0005c470       _DComp_Reset               0045d470 f   Fdi:dcomp.ord
 0001:0005ca90       _NFM_Prepare               0045da90 f   Fdi:nfmdeco.obj
 0001:0005cae0       _NFM_Decompress            0045dae0 f   Fdi:nfmdeco.obj
 0001:0005ded0       _NFMdeco_create            0045eed0 f   Fdi:nfmdeco.obj
 0001:0005e040       _NFMdeco_destroy           0045f040 f   Fdi:nfmdeco.obj
 0001:0005e050       _allocate_decompression_memory 0045f050 f   Fdi:decinit.oad
 0001:0005e0b0       _free_decompression_memory 0045f0b0 f   Fdi:decinit.oad
 0001:0005e0d0       _reset_decoder_trees       0045f0d0 f   Fdi:decinit.oad
 0001:0005e130       _decoder_misc_init         0045f130 f   Fdi:decinit.oad
 0001:0005e180       _init_decoder_translation  0045f180 f   Fdi:decxlat.oad
 0001:0005e190       _decoder_translate_e8      0045f190 f   Fdi:decxlat.oad
 0001:0005e1c0       _decode_data               0045f1c0 f   Fdi:decblk.oad
 0001:0005e490       _initialise_decoder_bitbuf 0045f490 f   Fdi:decin.oad
 0001:0005e4e0       _init_decoder_input        0045f4e0 f   Fdi:decin.oad
 0001:0005e4f0       _fillbuf                   0045f4f0 f   Fdi:decin.oad
 0001:0005e5c0       _getbits                   0045f5c0 f   Fdi:decin.oad
 0001:0005e5f0       _Lz_Init                   0045f5f0 f   Fdi:lz.ord
 0001:0005e7c0       _Lz_Bump                   0045f7c0 f   Fdi:lz.ord
 0001:0005e8a0       _Lz_NextToken              0045f8a0 f   Fdi:lz.ord
 0001:0005eec0       _Arith_Init                0045fec0 f   Fdi:arith.ord
 0001:0005ef70       _Arith_Decode_Bits         0045ff70 f   Fdi:arith.ord
 0001:0005f010       @Arith_GetCount@4          00460010 f   Fdi:arith.ord
 0001:0005f040       @Arith_Remove_Symbol@8     00460040 f   Fdi:arith.ord
 0001:0005f18c       _asm_decoder_translate_e8  0046018c f   Fdi:xlatasm.obj
 0001:0005f260       _copy_data_to_output       00460260 f   Fdi:decout.oad
 0001:0005f2b0       _read_main_and_secondary_trees 004602b0 f   Fdi:dectree.oad
 0001:0005f600       _read_aligned_offset_tree  00460600 f   Fdi:dectree.oad
 0001:0005f650       _decode_uncompressed_block 00460650 f   Fdi:decuncmp.oad
 0001:0005f6d0       _handle_beginning_of_uncompressed_block 004606d0 f   Fdi:decuncmp.oad
 0001:0005f740       _decode_verbatim_block     00460740 f   Fdi:decverb.oad
 0001:0005fa30       _fast_decode_aligned_offset_block 00460a30 f   Fdi:decalign.oad
 0001:0005fdb0       _decode_aligned_offset_block 00460db0 f   Fdi:decalign.oad
 0001:0006016c       _make_table                0046116c f   Fdi:tableasm.obj
 0001:000603f0       _make_table_8bit           004613f0 f   Fdi:maketbl.oad
 0001:00060583       _fast_decode_verbatim_block 00461583 f   Fdi:dv.obj
 0001:00060812       _StringCopyWorkerA@12      00461812 f   strsafe:strsafe.obj
 0001:0006084d       _StringCchCopyA@12         0046184d f   strsafe:strsafe.obj
 0001:00060870       __lzo_config_check         00461870 f   lzo2:lzo_init.obj
 0001:000608c0       ___lzo_init_v2             004618c0 f   lzo2:lzo_init.obj
 0001:00060960       _lzo1x_decompress          00461960 f   lzo2:lzo1x_d1.obj
 0001:00060bc0       ?OnHelp@CWinApp@@IAEXXZ    00461bc0 f   mfc71:MFC71.DLL
 0001:00060bc6       ?GetThisMessageMap@CWinApp@@KGPBUAFX_MSGMAP@@XZ 00461bc6 f   mfc71:MFC71.DLL
 0001:00060bcc       ?LoadSysPolicies@CWinApp@@UAEHXZ 00461bcc f   mfc71:MFC71.DLL
 0001:00060bd2       ?LoadAppLangResourceDLL@CWinApp@@UAEPAUHINSTANCE__@@XZ 00461bd2 f   mfc71:MFC71.DLL
 0001:00060bd8       ?WinHelpInternal@CWinApp@@UAEXKI@Z 00461bd8 f   mfc71:MFC71.DLL
 0001:00060bde       ?HtmlHelpA@CWinApp@@UAEXKI@Z 00461bde f   mfc71:MFC71.DLL
 0001:00060be4       ?WinHelpA@CWinApp@@UAEXKI@Z 00461be4 f   mfc71:MFC71.DLL
 0001:00060bea       ?OnDDECommand@CWinApp@@UAEHPAD@Z 00461bea f   mfc71:MFC71.DLL
 0001:00060bf0       ?DoWaitCursor@CWinApp@@UAEXH@Z 00461bf0 f   mfc71:MFC71.DLL
 0001:00060bf6       ?DoMessageBox@CWinApp@@UAEHPBDII@Z 00461bf6 f   mfc71:MFC71.DLL
 0001:00060bfc       ?SaveAllModified@CWinApp@@UAEHXZ 00461bfc f   mfc71:MFC71.DLL
 0001:00060c02       ?AddToRecentFileList@CWinApp@@UAEXPBD@Z 00461c02 f   mfc71:MFC71.DLL
 0001:00060c08       ?OpenDocumentFile@CWinApp@@UAEPAVCDocument@@PBD@Z 00461c08 f   mfc71:MFC71.DLL
 0001:00060c0e       ?Unregister@CWinApp@@UAEHXZ 00461c0e f   mfc71:MFC71.DLL
 0001:00060c14       ?Register@CWinApp@@UAEHXZ  00461c14 f   mfc71:MFC71.DLL
 0001:00060c1a       ?InitLibId@CWinApp@@UAEXXZ 00461c1a f   mfc71:MFC71.DLL
 0001:00060c20       ?Delete@CWinThread@@UAEXXZ 00461c20 f   mfc71:MFC71.DLL
 0001:00060c26       ?GetMainWnd@CWinThread@@UAEPAVCWnd@@XZ 00461c26 f   mfc71:MFC71.DLL
 0001:00060c2c       ?ProcessMessageFilter@CWinThread@@UAEHHPAUtagMSG@@@Z 00461c2c f   mfc71:MFC71.DLL
 0001:00060c32       ?ProcessWndProcException@CWinApp@@UAEJPAVCException@@PBUtagMSG@@@Z 00461c32 f   mfc71:MFC71.DLL
 0001:00060c38       ?ExitInstance@CWinApp@@UAEHXZ 00461c38 f   mfc71:MFC71.DLL
 0001:00060c3e       ?IsIdleMessage@CWinThread@@UAEHPAUtagMSG@@@Z 00461c3e f   mfc71:MFC71.DLL
 0001:00060c44       ?OnIdle@CWinApp@@UAEHJ@Z   00461c44 f   mfc71:MFC71.DLL
 0001:00060c4a       ?PumpMessage@CWinThread@@UAEHXZ 00461c4a f   mfc71:MFC71.DLL
 0001:00060c50       ?PreTranslateMessage@CWinThread@@UAEHPAUtagMSG@@@Z 00461c50 f   mfc71:MFC71.DLL
 0001:00060c56       ?Run@CWinApp@@UAEHXZ       00461c56 f   mfc71:MFC71.DLL
 0001:00060c5c       ?GetConnectionHook@CCmdTarget@@MAEPAUIConnectionPoint@@ABU_GUID@@@Z 00461c5c f   mfc71:MFC71.DLL
 0001:00060c62       ?GetExtraConnectionPoints@CCmdTarget@@MAEHPAVCPtrArray@@@Z 00461c62 f   mfc71:MFC71.DLL
 0001:00060c68       ?GetInterfaceHook@CCmdTarget@@UAEPAUIUnknown@@PBX@Z 00461c68 f   mfc71:MFC71.DLL
 0001:00060c6e       ?OnCreateAggregates@CCmdTarget@@UAEHXZ 00461c6e f   mfc71:MFC71.DLL
 0001:00060c74       ?GetEventSinkMap@CCmdTarget@@MBEPBUAFX_EVENTSINKMAP@@XZ 00461c74 f   mfc71:MFC71.DLL
 0001:00060c7a       ?GetInterfaceMap@CCmdTarget@@MBEPBUAFX_INTERFACEMAP@@XZ 00461c7a f   mfc71:MFC71.DLL
 0001:00060c80       ?GetConnectionMap@CCmdTarget@@MBEPBUAFX_CONNECTIONMAP@@XZ 00461c80 f   mfc71:MFC71.DLL
 0001:00060c86       ?GetDispatchMap@CCmdTarget@@MBEPBUAFX_DISPMAP@@XZ 00461c86 f   mfc71:MFC71.DLL
 0001:00060c8c       ?GetCommandMap@CCmdTarget@@MBEPBUAFX_OLECMDMAP@@XZ 00461c8c f   mfc71:MFC71.DLL
 0001:00060c92       ?GetTypeLib@CCmdTarget@@UAEJKPAPAUITypeLib@@@Z 00461c92 f   mfc71:MFC71.DLL
 0001:00060c98       ?GetTypeLibCache@CCmdTarget@@UAEPAVCTypeLibCache@@XZ 00461c98 f   mfc71:MFC71.DLL
 0001:00060c9e       ?GetTypeInfoCount@CCmdTarget@@UAEIXZ 00461c9e f   mfc71:MFC71.DLL
 0001:00060ca4       ?GetDispatchIID@CCmdTarget@@UAEHPAU_GUID@@@Z 00461ca4 f   mfc71:MFC71.DLL
 0001:00060caa       ?IsInvokeAllowed@CCmdTarget@@UAEHJ@Z 00461caa f   mfc71:MFC71.DLL
 0001:00060cb0       ?OnFinalRelease@CCmdTarget@@UAEXXZ 00461cb0 f   mfc71:MFC71.DLL
 0001:00060cb6       ?OnCmdMsg@CCmdTarget@@UAEHIHPAXPAUAFX_CMDHANDLERINFO@@@Z 00461cb6 f   mfc71:MFC71.DLL
 0001:00060cbc       ?GetRuntimeClass@CWinApp@@UBEPAUCRuntimeClass@@XZ 00461cbc f   mfc71:MFC71.DLL
 0001:00060cc2       ??1CWinApp@@UAE@XZ         00461cc2 f   mfc71:MFC71.DLL
 0001:00060cc8       ??0CWinApp@@QAE@PBD@Z      00461cc8 f   mfc71:MFC71.DLL
 0001:00060cce       ??3@YAXPAX@Z               00461cce f   mfc71:MFC71.DLL
 0001:00060cd4       ??1CWnd@@UAE@XZ            00461cd4 f   mfc71:MFC71.DLL
 0001:00060cda       ?InitApplication@CWinApp@@UAEHXZ 00461cda f   mfc71:MFC71.DLL
 0001:00060ce0       ??1CDialog@@UAE@XZ         00461ce0 f   mfc71:MFC71.DLL
 0001:00060ce6       ??1CProgressCtrl@@UAE@XZ   00461ce6 f   mfc71:MFC71.DLL
 0001:00060cec       ??1CButton@@UAE@XZ         00461cec f   mfc71:MFC71.DLL
 0001:00060cf2       ??1CListBox@@UAE@XZ        00461cf2 f   mfc71:MFC71.DLL
 0001:00060cf8       ?IsDialogMessageA@COccManager@@UAEHPAVCWnd@@PAUtagMSG@@@Z 00461cf8 f   mfc71:MFC71.DLL
 0001:00060cfe       ?CreateDlgControls@COccManager@@UAEHPAVCWnd@@PBDPAU_AFX_OCC_DIALOG_INFO@@@Z 00461cfe f   mfc71:MFC71.DLL
 0001:00060d04       ?CreateDlgControls@COccManager@@UAEHPAVCWnd@@PAXPAU_AFX_OCC_DIALOG_INFO@@@Z 00461d04 f   mfc71:MFC71.DLL
 0001:00060d0a       ?SplitDialogTemplate@COccManager@@UAEPAUDLGTEMPLATE@@PBU2@PAPAUDLGITEMTEMPLATE@@@Z 00461d0a f   mfc71:MFC71.DLL
 0001:00060d10       ?PostCreateDialog@COccManager@@UAEXPAU_AFX_OCC_DIALOG_INFO@@@Z 00461d10 f   mfc71:MFC71.DLL
 0001:00060d16       ?PreCreateDialog@COccManager@@UAEPBUDLGTEMPLATE@@PAU_AFX_OCC_DIALOG_INFO@@PBU2@@Z 00461d16 f   mfc71:MFC71.DLL
 0001:00060d1c       ?CreateSite@COccManager@@UAEPAVCOleControlSite@@PAVCOleControlContainer@@@Z 00461d1c f   mfc71:MFC71.DLL
 0001:00060d22       ?CreateContainer@COccManager@@UAEPAVCOleControlContainer@@PAVCWnd@@@Z 00461d22 f   mfc71:MFC71.DLL
 0001:00060d28       ?OnEvent@COccManager@@UAEHPAVCCmdTarget@@IPAUAFX_EVENT@@PAUAFX_CMDHANDLERINFO@@@Z 00461d28 f   mfc71:MFC71.DLL
 0001:00060d2e       ??3CNoTrackObject@@SGXPAX@Z 00461d2e f   mfc71:MFC71.DLL
 0001:00060d34       ?DoModal@CDialog@@UAEHXZ   00461d34 f   mfc71:MFC71.DLL
 0001:00060d3a       ??2CNoTrackObject@@SGPAXI@Z 00461d3a f   mfc71:MFC71.DLL
 0001:00060d40       ??2@YAPAXI@Z               00461d40 f   mfc71:MFC71.DLL
 0001:00060d46       ?AfxEnableControlContainer@@YAXPAVCOccManager@@@Z 00461d46 f   mfc71:MFC71.DLL
 0001:00060d4c       ?InitInstance@CWinApp@@UAEHXZ 00461d4c f   mfc71:MFC71.DLL
 0001:00060d52       ?EndDialog@CDialog@@QAEXH@Z 00461d52 f   mfc71:MFC71.DLL
 0001:00060d58       ?EnableWindow@CWnd@@QAEHH@Z 00461d58 f   mfc71:MFC71.DLL
 0001:00060d5e       ?AfxThrowInvalidArgException@@YGXXZ 00461d5e f   mfc71:MFC71.DLL
 0001:00060d64       ?AfxGetModuleState@@YGPAVAFX_MODULE_STATE@@XZ 00461d64 f   mfc71:MFC71.DLL
 0001:00060d6a       ?MoveWindow@CWnd@@QAEXHHHHH@Z 00461d6a f   mfc71:MFC71.DLL
 0001:00060d70       ?FromHandle@CWnd@@SGPAV1@PAUHWND__@@@Z 00461d70 f   mfc71:MFC71.DLL
 0001:00060d76       ?Default@CWnd@@IAEJXZ      00461d76 f   mfc71:MFC71.DLL
 0001:00060d7c       ??1CStringArray@@UAE@XZ    00461d7c f   mfc71:MFC71.DLL
 0001:00060d82       ?MessageBoxA@CWnd@@QAEHPBD0I@Z 00461d82 f   mfc71:MFC71.DLL
 0001:00060d88       ??0CStringArray@@QAE@XZ    00461d88 f   mfc71:MFC71.DLL
 0001:00060d8e       ?GetThisMessageMap@CDialog@@KGPBUAFX_MSGMAP@@XZ 00461d8e f   mfc71:MFC71.DLL
 0001:00060d94       ?PreInitDialog@CDialog@@MAEXXZ 00461d94 f   mfc71:MFC71.DLL
 0001:00060d9a       ?OnCancel@CDialog@@MAEXXZ  00461d9a f   mfc71:MFC71.DLL
 0001:00060da0       ?OnOK@CDialog@@MAEXXZ      00461da0 f   mfc71:MFC71.DLL
 0001:00060da6       ?OnSetFont@CDialog@@UAEXPAVCFont@@@Z 00461da6 f   mfc71:MFC71.DLL
 0001:00060dac       ?CreateIndirect@CDialog@@UAEHPBUDLGTEMPLATE@@PAVCWnd@@PAX@Z 00461dac f   mfc71:MFC71.DLL
 0001:00060db2       ?CreateIndirect@CDialog@@UAEHPAXPAVCWnd@@@Z 00461db2 f   mfc71:MFC71.DLL
 0001:00060db8       ?Create@CDialog@@UAEHPBDPAVCWnd@@@Z 00461db8 f   mfc71:MFC71.DLL
 0001:00060dbe       ?SetOccDialogInfo@CDialog@@MAEHPAU_AFX_OCC_DIALOG_INFO@@@Z 00461dbe f   mfc71:MFC71.DLL
 0001:00060dc4       ?CreateControlSite@CWnd@@MAEHPAVCOleControlContainer@@PAPAVCOleControlSite@@IABU_GUID@@@Z 00461dc4 f   mfc71:MFC71.DLL
 0001:00060dca       ?CreateControlContainer@CWnd@@MAEHPAPAVCOleControlContainer@@@Z 00461dca f   mfc71:MFC71.DLL
 0001:00060dd0       ?IsFrameWnd@CWnd@@UBEHXZ   00461dd0 f   mfc71:MFC71.DLL
 0001:00060dd6       ?CheckAutoCenter@CDialog@@UAEHXZ 00461dd6 f   mfc71:MFC71.DLL
 0001:00060ddc       ?OnChildNotify@CWnd@@MAEHIIJPAJ@Z 00461ddc f   mfc71:MFC71.DLL
 0001:00060de2       ?PostNcDestroy@CWnd@@MAEXXZ 00461de2 f   mfc71:MFC71.DLL
 0001:00060de8       ?DefWindowProcA@CWnd@@MAEJIIJ@Z 00461de8 f   mfc71:MFC71.DLL
 0001:00060dee       ?OnWndMsg@CWnd@@MAEHIIJPAJ@Z 00461dee f   mfc71:MFC71.DLL
 0001:00060df4       ?WindowProc@CWnd@@MAEJIIJ@Z 00461df4 f   mfc71:MFC71.DLL
 0001:00060dfa       ?OnAmbientProperty@CWnd@@UAEHPAVCOleControlSite@@JPAUtagVARIANT@@@Z 00461dfa f   mfc71:MFC71.DLL
 0001:00060e00       ?PreTranslateMessage@CDialog@@UAEHPAUtagMSG@@@Z 00461e00 f   mfc71:MFC71.DLL
 0001:00060e06       ?GetSuperWndProcAddr@CWnd@@MAEPAP6GJPAUHWND__@@IIJ@ZXZ 00461e06 f   mfc71:MFC71.DLL
 0001:00060e0c       ?OnNotify@CWnd@@MAEHIJPAJ@Z 00461e0c f   mfc71:MFC71.DLL
 0001:00060e12       ?OnCommand@CWnd@@MAEHIJ@Z  00461e12 f   mfc71:MFC71.DLL
 0001:00060e18       ?CreateAccessibleProxy@CWnd@@UAEJIJPAJ@Z 00461e18 f   mfc71:MFC71.DLL
 0001:00060e1e       ?SetProxy@CWnd@@UAEJPAUIAccessibleProxy@@@Z 00461e1e f   mfc71:MFC71.DLL
 0001:00060e24       ?put_accValue@CWnd@@UAEJUtagVARIANT@@PAG@Z 00461e24 f   mfc71:MFC71.DLL
 0001:00060e24       ?put_accValue@CWnd@@UAEJUtagVARIANT@@PA_W@Z 00461e24 f   mfc71:MFC71.DLL
 0001:00060e2a       ?put_accName@CWnd@@UAEJUtagVARIANT@@PA_W@Z 00461e2a f   mfc71:MFC71.DLL
 0001:00060e2a       ?put_accName@CWnd@@UAEJUtagVARIANT@@PAG@Z 00461e2a f   mfc71:MFC71.DLL
 0001:00060e30       ?accDoDefaultAction@CWnd@@UAEJUtagVARIANT@@@Z 00461e30 f   mfc71:MFC71.DLL
 0001:00060e36       ?accHitTest@CWnd@@UAEJJJPAUtagVARIANT@@@Z 00461e36 f   mfc71:MFC71.DLL
 0001:00060e3c       ?accNavigate@CWnd@@UAEJJUtagVARIANT@@PAU2@@Z 00461e3c f   mfc71:MFC71.DLL
 0001:00060e42       ?accLocation@CWnd@@UAEJPAJ000UtagVARIANT@@@Z 00461e42 f   mfc71:MFC71.DLL
 0001:00060e48       ?accSelect@CWnd@@UAEJJUtagVARIANT@@@Z 00461e48 f   mfc71:MFC71.DLL
 0001:00060e4e       ?get_accDefaultAction@CWnd@@UAEJUtagVARIANT@@PAPA_W@Z 00461e4e f   mfc71:MFC71.DLL
 0001:00060e4e       ?get_accDefaultAction@CWnd@@UAEJUtagVARIANT@@PAPAG@Z 00461e4e f   mfc71:MFC71.DLL
 0001:00060e54       ?get_accSelection@CWnd@@UAEJPAUtagVARIANT@@@Z 00461e54 f   mfc71:MFC71.DLL
 0001:00060e5a       ?get_accFocus@CWnd@@UAEJPAUtagVARIANT@@@Z 00461e5a f   mfc71:MFC71.DLL
 0001:00060e60       ?get_accKeyboardShortcut@CWnd@@UAEJUtagVARIANT@@PAPA_W@Z 00461e60 f   mfc71:MFC71.DLL
 0001:00060e60       ?get_accKeyboardShortcut@CWnd@@UAEJUtagVARIANT@@PAPAG@Z 00461e60 f   mfc71:MFC71.DLL
 0001:00060e66       ?get_accHelpTopic@CWnd@@UAEJPAPA_WUtagVARIANT@@PAJ@Z 00461e66 f   mfc71:MFC71.DLL
 0001:00060e66       ?get_accHelpTopic@CWnd@@UAEJPAPAGUtagVARIANT@@PAJ@Z 00461e66 f   mfc71:MFC71.DLL
 0001:00060e6c       ?get_accHelp@CWnd@@UAEJUtagVARIANT@@PAPAG@Z 00461e6c f   mfc71:MFC71.DLL
 0001:00060e6c       ?get_accHelp@CWnd@@UAEJUtagVARIANT@@PAPA_W@Z 00461e6c f   mfc71:MFC71.DLL
 0001:00060e72       ?get_accState@CWnd@@UAEJUtagVARIANT@@PAU2@@Z 00461e72 f   mfc71:MFC71.DLL
 0001:00060e78       ?get_accRole@CWnd@@UAEJUtagVARIANT@@PAU2@@Z 00461e78 f   mfc71:MFC71.DLL
 0001:00060e7e       ?get_accDescription@CWnd@@UAEJUtagVARIANT@@PAPA_W@Z 00461e7e f   mfc71:MFC71.DLL
 0001:00060e7e       ?get_accDescription@CWnd@@UAEJUtagVARIANT@@PAPAG@Z 00461e7e f   mfc71:MFC71.DLL
 0001:00060e84       ?get_accValue@CWnd@@UAEJUtagVARIANT@@PAPAG@Z 00461e84 f   mfc71:MFC71.DLL
 0001:00060e84       ?get_accValue@CWnd@@UAEJUtagVARIANT@@PAPA_W@Z 00461e84 f   mfc71:MFC71.DLL
 0001:00060e8a       ?get_accName@CWnd@@UAEJUtagVARIANT@@PAPAG@Z 00461e8a f   mfc71:MFC71.DLL
 0001:00060e8a       ?get_accName@CWnd@@UAEJUtagVARIANT@@PAPA_W@Z 00461e8a f   mfc71:MFC71.DLL
 0001:00060e90       ?get_accChild@CWnd@@UAEJUtagVARIANT@@PAPAUIDispatch@@@Z 00461e90 f   mfc71:MFC71.DLL
 0001:00060e96       ?get_accChildCount@CWnd@@UAEJPAJ@Z 00461e96 f   mfc71:MFC71.DLL
 0001:00060e9c       ?get_accParent@CWnd@@UAEJPAPAUIDispatch@@@Z 00461e9c f   mfc71:MFC71.DLL
 0001:00060ea2       ?EnsureStdObj@CWnd@@UAEJXZ 00461ea2 f   mfc71:MFC71.DLL
 0001:00060ea8       ?EndModalLoop@CWnd@@UAEXH@Z 00461ea8 f   mfc71:MFC71.DLL
 0001:00060eae       ?ContinueModal@CWnd@@UAEHXZ 00461eae f   mfc71:MFC71.DLL
 0001:00060eb4       ?WinHelpInternal@CWnd@@UAEXKI@Z 00461eb4 f   mfc71:MFC71.DLL
 0001:00060eba       ?HtmlHelpA@CWnd@@UAEXKI@Z  00461eba f   mfc71:MFC71.DLL
 0001:00060ec0       ?WinHelpA@CWnd@@UAEXKI@Z   00461ec0 f   mfc71:MFC71.DLL
 0001:00060ec6       ?GetScrollBarCtrl@CWnd@@UBEPAVCScrollBar@@H@Z 00461ec6 f   mfc71:MFC71.DLL
 0001:00060ecc       ?OnToolHitTest@CWnd@@UBEHVCPoint@@PAUtagTOOLINFOA@@@Z 00461ecc f   mfc71:MFC71.DLL
 0001:00060ed2       ?CalcWindowRect@CWnd@@UAEXPAUtagRECT@@I@Z 00461ed2 f   mfc71:MFC71.DLL
 0001:00060ed8       ?PreCreateWindow@CWnd@@UAEHAAUtagCREATESTRUCTA@@@Z 00461ed8 f   mfc71:MFC71.DLL
 0001:00060ede       ?DestroyWindow@CWnd@@UAEHXZ 00461ede f   mfc71:MFC71.DLL
 0001:00060ee4       ?CreateEx@CWnd@@UAEHKPBD0KHHHHPAUHWND__@@PAUHMENU__@@PAX@Z 00461ee4 f   mfc71:MFC71.DLL
 0001:00060eea       ?CreateEx@CWnd@@UAEHKPBD0KABUtagRECT@@PAV1@IPAX@Z 00461eea f   mfc71:MFC71.DLL
 0001:00060ef0       ?Create@CWnd@@UAEHPBD0KABUtagRECT@@PAV1@IPAUCCreateContext@@@Z 00461ef0 f   mfc71:MFC71.DLL
 0001:00060ef6       ?PreSubclassWindow@CWnd@@UAEXXZ 00461ef6 f   mfc71:MFC71.DLL
 0001:00060efc       ?GetInterfaceMap@CWnd@@MBEPBUAFX_INTERFACEMAP@@XZ 00461efc f   mfc71:MFC71.DLL
 0001:00060f02       ?OnFinalRelease@CWnd@@UAEXXZ 00461f02 f   mfc71:MFC71.DLL
 0001:00060f08       ?OnCmdMsg@CDialog@@UAEHIHPAXPAUAFX_CMDHANDLERINFO@@@Z 00461f08 f   mfc71:MFC71.DLL
 0001:00060f0e       ?GetRuntimeClass@CDialog@@UBEPAUCRuntimeClass@@XZ 00461f0e f   mfc71:MFC71.DLL
 0001:00060f14       ??0CDialog@@QAE@IPAVCWnd@@@Z 00461f14 f   mfc71:MFC71.DLL
 0001:00060f1a       ?SetDlgItemTextA@CWnd@@QAEXHPBD@Z 00461f1a f   mfc71:MFC71.DLL
 0001:00060f20       ?SetWindowTextA@CWnd@@QAEXPBD@Z 00461f20 f   mfc71:MFC71.DLL
 0001:00060f26       ?SetOccDialogInfo@CWnd@@MAEHPAU_AFX_OCC_DIALOG_INFO@@@Z 00461f26 f   mfc71:MFC71.DLL
 0001:00060f2c       ?CheckAutoCenter@CWnd@@UAEHXZ 00461f2c f   mfc71:MFC71.DLL
 0001:00060f32       ?PreTranslateMessage@CWnd@@UAEHPAUtagMSG@@@Z 00461f32 f   mfc71:MFC71.DLL
 0001:00060f38       ?GetMessageMap@CWnd@@MBEPBUAFX_MSGMAP@@XZ 00461f38 f   mfc71:MFC71.DLL
 0001:00060f3e       ??0CWnd@@QAE@XZ            00461f3e f   mfc71:MFC71.DLL
 0001:00060f44       ?CreateControl@CWnd@@QAEHABU_GUID@@PBDKABUtagRECT@@PAV1@IPAVCFile@@HPAG@Z 00461f44 f   mfc71:MFC71.DLL
 0001:00060f44       ?CreateControl@CWnd@@QAEHABU_GUID@@PBDKABUtagRECT@@PAV1@IPAVCFile@@HPA_W@Z 00461f44 f   mfc71:MFC71.DLL
 0001:00060f4a       ??_V@YAXPAX@Z              00461f4a f   mfc71:MFC71.DLL
 0001:00060f50       ?FromHandle@CMenu@@SGPAV1@PAUHMENU__@@@Z 00461f50 f   mfc71:MFC71.DLL
 0001:00060f56       ?DrawItem@CButton@@UAEXPAUtagDRAWITEMSTRUCT@@@Z 00461f56 f   mfc71:MFC71.DLL
 0001:00060f5c       ?Create@CButton@@UAEHPBDKABUtagRECT@@PAVCWnd@@I@Z 00461f5c f   mfc71:MFC71.DLL
 0001:00060f62       ?OnChildNotify@CButton@@MAEHIIJPAJ@Z 00461f62 f   mfc71:MFC71.DLL
 0001:00060f68       ?GetRuntimeClass@CButton@@UBEPAUCRuntimeClass@@XZ 00461f68 f   mfc71:MFC71.DLL
 0001:00060f6e       ?CharToItem@CListBox@@UAEHII@Z 00461f6e f   mfc71:MFC71.DLL
 0001:00060f74       ?VKeyToItem@CListBox@@UAEHII@Z 00461f74 f   mfc71:MFC71.DLL
 0001:00060f7a       ?DeleteItem@CListBox@@UAEXPAUtagDELETEITEMSTRUCT@@@Z 00461f7a f   mfc71:MFC71.DLL
 0001:00060f80       ?CompareItem@CListBox@@UAEHPAUtagCOMPAREITEMSTRUCT@@@Z 00461f80 f   mfc71:MFC71.DLL
 0001:00060f86       ?MeasureItem@CListBox@@UAEXPAUtagMEASUREITEMSTRUCT@@@Z 00461f86 f   mfc71:MFC71.DLL
 0001:00060f8c       ?DrawItem@CListBox@@UAEXPAUtagDRAWITEMSTRUCT@@@Z 00461f8c f   mfc71:MFC71.DLL
 0001:00060f92       ?Create@CListBox@@UAEHKABUtagRECT@@PAVCWnd@@I@Z 00461f92 f   mfc71:MFC71.DLL
 0001:00060f98       ?OnChildNotify@CListBox@@MAEHIIJPAJ@Z 00461f98 f   mfc71:MFC71.DLL
 0001:00060f9e       ?GetRuntimeClass@CListBox@@UBEPAUCRuntimeClass@@XZ 00461f9e f   mfc71:MFC71.DLL
 0001:00060fa4       ?AfxFindResourceHandle@@YGPAUHINSTANCE__@@PBD0@Z 00461fa4 f   mfc71:MFC71.DLL
 0001:00060faa       ?CreateEx@CProgressCtrl@@UAEHKKABUtagRECT@@PAVCWnd@@I@Z 00461faa f   mfc71:MFC71.DLL
 0001:00060fb0       ?Create@CProgressCtrl@@UAEHKABUtagRECT@@PAVCWnd@@I@Z 00461fb0 f   mfc71:MFC71.DLL
 0001:00060fb6       ?GetRuntimeClass@CProgressCtrl@@UBEPAUCRuntimeClass@@XZ 00461fb6 f   mfc71:MFC71.DLL
 0001:00060fbc       ?OnInitDialog@CDialog@@UAEHXZ 00461fbc f   mfc71:MFC71.DLL
 0001:00060fc2       ?DDX_Control@@YGXPAVCDataExchange@@HAAVCWnd@@@Z 00461fc2 f   mfc71:MFC71.DLL
 0001:00060fc8       ?OnPaint@CDialog@@IAEXXZ   00461fc8 f   mfc71:MFC71.DLL
 0001:00060fce       ??1CPaintDC@@UAE@XZ        00461fce f   mfc71:MFC71.DLL
 0001:00060fd4       ??0CPaintDC@@QAE@PAVCWnd@@@Z 00461fd4 f   mfc71:MFC71.DLL
 0001:00060fda       ?QuickActivate@COleControlSite@@UAEHXZ 00461fda f   mfc71:MFC71.DLL
 0001:00060fe0       ?BindProperty@COleControlSite@@UAEXJPAVCWnd@@@Z 00461fe0 f   mfc71:MFC71.DLL
 0001:00060fe6       ?BindDefaultProperty@COleControlSite@@UAEXJGPBDPAVCWnd@@@Z 00461fe6 f   mfc71:MFC71.DLL
 0001:00060fec       ?EnableDSC@COleControlSite@@UAEXXZ 00461fec f   mfc71:MFC71.DLL
 0001:00060ff2       ?SetFocus@COleControlSite@@UAEPAVCWnd@@XZ 00461ff2 f   mfc71:MFC71.DLL
 0001:00060ff8       ?SetFocus@COleControlSite@@UAEPAVCWnd@@PAUtagMSG@@@Z 00461ff8 f   mfc71:MFC71.DLL
 0001:00060ffe       ?EnableWindow@COleControlSite@@UAEHH@Z 00461ffe f   mfc71:MFC71.DLL
 0001:00061004       ?IsWindowEnabled@COleControlSite@@UBEHXZ 00462004 f   mfc71:MFC71.DLL
 0001:0006100a       ?ShowWindow@COleControlSite@@UAEHH@Z 0046200a f   mfc71:MFC71.DLL
 0001:00061010       ?SetWindowPos@COleControlSite@@UAEHPBVCWnd@@HHHHI@Z 00462010 f   mfc71:MFC71.DLL
 0001:00061016       ?MoveWindow@COleControlSite@@UAEXHHHH@Z 00462016 f   mfc71:MFC71.DLL
 0001:0006101c       ?SetDlgCtrlID@COleControlSite@@UAEHH@Z 0046201c f   mfc71:MFC71.DLL
 0001:00061022       ?GetDlgCtrlID@COleControlSite@@UBEHXZ 00462022 f   mfc71:MFC71.DLL
 0001:00061028       ?GetWindowTextA@COleControlSite@@UBEXAAV?$CStringT@DV?$StrTraitMFC_DLL@DV?$ChTraitsCRT@D@ATL@@@@@ATL@@@Z 00462028 f   mfc71:MFC71.DLL
 0001:0006102e       ?SetWindowTextA@COleControlSite@@UAEXPBD@Z 0046202e f   mfc71:MFC71.DLL
 0001:00061034       ?ModifyStyleEx@COleControlSite@@UAEHKKI@Z 00462034 f   mfc71:MFC71.DLL
 0001:0006103a       ?ModifyStyle@COleControlSite@@UAEHKKI@Z 0046203a f   mfc71:MFC71.DLL
 0001:00061040       ?GetExStyle@COleControlSite@@UBEKXZ 00462040 f   mfc71:MFC71.DLL
 0001:00061046       ?GetStyle@COleControlSite@@UBEKXZ 00462046 f   mfc71:MFC71.DLL
 0001:0006104c       ?SafeSetProperty@COleControlSite@@UAAHJGZZ 0046204c f   mfc71:MFC71.DLL
 0001:00061052       ?SetProperty@COleControlSite@@UAAXJGZZ 00462052 f   mfc71:MFC71.DLL
 0001:00061058       ?GetProperty@COleControlSite@@UBEXJGPAX@Z 00462058 f   mfc71:MFC71.DLL
 0001:0006105e       ?InvokeHelper@COleControlSite@@UAAXJGGPAXPBEZZ 0046205e f   mfc71:MFC71.DLL
 0001:00061064       ?SetPropertyV@COleControlSite@@UAEXJGPAD@Z 00462064 f   mfc71:MFC71.DLL
 0001:0006106a       ?InvokeHelperV@COleControlSite@@UAEXJGGPAXPBEPAD@Z 0046206a f   mfc71:MFC71.DLL
 0001:00061070       ?DoVerb@COleControlSite@@UAEJJPAUtagMSG@@@Z 00462070 f   mfc71:MFC71.DLL
 0001:00061076       ?DestroyControl@COleControlSite@@UAEHXZ 00462076 f   mfc71:MFC71.DLL
 0001:0006107c       ?CreateControl@COleControlSite@@UAEJPAVCWnd@@ABU_GUID@@PBDKABUtagRECT@@IPAVCFile@@HPA_W@Z 0046207c f   mfc71:MFC71.DLL
 0001:00061082       ?CreateControl@COleControlSite@@UAEJPAVCWnd@@ABU_GUID@@PBDKPBUtagPOINT@@PBUtagSIZE@@IPAVCFile@@HPA_W@Z 00462082 f   mfc71:MFC71.DLL
 0001:00061088       ?GetMessageMap@CCmdTarget@@MBEPBUAFX_MSGMAP@@XZ 00462088 f   mfc71:MFC71.DLL
 0001:0006108e       ?GetRuntimeClass@CCmdTarget@@UBEPAUCRuntimeClass@@XZ 0046208e f   mfc71:MFC71.DLL
 0001:00061094       ??0COleControlSite@@QAE@PAVCOleControlContainer@@@Z 00462094 f   mfc71:MFC71.DLL
 0001:0006109a       ??1COleControlSite@@UAE@XZ 0046209a f   mfc71:MFC71.DLL
 0001:000610a0       ?GetText@CListBox@@QBEXHAAV?$CStringT@DV?$StrTraitMFC_DLL@DV?$ChTraitsCRT@D@ATL@@@@@ATL@@@Z 004620a0 f   mfc71:MFC71.DLL
 0001:000610a6       ??_U@YAPAXI@Z              004620a6 f   mfc71:MFC71.DLL
 0001:000610ac       ??1CFileFind@@UAE@XZ       004620ac f   mfc71:MFC71.DLL
 0001:000610b2       ?FindFile@CFileFind@@UAEHPBDK@Z 004620b2 f   mfc71:MFC71.DLL
 0001:000610b8       ??0CFileFind@@QAE@XZ       004620b8 f   mfc71:MFC71.DLL
 0001:000610be       ?CreateThread@CWinThread@@QAEHKIPAU_SECURITY_ATTRIBUTES@@@Z 004620be f   mfc71:MFC71.DLL
 0001:000610c4       ?AfxGetThread@@YGPAVCWinThread@@XZ 004620c4 f   mfc71:MFC71.DLL
 0001:000610ca       ?InvokeHelper@CWnd@@QAAXJGGPAXPBEZZ 004620ca f   mfc71:MFC71.DLL
 0001:000610d0       ?GetThisClass@CWnd@@SGPAUCRuntimeClass@@XZ 004620d0 f   mfc71:MFC71.DLL
 0001:000610d6       ?GetThisInterfaceMap@COleControlSite@@KGPBUAFX_INTERFACEMAP@@XZ 004620d6 f   mfc71:MFC71.DLL
 0001:000610dc       ?ExternalAddRef@CCmdTarget@@QAEKXZ 004620dc f   mfc71:MFC71.DLL
 0001:000610e2       ??0AFX_MAINTAIN_STATE2@@QAE@PAVAFX_MODULE_STATE@@@Z 004620e2 f   mfc71:MFC71.DLL
 0001:000610e8       ?ExternalRelease@CCmdTarget@@QAEKXZ 004620e8 f   mfc71:MFC71.DLL
 0001:000610ee       ?ExternalQueryInterface@CCmdTarget@@QAEKPBXPAPAX@Z 004620ee f   mfc71:MFC71.DLL
 0001:000610f4       ?GetThisClass@CDialog@@SGPAUCRuntimeClass@@XZ 004620f4 f   mfc71:MFC71.DLL
 0001:000610fa       ?GetDlgItem@CWnd@@QBEPAV1@H@Z 004620fa f   mfc71:MFC71.DLL
 0001:00061100       ?ShowWindow@CWnd@@QAEHH@Z  00462100 f   mfc71:MFC71.DLL
 0001:00061106       ?SetRange@CSliderCtrl@@QAEXHHH@Z 00462106 f   mfc71:MFC71.DLL
 0001:0006110c       ?ProcessWndProcException@CWinThread@@UAEJPAVCException@@PBUtagMSG@@@Z 0046210c f   mfc71:MFC71.DLL
 0001:00061112       ?ExitInstance@CWinThread@@UAEHXZ 00462112 f   mfc71:MFC71.DLL
 0001:00061118       ?OnIdle@CWinThread@@UAEHJ@Z 00462118 f   mfc71:MFC71.DLL
 0001:0006111e       ?Run@CWinThread@@UAEHXZ    0046211e f   mfc71:MFC71.DLL
 0001:00061124       ?AfxMessageBox@@YGHPBDII@Z 00462124 f   mfc71:MFC71.DLL
 0001:0006112a       ?GetThisMessageMap@CCmdTarget@@KGPBUAFX_MSGMAP@@XZ 0046212a f   mfc71:MFC71.DLL
 0001:00061130       ?GetThisClass@CWinThread@@SGPAUCRuntimeClass@@XZ 00462130 f   mfc71:MFC71.DLL
 0001:00061136       ??0CWinThread@@QAE@XZ      00462136 f   mfc71:MFC71.DLL
 0001:0006113c       ??1CWinThread@@UAE@XZ      0046213c f   mfc71:MFC71.DLL
 0001:00061142       ?SetAtGrow@CStringArray@@QAEXHABV?$CStringT@DV?$StrTraitMFC_DLL@DV?$ChTraitsCRT@D@ATL@@@@@ATL@@@Z 00462142 f   mfc71:MFC71.DLL
 0001:00061148       ?AfxParseURL@@YGHPBDAAKAAV?$CStringT@DV?$StrTraitMFC_DLL@DV?$ChTraitsCRT@D@ATL@@@@@ATL@@2AAG@Z 00462148 f   mfc71:MFC71.DLL
 0001:0006114e       ?Delete@CException@@QAEXXZ 0046214e f   mfc71:MFC71.DLL
 0001:00061154       ??1CInternetSession@@UAE@XZ 00462154 f   mfc71:MFC71.DLL
 0001:0006115a       ?OpenURL@CInternetSession@@QAEPAVCStdioFile@@PBDKK0K@Z 0046215a f   mfc71:MFC71.DLL
 0001:00061160       ??0CInternetSession@@QAE@PBDKK00K@Z 00462160 f   mfc71:MFC71.DLL
 0001:00061166       ?OpenRequest@CHttpConnection@@QAEPAVCHttpFile@@HPBD0KPAPBD0K@Z 00462166 f   mfc71:MFC71.DLL
 0001:0006116c       ?Close@CInternetSession@@UAEXXZ 0046216c f   mfc71:MFC71.DLL
 0001:00061172       ?GetHttpConnection@CInternetSession@@QAEPAVCHttpConnection@@PBDKG00@Z 00462172 f   mfc71:MFC71.DLL
 0001:00061178       ?QueryInfo@CHttpFile@@QBEHKAAV?$CStringT@DV?$StrTraitMFC_DLL@DV?$ChTraitsCRT@D@ATL@@@@@ATL@@PAK@Z 00462178 f   mfc71:MFC71.DLL
 0001:0006117e       ?QueryInfoStatusCode@CHttpFile@@QBEHAAK@Z 0046217e f   mfc71:MFC71.DLL
 0001:00061184       ?SendRequest@CHttpFile@@QAEHPBDKPAXK@Z 00462184 f   mfc71:MFC71.DLL
 0001:0006118a       ?AddRequestHeaders@CHttpFile@@QAEHPBDKH@Z 0046218a f   mfc71:MFC71.DLL
 0001:00061190       ?SetSize@CStringArray@@QAEXHH@Z 00462190 f   mfc71:MFC71.DLL
 0001:000611a0       ?RemoveAt@CStringArray@@QAEXHH@Z 004621a0 f   mfc71:MFC71.DLL
 0001:000611a6       ?SetAtGrow@CStringArray@@QAEXHPBD@Z 004621a6 f   mfc71:MFC71.DLL
 0001:000611ac       ?Close@CFile@@UAEXXZ       004621ac f   mfc71:MFC71.DLL
 0001:000611b2       ?Write@CFile@@UAEXPBXI@Z   004621b2 f   mfc71:MFC71.DLL
 0001:000611b8       ??1CFile@@UAE@XZ           004621b8 f   mfc71:MFC71.DLL
 0001:000611be       ?Open@CFile@@UAEHPBDIPAVCFileException@@@Z 004621be f   mfc71:MFC71.DLL
 0001:000611c4       ??0CFile@@QAE@XZ           004621c4 f   mfc71:MFC71.DLL
 0001:000611ca       ?GetLBText@CComboBox@@QBEXHAAV?$CStringT@DV?$StrTraitMFC_DLL@DV?$ChTraitsCRT@D@ATL@@@@@ATL@@@Z 004621ca f   mfc71:MFC71.DLL
 0001:000611d0       ??0CComCriticalSection@ATL@@QAE@XZ 004621d0 f i mfcs71:stdafx.obj
 0001:000611e4       ?Init@CComCriticalSection@ATL@@QAEJXZ 004621e4 f i mfcs71:stdafx.obj
 0001:00061234       ___CxxFrameHandler         00462234 f   msvcrt:MSVCR71.dll
 0001:00061240       __onexit                   00462240 f   msvcrt:atonexit.obj
 0001:00061266       _atexit                    00462266 f   msvcrt:atonexit.obj
 0001:000612a9       @__security_check_cookie@4 004622a9 f   msvcrt:secchk.obj
 0001:000612c0       __alloca_probe             004622c0     msvcrt:chkstk.obj
 0001:000612c0       __chkstk                   004622c0 f   msvcrt:chkstk.obj
 0001:00061300       __aulldiv                  00462300 f   msvcrt:ulldiv.obj
 0001:00061370       __allmul                   00462370 f   msvcrt:llmul.obj
 0001:000613a4       _fclose                    004623a4 f   msvcrt:MSVCR71.dll
 0001:000613aa       _fopen                     004623aa f   msvcrt:MSVCR71.dll
 0001:000613b0       _fread                     004623b0 f   msvcrt:MSVCR71.dll
 0001:000613b6       _malloc                    004623b6 f   msvcrt:MSVCR71.dll
 0001:000613bc       _free                      004623bc f   msvcrt:MSVCR71.dll
 0001:000613c2       __except_handler3          004623c2 f   msvcrt:MSVCR71.dll
 0001:000613c8       ??0exception@@QAE@ABV0@@Z  004623c8 f   msvcrt:MSVCR71.dll
 0001:000613ce       ??_Etype_info@@UAEPAXI@Z   004623ce f i msvcrt:ti_inst.obj
 0001:0006141a       __CxxThrowException@8      0046241a f   msvcrt:MSVCR71.dll
 0001:00061420       ??_L@YGXPAXIHP6EX0@Z1@Z    00462420 f   msvcrt:ehvecctr.obj
 0001:00061482       ?__ArrayUnwind@@YGXPAXIHP6EX0@Z@Z 00462482 f   msvcrt:ehvecdtr.obj
 0001:000614e0       ??_M@YGXPAXIHP6EX0@Z@Z     004624e0 f   msvcrt:ehvecdtr.obj
 0001:00061540       _fwrite                    00462540 f   msvcrt:MSVCR71.dll
 0001:00061546       _fseek                     00462546 f   msvcrt:MSVCR71.dll
 0001:0006154c       _ftell                     0046254c f   msvcrt:MSVCR71.dll
 0001:00061552       _WinMainCRTStartup         00462552 f   msvcrt:crtexew.obj
 0001:00061754       __ftol2                    00462754 f   msvcrt:ftol2.obj
 0001:000617ca       _floor                     004627ca f   msvcrt:MSVCR71.dll
 0001:000617d0       _realloc                   004627d0 f   msvcrt:MSVCR71.dll
 0001:000617d6       _qsort                     004627d6 f   msvcrt:MSVCR71.dll
 0001:000617dc       __CIacos                   004627dc f   msvcrt:MSVCR71.dll
 0001:000617e2       __CIasin                   004627e2 f   msvcrt:MSVCR71.dll
 0001:000617e8       __CIpow                    004627e8 f   msvcrt:MSVCR71.dll
 0001:000617f0       __alldiv                   004627f0 f   msvcrt:lldiv.obj
 0001:0006189a       __purecall                 0046289a f   msvcrt:MSVCR71.dll
 0001:000618a0       __aullshr                  004628a0 f   msvcrt:ullshr.obj
 0001:000618c0       __allrem                   004628c0 f   msvcrt:llrem.obj
 0001:00061980       __alldvrm                  00462980 f   msvcrt:lldvrm.obj
 0001:00061a60       __SEH_prolog               00462a60 f   msvcrt:sehprolg.obj
 0001:00061a9b       __SEH_epilog               00462a9b f   msvcrt:sehprolg.obj
 0001:00061aac       _memset                    00462aac f   msvcrt:MSVCR71.dll
 0001:00061ab4       __EH_prolog                00462ab4 f   msvcrt:ehprolog.obj
 0001:00061ad4       ___dllonexit               00462ad4 f   msvcrt:MSVCR71.dll
 0001:00061ada       ___security_init_cookie    00462ada f   msvcrt:seccinit.obj
 0001:00061b40       ___security_error_handler  00462b40 f   msvcrt:MSVCR71.dll
 0001:00061b46       ??1type_info@@UAE@XZ       00462b46 f   msvcrt:MSVCR71.dll
 0001:00061b4c       ?terminate@@YAXXZ          00462b4c f   msvcrt:MSVCR71.dll
 0001:00061b52       __XcptFilter               00462b52 f   msvcrt:MSVCR71.dll
 0001:00061b58       _exit                      00462b58 f   msvcrt:MSVCR71.dll
 0001:00061b5e       __amsg_exit                00462b5e f   msvcrt:MSVCR71.dll
 0001:00061b64       __RTC_Initialize           00462b64 f   msvcrt:initsect.obj
 0001:00061ba8       __RTC_Terminate            00462ba8 f   msvcrt:initsect.obj
 0001:00061bec       __initterm                 00462bec f   msvcrt:MSVCR71.dll
 0001:00061bf2       __setdefaultprecision      00462bf2 f   msvcrt:fp8.obj
 0001:00061c04       __setargv                  00462c04 f   msvcrt:dllargv.obj
 0001:00061c04       __matherr                  00462c04 f   msvcrt:merr.obj
 0001:00061c08       __controlfp                00462c08 f   msvcrt:MSVCR71.dll
 0001:00061c10       _uncompress@16             00462c10 f   Zlibstat:uncompr.obj
 0001:00061cb0       _unzOpen2@8                00462cb0 f   Zlibstat:unzip.obj
 0001:00062190       _unzOpen@4                 00463190 f   Zlibstat:unzip.obj
 0001:000621a0       _unzClose@4                004631a0 f   Zlibstat:unzip.obj
 0001:000621e0       _unzGetGlobalInfo@8        004631e0 f   Zlibstat:unzip.obj
 0001:00062210       _unzGetCurrentFileInfo@32  00463210 f   Zlibstat:unzip.obj
 0001:00062630       _unzGoToFirstFile@4        00463630 f   Zlibstat:unzip.obj
 0001:00062680       _unzGoToFilePos@8          00463680 f   Zlibstat:unzip.obj
 0001:000626e0       _unzOpenCurrentFile3@20    004636e0 f   Zlibstat:unzip.obj
 0001:00062c60       _unzOpenCurrentFile@4      00463c60 f   Zlibstat:unzip.obj
 0001:00062c80       _unzOpenCurrentFilePassword@8 00463c80 f   Zlibstat:unzip.obj
 0001:00062ca0       _unzReadCurrentFile@12     00463ca0 f   Zlibstat:unzip.obj
 0001:00062f10       _unzCloseCurrentFile@4     00463f10 f   Zlibstat:unzip.obj
 0001:00063a90       _inflateReset@4            00464a90 f   Zlibstat:inflate.obj
 0001:00063ae0       _inflateEnd@4              00464ae0 f   Zlibstat:inflate.obj
 0001:00063b30       _inflateInit2_@16          00464b30 f   Zlibstat:inflate.obj
 0001:00063c50       _inflateInit_@12           00464c50 f   Zlibstat:inflate.obj
 0001:00063c70       _inflate@8                 00464c70 f   Zlibstat:inflate.obj
 0001:000640b0       _fopen_file_func           004650b0 f   Zlibstat:ioapi.obj
 0001:00064100       _fread_file_func           00465100 f   Zlibstat:ioapi.obj
 0001:00064120       _fwrite_file_func          00465120 f   Zlibstat:ioapi.obj
 0001:00064140       _ftell_file_func           00465140 f   Zlibstat:ioapi.obj
 0001:00064150       _fseek_file_func           00465150 f   Zlibstat:ioapi.obj
 0001:00064190       _fclose_file_func          00465190 f   Zlibstat:ioapi.obj
 0001:000641a0       _ferror_file_func          004651a0 f   Zlibstat:ioapi.obj
 0001:000641b0       _fill_fopen_filefunc       004651b0 f   Zlibstat:ioapi.obj
 0001:000641f0       _get_crc_table@0           004651f0 f   Zlibstat:crc32.obj
 0001:00064270       _crc32@12                  00465270 f   Zlibstat:crc32.obj
 0001:000643c0       _zcalloc                   004653c0 f   Zlibstat:zutil.obj
 0001:000643e0       _zcfree                    004653e0 f   Zlibstat:zutil.obj
 0001:000643f0       _adler32@12                004653f0 f   Zlibstat:adler32.obj
 0001:000645a0       __tr_stored_block          004655a0 f   Zlibstat:trees.obj
 0001:00064640       __tr_flush_block           00465640 f   Zlibstat:trees.obj
 0001:00065d50       _longest_match             00466d50 f   Zlibstat:gvmat32c.obj
 0001:00065dc0       _longest_match_c           00466dc0 f   Zlibstat:gvmat32c.obj
 0001:00065f10       _inflate_blocks_reset      00466f10 f   Zlibstat:infblock.obj
 0001:00065f90       _inflate_blocks_new        00466f90 f   Zlibstat:infblock.obj
 0001:00066030       _inflate_blocks            00467030 f   Zlibstat:infblock.obj
 0001:00066d40       _inflate_blocks_free       00467d40 f   Zlibstat:infblock.obj
 0001:00066d80       _longest_match_7fff        00467d80 f   Zlibstat:gvmat32.obj
 0001:00067261       _cpudetect32               00468261 f   Zlibstat:gvmat32.obj
 0001:0006729f       _longest_match_686         0046829f f   Zlibstat:gvmat32.obj
 0001:00067490       _inflate_codes_new         00468490 f   Zlibstat:infcodes.obj
 0001:000674d0       _inflate_codes             004684d0 f   Zlibstat:infcodes.obj
 0001:00067c80       _inflate_codes_free        00468c80 f   Zlibstat:infcodes.obj
 0001:00067ca0       _inflate_trees_bits        00468ca0 f   Zlibstat:inftrees.obj
 0001:00068210       _inflate_trees_dynamic     00469210 f   Zlibstat:inftrees.obj
 0001:000683a0       _inflate_trees_fixed       004693a0 f   Zlibstat:inftrees.obj
 0001:000683d0       _inflate_flush             004693d0 f   Zlibstat:infutil.obj
 0001:00068500       _inflate_fast              00469500 f   Zlibstat:inffast.obj
 0001:000688d0       ?RemoveAll@?$CSimpleArray@PAUHINSTANCE__@@V?$CSimpleArrayEqualHelper@PAUHINSTANCE__@@@ATL@@@ATL@@QAEXXZ 004698d0 f i atls:atlbase.obj
 0001:000688ed       ??0_ATL_BASE_MODULE70@ATL@@QAE@XZ 004698ed f i atls:atlbase.obj
 0001:00068907       ??1CAtlBaseModule@ATL@@QAE@XZ 00469907 f   atls:atlbase.obj
 0001:0006891d       ??0CAtlBaseModule@ATL@@QAE@XZ 0046991d f   atls:atlbase.obj
 0001:000689d0       ??1_Node@?$_List_nod@U?$pair@$$CBV?$basic_string@DU?$char_traits@D@std@@V?$allocator@D@2@@std@@PAUSSoundEx@@@std@@V?$allocator@U?$pair@$$CBV?$basic_string@DU?$char_traits@D@std@@V?$allocator@D@2@@std@@PAUSSoundEx@@@std@@@2@@std@@QAE@XZ 004699d0 f i EngineSoundLib:DxSoundLib.obj
 0001:000689d0       ??1SPOSTEXT@CDebugSet@@QAE@XZ 004699d0 f i EngineLib:DebugSet.obj
 0001:000689e0       ??_ESSoundEx@@UAEPAXI@Z    004699e0 f i EngineSoundLib:DxSoundLib.obj
 0001:000689e0       ??_GSSoundEx@@UAEPAXI@Z    004699e0 f i EngineSoundLib:DxSoundLib.obj
 0001:00068a00       ??1SSoundEx@@UAE@XZ        00469a00 f i EngineSoundLib:DxSoundLib.obj
 0001:00068a10       ?_Xlen@?$vector@Viterator@?$list@U?$pair@$$CBV?$basic_string@DU?$char_traits@D@std@@V?$allocator@D@2@@std@@PAUSSoundEx@@@std@@V?$allocator@U?$pair@$$CBV?$basic_string@DU?$char_traits@D@std@@V?$allocator@D@2@@std@@PAUSSoundEx@@@std@@@2@@std@@V?$allocator@Viterator@?$list@U?$pair@$$CBV?$basic_string@DU?$char_traits@D@std@@V?$allocator@D@2@@std@@PAUSSoundEx@@@std@@V?$allocator@U?$pair@$$CBV?$basic_string@DU?$char_traits@D@std@@V?$allocator@D@2@@std@@PAUSSoundEx@@@std@@@2@@std@@@3@@std@@IBEXXZ 00469a10 f i EngineSoundLib:DxSoundLib.obj
 0001:00068a90       ??$make_pair@V?$basic_string@DU?$char_traits@D@std@@V?$allocator@D@2@@std@@PAUSSoundEx@@@std@@YA?AU?$pair@V?$basic_string@DU?$char_traits@D@std@@V?$allocator@D@2@@std@@PAUSSoundEx@@@0@V?$basic_string@DU?$char_traits@D@std@@V?$allocator@D@2@@0@PAUSSoundEx@@@Z 00469a90 f i EngineSoundLib:DxSoundLib.obj
 0001:00068b00       ??$copy_backward@PAViterator@?$list@U?$pair@$$CBV?$basic_string@DU?$char_traits@D@std@@V?$allocator@D@2@@std@@PAUSSoundEx@@@std@@V?$allocator@U?$pair@$$CBV?$basic_string@DU?$char_traits@D@std@@V?$allocator@D@2@@std@@PAUSSoundEx@@@std@@@2@@std@@PAV123@@std@@YAPAViterator@?$list@U?$pair@$$CBV?$basic_string@DU?$char_traits@D@std@@V?$allocator@D@2@@std@@PAUSSoundEx@@@std@@V?$allocator@U?$pair@$$CBV?$basic_string@DU?$char_traits@D@std@@V?$allocator@D@2@@std@@PAUSSoundEx@@@std@@@2@@0@PAV120@00@Z 00469b00 f i EngineSoundLib:DxSoundLib.obj
 0001:00068b30       ??$_Uninit_copy@PAViterator@?$list@U?$pair@$$CBV?$basic_string@DU?$char_traits@D@std@@V?$allocator@D@2@@std@@PAUSSoundEx@@@std@@V?$allocator@U?$pair@$$CBV?$basic_string@DU?$char_traits@D@std@@V?$allocator@D@2@@std@@PAUSSoundEx@@@std@@@2@@std@@PAV123@V?$allocator@Viterator@?$list@U?$pair@$$CBV?$basic_string@DU?$char_traits@D@std@@V?$allocator@D@2@@std@@PAUSSoundEx@@@std@@V?$allocator@U?$pair@$$CBV?$basic_string@DU?$char_traits@D@std@@V?$allocator@D@2@@std@@PAUSSoundEx@@@std@@@2@@std@@@3@@std@@YAPAViterator@?$list@U?$pair@$$CBV?$basic_string@DU?$char_traits@D@std@@V?$allocator@D@2@@std@@PAUSSoundEx@@@std@@V?$allocator@U?$pair@$$CBV?$basic_string@DU?$char_traits@D@std@@V?$allocator@D@2@@std@@PAUSSoundEx@@@std@@@2@@0@PAV120@00AAV?$allocator@Viterator@?$list@U?$pair@$$CBV?$basic_string@DU?$char_traits@D@std@@V?$allocator@D@2@@std@@PAUSSoundEx@@@std@@V?$allocator@U?$pair@$$CBV?$basic_string@DU?$char_traits@D@std@@V?$allocator@D@2@@std@@PAUSSoundEx@@@std@@@2@@std@@@0@U_Nonscalar_ptr_iterator_tag@0@@Z 00469b30 f i EngineSoundLib:DxSoundLib.obj
 0001:00068b60       ?_Incsize@?$list@U?$pair@$$CBV?$basic_string@DU?$char_traits@D@std@@V?$allocator@D@2@@std@@PAUSSoundEx@@@std@@V?$allocator@U?$pair@$$CBV?$basic_string@DU?$char_traits@D@std@@V?$allocator@D@2@@std@@PAUSSoundEx@@@std@@@2@@std@@IAEXI@Z 00469b60 f i EngineSoundLib:DxSoundLib.obj
 0001:00068c00       ?_Buynode@?$list@U?$pair@$$CBV?$basic_string@DU?$char_traits@D@std@@V?$allocator@D@2@@std@@PAUSSoundEx@@@std@@V?$allocator@U?$pair@$$CBV?$basic_string@DU?$char_traits@D@std@@V?$allocator@D@2@@std@@PAUSSoundEx@@@std@@@2@@std@@IAEPAU_Node@?$_List_nod@U?$pair@$$CBV?$basic_string@DU?$char_traits@D@std@@V?$allocator@D@2@@std@@PAUSSoundEx@@@std@@V?$allocator@U?$pair@$$CBV?$basic_string@DU?$char_traits@D@std@@V?$allocator@D@2@@std@@PAUSSoundEx@@@std@@@2@@2@XZ 00469c00 f i EngineSoundLib:DxSoundLib.obj
 0001:00068c20       ?_Buynode@?$list@U?$pair@$$CBV?$basic_string@DU?$char_traits@D@std@@V?$allocator@D@2@@std@@PAUSSoundEx@@@std@@V?$allocator@U?$pair@$$CBV?$basic_string@DU?$char_traits@D@std@@V?$allocator@D@2@@std@@PAUSSoundEx@@@std@@@2@@std@@IAEPAU_Node@?$_List_nod@U?$pair@$$CBV?$basic_string@DU?$char_traits@D@std@@V?$allocator@D@2@@std@@PAUSSoundEx@@@std@@V?$allocator@U?$pair@$$CBV?$basic_string@DU?$char_traits@D@std@@V?$allocator@D@2@@std@@PAUSSoundEx@@@std@@@2@@2@PAU342@0ABU?$pair@$$CBV?$basic_string@DU?$char_traits@D@std@@V?$allocator@D@2@@std@@PAUSSoundEx@@@2@@Z 00469c20 f i EngineSoundLib:DxSoundLib.obj
 0001:00068cb0       ??$_Uninit_fill_n@PAViterator@?$list@U?$pair@$$CBV?$basic_string@DU?$char_traits@D@std@@V?$allocator@D@2@@std@@PAUSSoundEx@@@std@@V?$allocator@U?$pair@$$CBV?$basic_string@DU?$char_traits@D@std@@V?$allocator@D@2@@std@@PAUSSoundEx@@@std@@@2@@std@@IV123@V?$allocator@Viterator@?$list@U?$pair@$$CBV?$basic_string@DU?$char_traits@D@std@@V?$allocator@D@2@@std@@PAUSSoundEx@@@std@@V?$allocator@U?$pair@$$CBV?$basic_string@DU?$char_traits@D@std@@V?$allocator@D@2@@std@@PAUSSoundEx@@@std@@@2@@std@@@3@@std@@YAXPAViterator@?$list@U?$pair@$$CBV?$basic_string@DU?$char_traits@D@std@@V?$allocator@D@2@@std@@PAUSSoundEx@@@std@@V?$allocator@U?$pair@$$CBV?$basic_string@DU?$char_traits@D@std@@V?$allocator@D@2@@std@@PAUSSoundEx@@@std@@@2@@0@IABV120@AAV?$allocator@Viterator@?$list@U?$pair@$$CBV?$basic_string@DU?$char_traits@D@std@@V?$allocator@D@2@@std@@PAUSSoundEx@@@std@@V?$allocator@U?$pair@$$CBV?$basic_string@DU?$char_traits@D@std@@V?$allocator@D@2@@std@@PAUSSoundEx@@@std@@@2@@std@@@0@U_Nonscalar_ptr_iterator_tag@0@@Z 00469cb0 f i EngineSoundLib:DxSoundLib.obj
 0001:00068ce0       ?lower_bound@?$_Hash@V?$_Hmap_traits@V?$basic_string@DU?$char_traits@D@std@@V?$allocator@D@2@@std@@PAUSSoundEx@@V?$hash_compare@V?$basic_string@DU?$char_traits@D@std@@V?$allocator@D@2@@std@@U?$less@V?$basic_string@DU?$char_traits@D@std@@V?$allocator@D@2@@std@@@2@@stdext@@V?$allocator@U?$pair@$$CBV?$basic_string@DU?$char_traits@D@std@@V?$allocator@D@2@@std@@PAUSSoundEx@@@std@@@2@$0A@@stdext@@@stdext@@QAE?AViterator@?$list@U?$pair@$$CBV?$basic_string@DU?$char_traits@D@std@@V?$allocator@D@2@@std@@PAUSSoundEx@@@std@@V?$allocator@U?$pair@$$CBV?$basic_string@DU?$char_traits@D@std@@V?$allocator@D@2@@std@@PAUSSoundEx@@@std@@@2@@std@@ABV?$basic_string@DU?$char_traits@D@std@@V?$allocator@D@2@@5@@Z 00469ce0 f i EngineSoundLib:DxSoundLib.obj
 0001:00068da0       ?clear@?$list@U?$pair@$$CBV?$basic_string@DU?$char_traits@D@std@@V?$allocator@D@2@@std@@PAUSSoundEx@@@std@@V?$allocator@U?$pair@$$CBV?$basic_string@DU?$char_traits@D@std@@V?$allocator@D@2@@std@@PAUSSoundEx@@@std@@@2@@std@@QAEXXZ 00469da0 f i EngineSoundLib:DxSoundLib.obj
 0001:00068de0       ?_Ufill@?$vector@Viterator@?$list@U?$pair@$$CBV?$basic_string@DU?$char_traits@D@std@@V?$allocator@D@2@@std@@PAUSSoundEx@@@std@@V?$allocator@U?$pair@$$CBV?$basic_string@DU?$char_traits@D@std@@V?$allocator@D@2@@std@@PAUSSoundEx@@@std@@@2@@std@@V?$allocator@Viterator@?$list@U?$pair@$$CBV?$basic_string@DU?$char_traits@D@std@@V?$allocator@D@2@@std@@PAUSSoundEx@@@std@@V?$allocator@U?$pair@$$CBV?$basic_string@DU?$char_traits@D@std@@V?$allocator@D@2@@std@@PAUSSoundEx@@@std@@@2@@std@@@3@@std@@IAEPAViterator@?$list@U?$pair@$$CBV?$basic_string@DU?$char_traits@D@std@@V?$allocator@D@2@@std@@PAUSSoundEx@@@std@@V?$allocator@U?$pair@$$CBV?$basic_string@DU?$char_traits@D@std@@V?$allocator@D@2@@std@@PAUSSoundEx@@@std@@@2@@2@PAV342@IABV342@@Z 00469de0 f i EngineSoundLib:DxSoundLib.obj
 0001:00068e10       ?erase@?$_Hash@V?$_Hmap_traits@V?$basic_string@DU?$char_traits@D@std@@V?$allocator@D@2@@std@@PAUSSoundEx@@V?$hash_compare@V?$basic_string@DU?$char_traits@D@std@@V?$allocator@D@2@@std@@U?$less@V?$basic_string@DU?$char_traits@D@std@@V?$allocator@D@2@@std@@@2@@stdext@@V?$allocator@U?$pair@$$CBV?$basic_string@DU?$char_traits@D@std@@V?$allocator@D@2@@std@@PAUSSoundEx@@@std@@@2@$0A@@stdext@@@stdext@@QAE?AViterator@?$list@U?$pair@$$CBV?$basic_string@DU?$char_traits@D@std@@V?$allocator@D@2@@std@@PAUSSoundEx@@@std@@V?$allocator@U?$pair@$$CBV?$basic_string@DU?$char_traits@D@std@@V?$allocator@D@2@@std@@PAUSSoundEx@@@std@@@2@@std@@V345@@Z 00469e10 f i EngineSoundLib:DxSoundLib.obj
 0001:00068ea0       ??1?$list@U?$pair@$$CBV?$basic_string@DU?$char_traits@D@std@@V?$allocator@D@2@@std@@PAUSSoundEx@@@std@@V?$allocator@U?$pair@$$CBV?$basic_string@DU?$char_traits@D@std@@V?$allocator@D@2@@std@@PAUSSoundEx@@@std@@@2@@std@@QAE@XZ 00469ea0 f i EngineSoundLib:DxSoundLib.obj
 0001:00068ec0       ?erase@?$vector@Viterator@?$list@U?$pair@$$CBV?$basic_string@DU?$char_traits@D@std@@V?$allocator@D@2@@std@@PAUSSoundEx@@@std@@V?$allocator@U?$pair@$$CBV?$basic_string@DU?$char_traits@D@std@@V?$allocator@D@2@@std@@PAUSSoundEx@@@std@@@2@@std@@V?$allocator@Viterator@?$list@U?$pair@$$CBV?$basic_string@DU?$char_traits@D@std@@V?$allocator@D@2@@std@@PAUSSoundEx@@@std@@V?$allocator@U?$pair@$$CBV?$basic_string@DU?$char_traits@D@std@@V?$allocator@D@2@@std@@PAUSSoundEx@@@std@@@2@@std@@@3@@std@@QAE?AViterator@12@V312@0@Z 00469ec0 f i EngineSoundLib:DxSoundLib.obj
 0001:00068f00       ?_Insert_n@?$vector@Viterator@?$list@U?$pair@$$CBV?$basic_string@DU?$char_traits@D@std@@V?$allocator@D@2@@std@@PAUSSoundEx@@@std@@V?$allocator@U?$pair@$$CBV?$basic_string@DU?$char_traits@D@std@@V?$allocator@D@2@@std@@PAUSSoundEx@@@std@@@2@@std@@V?$allocator@Viterator@?$list@U?$pair@$$CBV?$basic_string@DU?$char_traits@D@std@@V?$allocator@D@2@@std@@PAUSSoundEx@@@std@@V?$allocator@U?$pair@$$CBV?$basic_string@DU?$char_traits@D@std@@V?$allocator@D@2@@std@@PAUSSoundEx@@@std@@@2@@std@@@3@@std@@IAEXViterator@12@IABV3?$list@U?$pair@$$CBV?$basic_string@DU?$char_traits@D@std@@V?$allocator@D@2@@std@@PAUSSoundEx@@@std@@V?$allocator@U?$pair@$$CBV?$basic_string@DU?$char_traits@D@std@@V?$allocator@D@2@@std@@PAUSSoundEx@@@std@@@2@@2@@Z 00469f00 f i EngineSoundLib:DxSoundLib.obj
 0001:00069140       ?_Construct_n@?$vector@Viterator@?$list@U?$pair@$$CBV?$basic_string@DU?$char_traits@D@std@@V?$allocator@D@2@@std@@PAUSSoundEx@@@std@@V?$allocator@U?$pair@$$CBV?$basic_string@DU?$char_traits@D@std@@V?$allocator@D@2@@std@@PAUSSoundEx@@@std@@@2@@std@@V?$allocator@Viterator@?$list@U?$pair@$$CBV?$basic_string@DU?$char_traits@D@std@@V?$allocator@D@2@@std@@PAUSSoundEx@@@std@@V?$allocator@U?$pair@$$CBV?$basic_string@DU?$char_traits@D@std@@V?$allocator@D@2@@std@@PAUSSoundEx@@@std@@@2@@std@@@3@@std@@QAEXIABViterator@?$list@U?$pair@$$CBV?$basic_string@DU?$char_traits@D@std@@V?$allocator@D@2@@std@@PAUSSoundEx@@@std@@V?$allocator@U?$pair@$$CBV?$basic_string@DU?$char_traits@D@std@@V?$allocator@D@2@@std@@PAUSSoundEx@@@std@@@2@@2@@Z 0046a140 f i EngineSoundLib:DxSoundLib.obj
 0001:000691f0       ?ReleaseSound@DxSoundLib@@QAE_NV?$basic_string@DU?$char_traits@D@std@@V?$allocator@D@2@@std@@@Z 0046a1f0 f   EngineSoundLib:DxSoundLib.obj
 0001:000692a0       ?PlaySoundA@DxSoundLib@@QAE_NV?$basic_string@DU?$char_traits@D@std@@V?$allocator@D@2@@std@@@Z 0046a2a0 f   EngineSoundLib:DxSoundLib.obj
 0001:000693d0       ?StopSound@DxSoundLib@@QAE_NV?$basic_string@DU?$char_traits@D@std@@V?$allocator@D@2@@std@@@Z 0046a3d0 f   EngineSoundLib:DxSoundLib.obj
 0001:00069470       ?resize@?$vector@Viterator@?$list@U?$pair@$$CBV?$basic_string@DU?$char_traits@D@std@@V?$allocator@D@2@@std@@PAUSSoundEx@@@std@@V?$allocator@U?$pair@$$CBV?$basic_string@DU?$char_traits@D@std@@V?$allocator@D@2@@std@@PAUSSoundEx@@@std@@@2@@std@@V?$allocator@Viterator@?$list@U?$pair@$$CBV?$basic_string@DU?$char_traits@D@std@@V?$allocator@D@2@@std@@PAUSSoundEx@@@std@@V?$allocator@U?$pair@$$CBV?$basic_string@DU?$char_traits@D@std@@V?$allocator@D@2@@std@@PAUSSoundEx@@@std@@@2@@std@@@3@@std@@QAEXIViterator@?$list@U?$pair@$$CBV?$basic_string@DU?$char_traits@D@std@@V?$allocator@D@2@@std@@PAUSSoundEx@@@std@@V?$allocator@U?$pair@$$CBV?$basic_string@DU?$char_traits@D@std@@V?$allocator@D@2@@std@@PAUSSoundEx@@@std@@@2@@2@@Z 0046a470 f i EngineSoundLib:DxSoundLib.obj
 0001:000694e0       ?insert@?$_Hash@V?$_Hmap_traits@V?$basic_string@DU?$char_traits@D@std@@V?$allocator@D@2@@std@@PAUSSoundEx@@V?$hash_compare@V?$basic_string@DU?$char_traits@D@std@@V?$allocator@D@2@@std@@U?$less@V?$basic_string@DU?$char_traits@D@std@@V?$allocator@D@2@@std@@@2@@stdext@@V?$allocator@U?$pair@$$CBV?$basic_string@DU?$char_traits@D@std@@V?$allocator@D@2@@std@@PAUSSoundEx@@@std@@@2@$0A@@stdext@@@stdext@@QAE?AU?$pair@Viterator@?$list@U?$pair@$$CBV?$basic_string@DU?$char_traits@D@std@@V?$allocator@D@2@@std@@PAUSSoundEx@@@std@@V?$allocator@U?$pair@$$CBV?$basic_string@DU?$char_traits@D@std@@V?$allocator@D@2@@std@@PAUSSoundEx@@@std@@@2@@std@@_N@std@@ABU?$pair@$$CBV?$basic_string@DU?$char_traits@D@std@@V?$allocator@D@2@@std@@PAUSSoundEx@@@4@@Z 0046a4e0 f i EngineSoundLib:DxSoundLib.obj
 0001:000697a0       ??0?$_Hash@V?$_Hmap_traits@V?$basic_string@DU?$char_traits@D@std@@V?$allocator@D@2@@std@@PAUSSoundEx@@V?$hash_compare@V?$basic_string@DU?$char_traits@D@std@@V?$allocator@D@2@@std@@U?$less@V?$basic_string@DU?$char_traits@D@std@@V?$allocator@D@2@@std@@@2@@stdext@@V?$allocator@U?$pair@$$CBV?$basic_string@DU?$char_traits@D@std@@V?$allocator@D@2@@std@@PAUSSoundEx@@@std@@@2@$0A@@stdext@@@stdext@@QAE@ABV?$hash_compare@V?$basic_string@DU?$char_traits@D@std@@V?$allocator@D@2@@std@@U?$less@V?$basic_string@DU?$char_traits@D@std@@V?$allocator@D@2@@std@@@2@@1@ABV?$allocator@U?$pair@$$CBV?$basic_string@DU?$char_traits@D@std@@V?$allocator@D@2@@std@@PAUSSoundEx@@@std@@@std@@@Z 0046a7a0 f i EngineSoundLib:DxSoundLib.obj
 0001:00069820       ??1?$hash_map@V?$basic_string@DU?$char_traits@D@std@@V?$allocator@D@2@@std@@PAUSSoundEx@@V?$hash_compare@V?$basic_string@DU?$char_traits@D@std@@V?$allocator@D@2@@std@@U?$less@V?$basic_string@DU?$char_traits@D@std@@V?$allocator@D@2@@std@@@2@@stdext@@V?$allocator@U?$pair@$$CBV?$basic_string@DU?$char_traits@D@std@@V?$allocator@D@2@@std@@PAUSSoundEx@@@std@@@2@@stdext@@QAE@XZ 0046a820 f i EngineSoundLib:DxSoundLib.obj
 0001:00069860       ?CreateSound@DxSoundLib@@QAE_NV?$basic_string@DU?$char_traits@D@std@@V?$allocator@D@2@@std@@0H_N@Z 0046a860 f   EngineSoundLib:DxSoundLib.obj
 0001:00069a40       ?ReleaseAllSound@DxSoundLib@@QAE_NXZ 0046aa40 f   EngineSoundLib:DxSoundLib.obj
 0001:00069af0       ??1DxSoundLib@@EAE@XZ      0046aaf0 f   EngineSoundLib:DxSoundLib.obj
 0001:00069b70       ??_GDxSoundLib@@EAEPAXI@Z  0046ab70 f i EngineSoundLib:DxSoundLib.obj
 0001:00069b70       ??_EDxSoundLib@@EAEPAXI@Z  0046ab70 f i EngineSoundLib:DxSoundLib.obj
 0001:00069b90       ?GetInstance@DxSoundLib@@SAPAV1@XZ 0046ab90 f   EngineSoundLib:DxSoundLib.obj
 0001:00069c10       ??0SSound@@QAE@XZ          0046ac10 f   EngineSoundLib:SuperSound.obj
 0001:00069c40       ?Stop@SSound@@QAE_NXZ      0046ac40 f   EngineSoundLib:SuperSound.obj
 0001:00069c80       ?SetVolume@SSound@@QAE_NJ@Z 0046ac80 f   EngineSoundLib:SuperSound.obj
 0001:00069ce0       ?UnLoad@SSound@@QAE_NXZ    0046ace0 f   EngineSoundLib:SuperSound.obj
 0001:00069da0       ?Play@SSound@@UAE_NXZ      0046ada0 f   EngineSoundLib:SuperSound.obj
 0001:00069e00       ??1SSound@@UAE@XZ          0046ae00 f   EngineSoundLib:SuperSound.obj
 0001:00069e60       ?Load@SSound@@QAE_NV?$basic_string@DU?$char_traits@D@std@@V?$allocator@D@2@@std@@_N1@Z 0046ae60 f   EngineSoundLib:SuperSound.obj
 0001:00069f50       ??_GSSound@@UAEPAXI@Z      0046af50 f i EngineSoundLib:SuperSound.obj
 0001:00069f50       ??_ESSound@@UAEPAXI@Z      0046af50 f i EngineSoundLib:SuperSound.obj
 0001:00069f70       ??1SChaSound@@QAE@XZ       0046af70 f   EngineSoundLib:CharacterSound.obj
 0001:00069f90       __vorbis_block_alloc       0046af90 f   vorbisfile_static:block.obj
 0001:0006a000       __vp_remove_floor          0046b000 f   vorbisfile_static:psy.obj
 0001:0006a060       __vp_noisemask             0046b060 f   vorbisfile_static:psy.obj
 0001:0006a720       __vp_tonemask              0046b720 f   vorbisfile_static:psy.obj
 0001:0006ac10       __vp_offset_and_mix        0046bc10 f   vorbisfile_static:psy.obj
 0001:0006aca0       __vp_quantize_couple_memo  0046bca0 f   vorbisfile_static:psy.obj
 0001:0006af50       __vp_quantize_couple_sort  0046bf50 f   vorbisfile_static:psy.obj
 0001:0006b100       __vp_noise_normalize_sort  0046c100 f   vorbisfile_static:psy.obj
 0001:0006b1d0       __vp_noise_normalize       0046c1d0 f   vorbisfile_static:psy.obj
 0001:0006b440       __vp_couple                0046c440 f   vorbisfile_static:psy.obj
 0001:0006b970       _vorbis_book_encode        0046c970 f   vorbisfile_static:codebook.obj
 0001:0006b9b0       _vorbis_book_decode        0046c9b0 f   vorbisfile_static:codebook.obj
 0001:0006bb40       _vorbis_book_decodevs_add  0046cb40 f   vorbisfile_static:codebook.obj
 0001:0006bd40       _vorbis_book_decodev_add   0046cd40 f   vorbisfile_static:codebook.obj
 0001:0006c0d0       _vorbis_book_decodev_set   0046d0d0 f   vorbisfile_static:codebook.obj
 0001:0006c250       _vorbis_book_decodevv_add  0046d250 f   vorbisfile_static:codebook.obj
 0001:0006c410       _vorbis_bitrate_managed    0046d410 f   vorbisfile_static:bitrate.obj
 0001:0006c430       _drft_forward              0046d430 f   vorbisfile_static:smallft.obj
 0001:0006d7f0       _mdct_backward             0046e7f0 f   vorbisfile_static:mdct.obj
 0001:0006e3b0       _mdct_forward              0046f3b0 f   vorbisfile_static:mdct.obj
 0001:0006e830       __vorbis_apply_window      0046f830 f   vorbisfile_static:window.obj
 0001:0006f9e0       _res0_free_info            004709e0 f   vorbisfile_static:res0.obj
 0001:0006fa00       _res0_free_look            00470a00 f   vorbisfile_static:res0.obj
 0001:0006fa80       _res0_pack                 00470a80 f   vorbisfile_static:res0.obj
 0001:0006fb90       _res0_unpack               00470b90 f   vorbisfile_static:res0.obj
 0001:0006fcd0       _res0_look                 00470cd0 f   vorbisfile_static:res0.obj
 0001:0006feb0       _res0_inverse              00470eb0 f   vorbisfile_static:res0.obj
 0001:00070130       _res1_forward              00471130 f   vorbisfile_static:res0.obj
 0001:000706e0       _res1_class                004716e0 f   vorbisfile_static:res0.obj
 0001:00070970       _res1_inverse              00471970 f   vorbisfile_static:res0.obj
 0001:000709d0       _res2_class                004719d0 f   vorbisfile_static:res0.obj
 0001:00070bb0       _res2_forward              00471bb0 f   vorbisfile_static:res0.obj
 0001:00070d10       _res2_inverse              00471d10 f   vorbisfile_static:res0.obj
 0001:00071520       _floor1_fit                00472520 f   vorbisfile_static:floor1.obj
 0001:000720c0       _floor1_interpolate_fit    004730c0 f   vorbisfile_static:floor1.obj
 0001:00072170       _floor1_encode             00473170 f   vorbisfile_static:floor1.obj
 0001:00072760       __ilog                     00473760 f   vorbisfile_static:sharedbook.obj
 0001:00073150       _vorbis_lsp_to_curve       00474150 f   vorbisfile_static:lsp.obj
 0001:000732d0       _vorbis_coslook            004742d0 f   vorbisfile_static:lsp.obj
 0001:00073320       _vorbis_invsqlook          00474320 f   vorbisfile_static:lsp.obj
 0001:00073370       _vorbis_invsq2explook      00474370 f   vorbisfile_static:lsp.obj
 0001:00073380       _vorbis_fromdBlook         00474380 f   vorbisfile_static:lsp.obj
 0001:000733e0       _oggpack_write             004743e0 f   ogg_static:bitwise.obj
 0001:000734e0       _oggpack_writealign        004744e0 f   ogg_static:bitwise.obj
 0001:00073500       _oggpack_look              00474500 f   ogg_static:bitwise.obj
 0001:000735b0       _oggpack_adv               004745b0 f   ogg_static:bitwise.obj
 0001:000735e0       _oggpack_read              004745e0 f   ogg_static:bitwise.obj
 0001:000736b0       _oggpack_bytes             004746b0 f   ogg_static:bitwise.obj
 0001:000736d0       _WinMain@16                004746d0 f   mfcs71:appmodul.obj
 0001:000736d5       ?AfxInitialize@@YGHHK@Z    004746d5 f   mfcs71:appmodul.obj
 0001:000736fe       _calloc                    004746fe f   msvcrt:MSVCR71.dll
 0001:00073704       __ftol                     00474704 f   msvcrt:MSVCR71.dll
 0001:00073710       __allshr                   00474710 f   msvcrt:llshr.obj
 0001:00073732       _frexp                     00474732 f   msvcrt:MSVCR71.dll
 0001:00073740       __allshl                   00474740 f   msvcrt:llshl.obj
 0001:00073760       ?AfxWinMain@@YGHPAUHINSTANCE__@@0PADH@Z 00474760 f   mfc71:MFC71.DLL
 0002:00000000       __imp__BT_InstallSehFilter@0 0047e000     BugTrap:BugTrap.dll
 0002:00000004       __imp__BT_SetSupportURL@4  0047e004     BugTrap:BugTrap.dll
 0002:00000008       __imp__BT_SetFlags@4       0047e008     BugTrap:BugTrap.dll
 0002:0000000c       __imp__BT_SetSupportEMail@4 0047e00c     BugTrap:BugTrap.dll
 0002:00000010       __imp__BT_SetAppName@4     0047e010     BugTrap:BugTrap.dll
 0002:00000014       __imp__BT_SetSupportServer@8 0047e014     BugTrap:BugTrap.dll
 0002:00000018       \177BugTrap_NULL_THUNK_DATA 0047e018     BugTrap:BugTrap.dll
 0002:0000001c       __imp__InitCommonControls@0 0047e01c     comctl32:COMCTL32.dll
 0002:00000020       \177COMCTL32_NULL_THUNK_DATA 0047e020     comctl32:COMCTL32.dll
 0002:00000024       __imp__DirectSoundCreate8@12 0047e024     dsound:DSOUND.dll
 0002:00000028       \177DSOUND_NULL_THUNK_DATA 0047e028     dsound:DSOUND.dll
 0002:0000002c       __imp__DeleteDC@4          0047e02c     gdi32:GDI32.dll
 0002:00000030       __imp__DeleteObject@4      0047e030     gdi32:GDI32.dll
 0002:00000034       __imp__GetDIBits@28        0047e034     gdi32:GDI32.dll
 0002:00000038       __imp__SelectObject@8      0047e038     gdi32:GDI32.dll
 0002:0000003c       __imp__GetStockObject@4    0047e03c     gdi32:GDI32.dll
 0002:00000040       __imp__GetObjectA@12       0047e040     gdi32:GDI32.dll
 0002:00000044       __imp__CreateCompatibleDC@4 0047e044     gdi32:GDI32.dll
 0002:00000048       \177GDI32_NULL_THUNK_DATA  0047e048     gdi32:GDI32.dll
 0002:0000004c       __imp__GetCurrentThreadId@0 0047e04c     kernel32:KERNEL32.dll
 0002:00000050       __imp__ExitProcess@4       0047e050     kernel32:KERNEL32.dll
 0002:00000054       __imp__GetCurrentProcessId@0 0047e054     kernel32:KERNEL32.dll
 0002:00000058       __imp__GetSystemTimeAsFileTime@4 0047e058     kernel32:KERNEL32.dll
 0002:0000005c       __imp__GetStartupInfoA@4   0047e05c     kernel32:KERNEL32.dll
 0002:00000060       __imp__GetVersionExA@4     0047e060     kernel32:KERNEL32.dll
 0002:00000064       __imp__GetModuleFileNameA@12 0047e064     kernel32:KERNEL32.dll
 0002:00000068       __imp__DeleteFileA@4       0047e068     kernel32:KERNEL32.dll
 0002:0000006c       __imp__SetFileAttributesA@8 0047e06c     kernel32:KERNEL32.dll
 0002:00000070       __imp__SetThreadPriority@8 0047e070     kernel32:KERNEL32.dll
 0002:00000074       __imp__ResumeThread@4      0047e074     kernel32:KERNEL32.dll
 0002:00000078       __imp__MultiByteToWideChar@24 0047e078     kernel32:KERNEL32.dll
 0002:0000007c       __imp__WideCharToMultiByte@32 0047e07c     kernel32:KERNEL32.dll
 0002:00000080       __imp__GetLastError@0      0047e080     kernel32:KERNEL32.dll
 0002:00000084       __imp__lstrlenA@4          0047e084     kernel32:KERNEL32.dll
 0002:00000088       __imp__CompareStringA@24   0047e088     kernel32:KERNEL32.dll
 0002:0000008c       __imp__RemoveDirectoryA@4  0047e08c     kernel32:KERNEL32.dll
 0002:00000090       __imp__Sleep@4             0047e090     kernel32:KERNEL32.dll
 0002:00000094       __imp__CreateDirectoryA@8  0047e094     kernel32:KERNEL32.dll
 0002:00000098       __imp__MoveFileA@8         0047e098     kernel32:KERNEL32.dll
 0002:0000009c       __imp__CopyFileA@12        0047e09c     kernel32:KERNEL32.dll
 0002:000000a0       __imp__CreateEventA@16     0047e0a0     kernel32:KERNEL32.dll
 0002:000000a4       __imp__CloseHandle@4       0047e0a4     kernel32:KERNEL32.dll
 0002:000000a8       __imp__SetEvent@4          0047e0a8     kernel32:KERNEL32.dll
 0002:000000ac       __imp__WaitForSingleObject@8 0047e0ac     kernel32:KERNEL32.dll
 0002:000000b0       __imp__EnterCriticalSection@4 0047e0b0     kernel32:KERNEL32.dll
 0002:000000b4       __imp__LeaveCriticalSection@4 0047e0b4     kernel32:KERNEL32.dll
 0002:000000b8       __imp__DeleteCriticalSection@4 0047e0b8     kernel32:KERNEL32.dll
 0002:000000bc       __imp__WaitForMultipleObjects@16 0047e0bc     kernel32:KERNEL32.dll
 0002:000000c0       __imp__ResetEvent@4        0047e0c0     kernel32:KERNEL32.dll
 0002:000000c4       __imp__InitializeCriticalSection@4 0047e0c4     kernel32:KERNEL32.dll
 0002:000000c8       __imp__SleepEx@8           0047e0c8     kernel32:KERNEL32.dll
 0002:000000cc       __imp__WriteFile@20        0047e0cc     kernel32:KERNEL32.dll
 0002:000000d0       __imp__CreateFileA@28      0047e0d0     kernel32:KERNEL32.dll
 0002:000000d4       __imp__GetProcAddress@8    0047e0d4     kernel32:KERNEL32.dll
 0002:000000d8       __imp__GetModuleHandleA@4  0047e0d8     kernel32:KERNEL32.dll
 0002:000000dc       __imp__CreateProcessA@40   0047e0dc     kernel32:KERNEL32.dll
 0002:000000e0       __imp__LockResource@4      0047e0e0     kernel32:KERNEL32.dll
 0002:000000e4       __imp__SizeofResource@8    0047e0e4     kernel32:KERNEL32.dll
 0002:000000e8       __imp__LoadResource@8      0047e0e8     kernel32:KERNEL32.dll
 0002:000000ec       __imp__FindResourceA@12    0047e0ec     kernel32:KERNEL32.dll
 0002:000000f0       __imp__IsDBCSLeadByteEx@8  0047e0f0     kernel32:KERNEL32.dll
 0002:000000f4       __imp__QueryPerformanceFrequency@4 0047e0f4     kernel32:KERNEL32.dll
 0002:000000f8       __imp__QueryPerformanceCounter@4 0047e0f8     kernel32:KERNEL32.dll
 0002:000000fc       __imp__GetTickCount@0      0047e0fc     kernel32:KERNEL32.dll
 0002:00000100       __imp__SetFileTime@16      0047e100     kernel32:KERNEL32.dll
 0002:00000104       __imp__LocalFileTimeToFileTime@8 0047e104     kernel32:KERNEL32.dll
 0002:00000108       __imp__DosDateTimeToFileTime@12 0047e108     kernel32:KERNEL32.dll
 0002:0000010c       __imp__GlobalFree@4        0047e10c     kernel32:KERNEL32.dll
 0002:00000110       __imp__GlobalUnlock@4      0047e110     kernel32:KERNEL32.dll
 0002:00000114       __imp__GlobalLock@4        0047e114     kernel32:KERNEL32.dll
 0002:00000118       __imp__GlobalAlloc@8       0047e118     kernel32:KERNEL32.dll
 0002:0000011c       \177KERNEL32_NULL_THUNK_DATA 0047e11c     kernel32:KERNEL32.dll
 0002:00000120       __imp_?MoveWindow@CWnd@@QAEXHHHHH@Z 0047e120     mfc71:MFC71.DLL
 0002:00000124       __imp_?FromHandle@CWnd@@SGPAV1@PAUHWND__@@@Z 0047e124     mfc71:MFC71.DLL
 0002:00000128       __imp_?Default@CWnd@@IAEJXZ 0047e128     mfc71:MFC71.DLL
 0002:0000012c       __imp_??1CStringArray@@UAE@XZ 0047e12c     mfc71:MFC71.DLL
 0002:00000130       __imp_?MessageBoxA@CWnd@@QAEHPBD0I@Z 0047e130     mfc71:MFC71.DLL
 0002:00000134       __imp_?Format@?$CStringT@DV?$StrTraitMFC_DLL@DV?$ChTraitsCRT@D@ATL@@@@@ATL@@QAAXPBDZZ 0047e134     mfc71:MFC71.DLL
 0002:00000138       __imp_??Y?$CStringT@DV?$StrTraitMFC_DLL@DV?$ChTraitsCRT@D@ATL@@@@@ATL@@QAEAAV01@ABV?$CSimpleStringT@D$00@1@@Z 0047e138     mfc71:MFC71.DLL
 0002:0000013c       __imp_??4?$CStringT@DV?$StrTraitMFC_DLL@DV?$ChTraitsCRT@D@ATL@@@@@ATL@@QAEAAV01@ABV01@@Z 0047e13c     mfc71:MFC71.DLL
 0002:00000140       __imp_??0?$CStringT@DV?$StrTraitMFC_DLL@DV?$ChTraitsCRT@D@ATL@@@@@ATL@@QAE@XZ 0047e140     mfc71:MFC71.DLL
 0002:00000144       __imp_??0CStringArray@@QAE@XZ 0047e144     mfc71:MFC71.DLL
 0002:00000148       __imp_?GetThisMessageMap@CDialog@@KGPBUAFX_MSGMAP@@XZ 0047e148     mfc71:MFC71.DLL
 0002:0000014c       __imp_?PreInitDialog@CDialog@@MAEXXZ 0047e14c     mfc71:MFC71.DLL
 0002:00000150       __imp_?OnCancel@CDialog@@MAEXXZ 0047e150     mfc71:MFC71.DLL
 0002:00000154       __imp_?OnOK@CDialog@@MAEXXZ 0047e154     mfc71:MFC71.DLL
 0002:00000158       __imp_?OnSetFont@CDialog@@UAEXPAVCFont@@@Z 0047e158     mfc71:MFC71.DLL
 0002:0000015c       __imp_?CreateIndirect@CDialog@@UAEHPBUDLGTEMPLATE@@PAVCWnd@@PAX@Z 0047e15c     mfc71:MFC71.DLL
 0002:00000160       __imp_?CreateIndirect@CDialog@@UAEHPAXPAVCWnd@@@Z 0047e160     mfc71:MFC71.DLL
 0002:00000164       __imp_?Create@CDialog@@UAEHPBDPAVCWnd@@@Z 0047e164     mfc71:MFC71.DLL
 0002:00000168       __imp_?SetOccDialogInfo@CDialog@@MAEHPAU_AFX_OCC_DIALOG_INFO@@@Z 0047e168     mfc71:MFC71.DLL
 0002:0000016c       __imp_?CreateControlSite@CWnd@@MAEHPAVCOleControlContainer@@PAPAVCOleControlSite@@IABU_GUID@@@Z 0047e16c     mfc71:MFC71.DLL
 0002:00000170       __imp_?CreateControlContainer@CWnd@@MAEHPAPAVCOleControlContainer@@@Z 0047e170     mfc71:MFC71.DLL
 0002:00000174       __imp_?IsFrameWnd@CWnd@@UBEHXZ 0047e174     mfc71:MFC71.DLL
 0002:00000178       __imp_?CheckAutoCenter@CDialog@@UAEHXZ 0047e178     mfc71:MFC71.DLL
 0002:0000017c       __imp_?OnChildNotify@CWnd@@MAEHIIJPAJ@Z 0047e17c     mfc71:MFC71.DLL
 0002:00000180       __imp_?PostNcDestroy@CWnd@@MAEXXZ 0047e180     mfc71:MFC71.DLL
 0002:00000184       __imp_?DefWindowProcA@CWnd@@MAEJIIJ@Z 0047e184     mfc71:MFC71.DLL
 0002:00000188       __imp_?OnWndMsg@CWnd@@MAEHIIJPAJ@Z 0047e188     mfc71:MFC71.DLL
 0002:0000018c       __imp_?WindowProc@CWnd@@MAEJIIJ@Z 0047e18c     mfc71:MFC71.DLL
 0002:00000190       __imp_?OnAmbientProperty@CWnd@@UAEHPAVCOleControlSite@@JPAUtagVARIANT@@@Z 0047e190     mfc71:MFC71.DLL
 0002:00000194       __imp_?PreTranslateMessage@CDialog@@UAEHPAUtagMSG@@@Z 0047e194     mfc71:MFC71.DLL
 0002:00000198       __imp_?GetSuperWndProcAddr@CWnd@@MAEPAP6GJPAUHWND__@@IIJ@ZXZ 0047e198     mfc71:MFC71.DLL
 0002:0000019c       __imp_?OnNotify@CWnd@@MAEHIJPAJ@Z 0047e19c     mfc71:MFC71.DLL
 0002:000001a0       __imp_?OnCommand@CWnd@@MAEHIJ@Z 0047e1a0     mfc71:MFC71.DLL
 0002:000001a4       __imp_?CreateAccessibleProxy@CWnd@@UAEJIJPAJ@Z 0047e1a4     mfc71:MFC71.DLL
 0002:000001a8       __imp_?SetProxy@CWnd@@UAEJPAUIAccessibleProxy@@@Z 0047e1a8     mfc71:MFC71.DLL
 0002:000001ac       __imp_?put_accValue@CWnd@@UAEJUtagVARIANT@@PA_W@Z 0047e1ac     mfc71:MFC71.DLL
 0002:000001b0       __imp_?put_accName@CWnd@@UAEJUtagVARIANT@@PA_W@Z 0047e1b0     mfc71:MFC71.DLL
 0002:000001b4       __imp_?accDoDefaultAction@CWnd@@UAEJUtagVARIANT@@@Z 0047e1b4     mfc71:MFC71.DLL
 0002:000001b8       __imp_?accHitTest@CWnd@@UAEJJJPAUtagVARIANT@@@Z 0047e1b8     mfc71:MFC71.DLL
 0002:000001bc       __imp_?accNavigate@CWnd@@UAEJJUtagVARIANT@@PAU2@@Z 0047e1bc     mfc71:MFC71.DLL
 0002:000001c0       __imp_?accLocation@CWnd@@UAEJPAJ000UtagVARIANT@@@Z 0047e1c0     mfc71:MFC71.DLL
 0002:000001c4       __imp_?accSelect@CWnd@@UAEJJUtagVARIANT@@@Z 0047e1c4     mfc71:MFC71.DLL
 0002:000001c8       __imp_?get_accDefaultAction@CWnd@@UAEJUtagVARIANT@@PAPA_W@Z 0047e1c8     mfc71:MFC71.DLL
 0002:000001cc       __imp_?get_accSelection@CWnd@@UAEJPAUtagVARIANT@@@Z 0047e1cc     mfc71:MFC71.DLL
 0002:000001d0       __imp_?get_accFocus@CWnd@@UAEJPAUtagVARIANT@@@Z 0047e1d0     mfc71:MFC71.DLL
 0002:000001d4       __imp_?get_accKeyboardShortcut@CWnd@@UAEJUtagVARIANT@@PAPA_W@Z 0047e1d4     mfc71:MFC71.DLL
 0002:000001d8       __imp_?get_accHelpTopic@CWnd@@UAEJPAPA_WUtagVARIANT@@PAJ@Z 0047e1d8     mfc71:MFC71.DLL
 0002:000001dc       __imp_?get_accHelp@CWnd@@UAEJUtagVARIANT@@PAPA_W@Z 0047e1dc     mfc71:MFC71.DLL
 0002:000001e0       __imp_?get_accState@CWnd@@UAEJUtagVARIANT@@PAU2@@Z 0047e1e0     mfc71:MFC71.DLL
 0002:000001e4       __imp_?get_accRole@CWnd@@UAEJUtagVARIANT@@PAU2@@Z 0047e1e4     mfc71:MFC71.DLL
 0002:000001e8       __imp_?get_accDescription@CWnd@@UAEJUtagVARIANT@@PAPA_W@Z 0047e1e8     mfc71:MFC71.DLL
 0002:000001ec       __imp_?get_accValue@CWnd@@UAEJUtagVARIANT@@PAPA_W@Z 0047e1ec     mfc71:MFC71.DLL
 0002:000001f0       __imp_?get_accName@CWnd@@UAEJUtagVARIANT@@PAPA_W@Z 0047e1f0     mfc71:MFC71.DLL
 0002:000001f4       __imp_?get_accChild@CWnd@@UAEJUtagVARIANT@@PAPAUIDispatch@@@Z 0047e1f4     mfc71:MFC71.DLL
 0002:000001f8       __imp_?get_accChildCount@CWnd@@UAEJPAJ@Z 0047e1f8     mfc71:MFC71.DLL
 0002:000001fc       __imp_?get_accParent@CWnd@@UAEJPAPAUIDispatch@@@Z 0047e1fc     mfc71:MFC71.DLL
 0002:00000200       __imp_?EnsureStdObj@CWnd@@UAEJXZ 0047e200     mfc71:MFC71.DLL
 0002:00000204       __imp_?EndModalLoop@CWnd@@UAEXH@Z 0047e204     mfc71:MFC71.DLL
 0002:00000208       __imp_?ContinueModal@CWnd@@UAEHXZ 0047e208     mfc71:MFC71.DLL
 0002:0000020c       __imp_?WinHelpInternal@CWnd@@UAEXKI@Z 0047e20c     mfc71:MFC71.DLL
 0002:00000210       __imp_?HtmlHelpA@CWnd@@UAEXKI@Z 0047e210     mfc71:MFC71.DLL
 0002:00000214       __imp_?WinHelpA@CWnd@@UAEXKI@Z 0047e214     mfc71:MFC71.DLL
 0002:00000218       __imp_?GetScrollBarCtrl@CWnd@@UBEPAVCScrollBar@@H@Z 0047e218     mfc71:MFC71.DLL
 0002:0000021c       __imp_?OnToolHitTest@CWnd@@UBEHVCPoint@@PAUtagTOOLINFOA@@@Z 0047e21c     mfc71:MFC71.DLL
 0002:00000220       __imp_?CalcWindowRect@CWnd@@UAEXPAUtagRECT@@I@Z 0047e220     mfc71:MFC71.DLL
 0002:00000224       __imp_?PreCreateWindow@CWnd@@UAEHAAUtagCREATESTRUCTA@@@Z 0047e224     mfc71:MFC71.DLL
 0002:00000228       __imp_?DestroyWindow@CWnd@@UAEHXZ 0047e228     mfc71:MFC71.DLL
 0002:0000022c       __imp_?CreateEx@CWnd@@UAEHKPBD0KHHHHPAUHWND__@@PAUHMENU__@@PAX@Z 0047e22c     mfc71:MFC71.DLL
 0002:00000230       __imp_?CreateEx@CWnd@@UAEHKPBD0KABUtagRECT@@PAV1@IPAX@Z 0047e230     mfc71:MFC71.DLL
 0002:00000234       __imp_?Create@CWnd@@UAEHPBD0KABUtagRECT@@PAV1@IPAUCCreateContext@@@Z 0047e234     mfc71:MFC71.DLL
 0002:00000238       __imp_?PreSubclassWindow@CWnd@@UAEXXZ 0047e238     mfc71:MFC71.DLL
 0002:0000023c       __imp_?GetInterfaceMap@CWnd@@MBEPBUAFX_INTERFACEMAP@@XZ 0047e23c     mfc71:MFC71.DLL
 0002:00000240       __imp_?OnFinalRelease@CWnd@@UAEXXZ 0047e240     mfc71:MFC71.DLL
 0002:00000244       __imp_?OnCmdMsg@CDialog@@UAEHIHPAXPAUAFX_CMDHANDLERINFO@@@Z 0047e244     mfc71:MFC71.DLL
 0002:00000248       __imp_?GetRuntimeClass@CDialog@@UBEPAUCRuntimeClass@@XZ 0047e248     mfc71:MFC71.DLL
 0002:0000024c       __imp_??0CDialog@@QAE@IPAVCWnd@@@Z 0047e24c     mfc71:MFC71.DLL
 0002:00000250       __imp_?SetDlgItemTextA@CWnd@@QAEXHPBD@Z 0047e250     mfc71:MFC71.DLL
 0002:00000254       __imp_?SetWindowTextA@CWnd@@QAEXPBD@Z 0047e254     mfc71:MFC71.DLL
 0002:00000258       __imp_?SetOccDialogInfo@CWnd@@MAEHPAU_AFX_OCC_DIALOG_INFO@@@Z 0047e258     mfc71:MFC71.DLL
 0002:0000025c       __imp_?CheckAutoCenter@CWnd@@UAEHXZ 0047e25c     mfc71:MFC71.DLL
 0002:00000260       __imp_?PreTranslateMessage@CWnd@@UAEHPAUtagMSG@@@Z 0047e260     mfc71:MFC71.DLL
 0002:00000264       __imp_?GetMessageMap@CWnd@@MBEPBUAFX_MSGMAP@@XZ 0047e264     mfc71:MFC71.DLL
 0002:00000268       __imp_??0CWnd@@QAE@XZ      0047e268     mfc71:MFC71.DLL
 0002:0000026c       __imp_?CreateControl@CWnd@@QAEHABU_GUID@@PBDKABUtagRECT@@PAV1@IPAVCFile@@HPA_W@Z 0047e26c     mfc71:MFC71.DLL
 0002:00000270       __imp_??_V@YAXPAX@Z        0047e270     mfc71:MFC71.DLL
 0002:00000274       __imp_?FromHandle@CMenu@@SGPAV1@PAUHMENU__@@@Z 0047e274     mfc71:MFC71.DLL
 0002:00000278       __imp_?DrawItem@CButton@@UAEXPAUtagDRAWITEMSTRUCT@@@Z 0047e278     mfc71:MFC71.DLL
 0002:0000027c       __imp_?Create@CButton@@UAEHPBDKABUtagRECT@@PAVCWnd@@I@Z 0047e27c     mfc71:MFC71.DLL
 0002:00000280       __imp_?AfxGetModuleState@@YGPAVAFX_MODULE_STATE@@XZ 0047e280     mfc71:MFC71.DLL
 0002:00000284       __imp_?GetRuntimeClass@CButton@@UBEPAUCRuntimeClass@@XZ 0047e284     mfc71:MFC71.DLL
 0002:00000288       __imp_?CharToItem@CListBox@@UAEHII@Z 0047e288     mfc71:MFC71.DLL
 0002:0000028c       __imp_?VKeyToItem@CListBox@@UAEHII@Z 0047e28c     mfc71:MFC71.DLL
 0002:00000290       __imp_?DeleteItem@CListBox@@UAEXPAUtagDELETEITEMSTRUCT@@@Z 0047e290     mfc71:MFC71.DLL
 0002:00000294       __imp_?CompareItem@CListBox@@UAEHPAUtagCOMPAREITEMSTRUCT@@@Z 0047e294     mfc71:MFC71.DLL
 0002:00000298       __imp_?MeasureItem@CListBox@@UAEXPAUtagMEASUREITEMSTRUCT@@@Z 0047e298     mfc71:MFC71.DLL
 0002:0000029c       __imp_?DrawItem@CListBox@@UAEXPAUtagDRAWITEMSTRUCT@@@Z 0047e29c     mfc71:MFC71.DLL
 0002:000002a0       __imp_?Create@CListBox@@UAEHKABUtagRECT@@PAVCWnd@@I@Z 0047e2a0     mfc71:MFC71.DLL
 0002:000002a4       __imp_?OnChildNotify@CListBox@@MAEHIIJPAJ@Z 0047e2a4     mfc71:MFC71.DLL
 0002:000002a8       __imp_?GetRuntimeClass@CListBox@@UBEPAUCRuntimeClass@@XZ 0047e2a8     mfc71:MFC71.DLL
 0002:000002ac       __imp_?AfxFindResourceHandle@@YGPAUHINSTANCE__@@PBD0@Z 0047e2ac     mfc71:MFC71.DLL
 0002:000002b0       __imp_?CreateEx@CProgressCtrl@@UAEHKKABUtagRECT@@PAVCWnd@@I@Z 0047e2b0     mfc71:MFC71.DLL
 0002:000002b4       __imp_?Create@CProgressCtrl@@UAEHKABUtagRECT@@PAVCWnd@@I@Z 0047e2b4     mfc71:MFC71.DLL
 0002:000002b8       __imp_?GetRuntimeClass@CProgressCtrl@@UBEPAUCRuntimeClass@@XZ 0047e2b8     mfc71:MFC71.DLL
 0002:000002bc       __imp_?OnInitDialog@CDialog@@UAEHXZ 0047e2bc     mfc71:MFC71.DLL
 0002:000002c0       __imp_?DDX_Control@@YGXPAVCDataExchange@@HAAVCWnd@@@Z 0047e2c0     mfc71:MFC71.DLL
 0002:000002c4       __imp_?OnPaint@CDialog@@IAEXXZ 0047e2c4     mfc71:MFC71.DLL
 0002:000002c8       __imp_??1CPaintDC@@UAE@XZ  0047e2c8     mfc71:MFC71.DLL
 0002:000002cc       __imp_??0CPaintDC@@QAE@PAVCWnd@@@Z 0047e2cc     mfc71:MFC71.DLL
 0002:000002d0       __imp_?Left@?$CStringT@DV?$StrTraitMFC_DLL@DV?$ChTraitsCRT@D@ATL@@@@@ATL@@QBE?AV12@H@Z 0047e2d0     mfc71:MFC71.DLL
 0002:000002d4       __imp_?ReverseFind@?$CStringT@DV?$StrTraitMFC_DLL@DV?$ChTraitsCRT@D@ATL@@@@@ATL@@QBEHD@Z 0047e2d4     mfc71:MFC71.DLL
 0002:000002d8       __imp_?QuickActivate@COleControlSite@@UAEHXZ 0047e2d8     mfc71:MFC71.DLL
 0002:000002dc       __imp_?BindProperty@COleControlSite@@UAEXJPAVCWnd@@@Z 0047e2dc     mfc71:MFC71.DLL
 0002:000002e0       __imp_?BindDefaultProperty@COleControlSite@@UAEXJGPBDPAVCWnd@@@Z 0047e2e0     mfc71:MFC71.DLL
 0002:000002e4       __imp_?EnableDSC@COleControlSite@@UAEXXZ 0047e2e4     mfc71:MFC71.DLL
 0002:000002e8       __imp_?SetFocus@COleControlSite@@UAEPAVCWnd@@XZ 0047e2e8     mfc71:MFC71.DLL
 0002:000002ec       __imp_?SetFocus@COleControlSite@@UAEPAVCWnd@@PAUtagMSG@@@Z 0047e2ec     mfc71:MFC71.DLL
 0002:000002f0       __imp_?EnableWindow@COleControlSite@@UAEHH@Z 0047e2f0     mfc71:MFC71.DLL
 0002:000002f4       __imp_?IsWindowEnabled@COleControlSite@@UBEHXZ 0047e2f4     mfc71:MFC71.DLL
 0002:000002f8       __imp_?ShowWindow@COleControlSite@@UAEHH@Z 0047e2f8     mfc71:MFC71.DLL
 0002:000002fc       __imp_?SetWindowPos@COleControlSite@@UAEHPBVCWnd@@HHHHI@Z 0047e2fc     mfc71:MFC71.DLL
 0002:00000300       __imp_?MoveWindow@COleControlSite@@UAEXHHHH@Z 0047e300     mfc71:MFC71.DLL
 0002:00000304       __imp_?SetDlgCtrlID@COleControlSite@@UAEHH@Z 0047e304     mfc71:MFC71.DLL
 0002:00000308       __imp_?GetDlgCtrlID@COleControlSite@@UBEHXZ 0047e308     mfc71:MFC71.DLL
 0002:0000030c       __imp_?GetWindowTextA@COleControlSite@@UBEXAAV?$CStringT@DV?$StrTraitMFC_DLL@DV?$ChTraitsCRT@D@ATL@@@@@ATL@@@Z 0047e30c     mfc71:MFC71.DLL
 0002:00000310       __imp_?SetWindowTextA@COleControlSite@@UAEXPBD@Z 0047e310     mfc71:MFC71.DLL
 0002:00000314       __imp_?ModifyStyleEx@COleControlSite@@UAEHKKI@Z 0047e314     mfc71:MFC71.DLL
 0002:00000318       __imp_?ModifyStyle@COleControlSite@@UAEHKKI@Z 0047e318     mfc71:MFC71.DLL
 0002:0000031c       __imp_?GetExStyle@COleControlSite@@UBEKXZ 0047e31c     mfc71:MFC71.DLL
 0002:00000320       __imp_?GetStyle@COleControlSite@@UBEKXZ 0047e320     mfc71:MFC71.DLL
 0002:00000324       __imp_?SafeSetProperty@COleControlSite@@UAAHJGZZ 0047e324     mfc71:MFC71.DLL
 0002:00000328       __imp_?SetProperty@COleControlSite@@UAAXJGZZ 0047e328     mfc71:MFC71.DLL
 0002:0000032c       __imp_?GetProperty@COleControlSite@@UBEXJGPAX@Z 0047e32c     mfc71:MFC71.DLL
 0002:00000330       __imp_?InvokeHelper@COleControlSite@@UAAXJGGPAXPBEZZ 0047e330     mfc71:MFC71.DLL
 0002:00000334       __imp_?SetPropertyV@COleControlSite@@UAEXJGPAD@Z 0047e334     mfc71:MFC71.DLL
 0002:00000338       __imp_?InvokeHelperV@COleControlSite@@UAEXJGGPAXPBEPAD@Z 0047e338     mfc71:MFC71.DLL
 0002:0000033c       __imp_?DoVerb@COleControlSite@@UAEJJPAUtagMSG@@@Z 0047e33c     mfc71:MFC71.DLL
 0002:00000340       __imp_?DestroyControl@COleControlSite@@UAEHXZ 0047e340     mfc71:MFC71.DLL
 0002:00000344       __imp_?CreateControl@COleControlSite@@UAEJPAVCWnd@@ABU_GUID@@PBDKABUtagRECT@@IPAVCFile@@HPA_W@Z 0047e344     mfc71:MFC71.DLL
 0002:00000348       __imp_?CreateControl@COleControlSite@@UAEJPAVCWnd@@ABU_GUID@@PBDKPBUtagPOINT@@PBUtagSIZE@@IPAVCFile@@HPA_W@Z 0047e348     mfc71:MFC71.DLL
 0002:0000034c       __imp_?GetMessageMap@CCmdTarget@@MBEPBUAFX_MSGMAP@@XZ 0047e34c     mfc71:MFC71.DLL
 0002:00000350       __imp_?GetRuntimeClass@CCmdTarget@@UBEPAUCRuntimeClass@@XZ 0047e350     mfc71:MFC71.DLL
 0002:00000354       __imp_??0COleControlSite@@QAE@PAVCOleControlContainer@@@Z 0047e354     mfc71:MFC71.DLL
 0002:00000358       __imp_??1COleControlSite@@UAE@XZ 0047e358     mfc71:MFC71.DLL
 0002:0000035c       __imp_?IsEmpty@?$CSimpleStringT@D$00@ATL@@QBE_NXZ 0047e35c     mfc71:MFC71.DLL
 0002:00000360       __imp_??A?$CSimpleStringT@D$00@ATL@@QBEDH@Z 0047e360     mfc71:MFC71.DLL
 0002:00000364       __imp_?LoadStringA@?$CStringT@DV?$StrTraitMFC_DLL@DV?$ChTraitsCRT@D@ATL@@@@@ATL@@QAEHI@Z 0047e364     mfc71:MFC71.DLL
 0002:00000368       __imp_?GetText@CListBox@@QBEXHAAV?$CStringT@DV?$StrTraitMFC_DLL@DV?$ChTraitsCRT@D@ATL@@@@@ATL@@@Z 0047e368     mfc71:MFC71.DLL
 0002:0000036c       __imp_??4?$CStringT@DV?$StrTraitMFC_DLL@DV?$ChTraitsCRT@D@ATL@@@@@ATL@@QAEAAV01@PBD@Z 0047e36c     mfc71:MFC71.DLL
 0002:00000370       __imp_??_U@YAPAXI@Z        0047e370     mfc71:MFC71.DLL
 0002:00000374       __imp_??Y?$CStringT@DV?$StrTraitMFC_DLL@DV?$ChTraitsCRT@D@ATL@@@@@ATL@@QAEAAV01@PBD@Z 0047e374     mfc71:MFC71.DLL
 0002:00000378       __imp_??Y?$CStringT@DV?$StrTraitMFC_DLL@DV?$ChTraitsCRT@D@ATL@@@@@ATL@@QAEAAV01@D@Z 0047e378     mfc71:MFC71.DLL
 0002:0000037c       __imp_?Right@?$CStringT@DV?$StrTraitMFC_DLL@DV?$ChTraitsCRT@D@ATL@@@@@ATL@@QBE?AV12@H@Z 0047e37c     mfc71:MFC71.DLL
 0002:00000380       __imp_?GetAt@?$CSimpleStringT@D$00@ATL@@QBEDH@Z 0047e380     mfc71:MFC71.DLL
 0002:00000384       __imp_??1CFileFind@@UAE@XZ 0047e384     mfc71:MFC71.DLL
 0002:00000388       __imp_?FindFile@CFileFind@@UAEHPBDK@Z 0047e388     mfc71:MFC71.DLL
 0002:0000038c       __imp_??0CFileFind@@QAE@XZ 0047e38c     mfc71:MFC71.DLL
 0002:00000390       __imp_?CreateThread@CWinThread@@QAEHKIPAU_SECURITY_ATTRIBUTES@@@Z 0047e390     mfc71:MFC71.DLL
 0002:00000394       __imp_?AfxGetThread@@YGPAVCWinThread@@XZ 0047e394     mfc71:MFC71.DLL
 0002:00000398       __imp_?InvokeHelper@CWnd@@QAAXJGGPAXPBEZZ 0047e398     mfc71:MFC71.DLL
 0002:0000039c       __imp_?GetThisClass@CWnd@@SGPAUCRuntimeClass@@XZ 0047e39c     mfc71:MFC71.DLL
 0002:000003a0       __imp_?GetThisInterfaceMap@COleControlSite@@KGPBUAFX_INTERFACEMAP@@XZ 0047e3a0     mfc71:MFC71.DLL
 0002:000003a4       __imp_?ExternalAddRef@CCmdTarget@@QAEKXZ 0047e3a4     mfc71:MFC71.DLL
 0002:000003a8       __imp_??0AFX_MAINTAIN_STATE2@@QAE@PAVAFX_MODULE_STATE@@@Z 0047e3a8     mfc71:MFC71.DLL
 0002:000003ac       __imp_?ExternalRelease@CCmdTarget@@QAEKXZ 0047e3ac     mfc71:MFC71.DLL
 0002:000003b0       __imp_?ExternalQueryInterface@CCmdTarget@@QAEKPBXPAPAX@Z 0047e3b0     mfc71:MFC71.DLL
 0002:000003b4       __imp_?GetThisClass@CDialog@@SGPAUCRuntimeClass@@XZ 0047e3b4     mfc71:MFC71.DLL
 0002:000003b8       __imp_?GetDlgItem@CWnd@@QBEPAV1@H@Z 0047e3b8     mfc71:MFC71.DLL
 0002:000003bc       __imp_?ShowWindow@CWnd@@QAEHH@Z 0047e3bc     mfc71:MFC71.DLL
 0002:000003c0       __imp_?Compare@?$CStringT@DV?$StrTraitMFC_DLL@DV?$ChTraitsCRT@D@ATL@@@@@ATL@@QBEHPBD@Z 0047e3c0     mfc71:MFC71.DLL
 0002:000003c4       __imp_?SetRange@CSliderCtrl@@QAEXHHH@Z 0047e3c4     mfc71:MFC71.DLL
 0002:000003c8       __imp_?MakeLower@?$CStringT@DV?$StrTraitMFC_DLL@DV?$ChTraitsCRT@D@ATL@@@@@ATL@@QAEAAV12@XZ 0047e3c8     mfc71:MFC71.DLL
 0002:000003cc       __imp_?ProcessWndProcException@CWinThread@@UAEJPAVCException@@PBUtagMSG@@@Z 0047e3cc     mfc71:MFC71.DLL
 0002:000003d0       __imp_?ExitInstance@CWinThread@@UAEHXZ 0047e3d0     mfc71:MFC71.DLL
 0002:000003d4       __imp_?OnIdle@CWinThread@@UAEHJ@Z 0047e3d4     mfc71:MFC71.DLL
 0002:000003d8       __imp_?Run@CWinThread@@UAEHXZ 0047e3d8     mfc71:MFC71.DLL
 0002:000003dc       __imp_?Find@?$CStringT@DV?$StrTraitMFC_DLL@DV?$ChTraitsCRT@D@ATL@@@@@ATL@@QBEHPBDH@Z 0047e3dc     mfc71:MFC71.DLL
 0002:000003e0       __imp_?AfxMessageBox@@YGHPBDII@Z 0047e3e0     mfc71:MFC71.DLL
 0002:000003e4       __imp_?GetThisMessageMap@CCmdTarget@@KGPBUAFX_MSGMAP@@XZ 0047e3e4     mfc71:MFC71.DLL
 0002:000003e8       __imp_?GetThisClass@CWinThread@@SGPAUCRuntimeClass@@XZ 0047e3e8     mfc71:MFC71.DLL
 0002:000003ec       __imp_??0CWinThread@@QAE@XZ 0047e3ec     mfc71:MFC71.DLL
 0002:000003f0       __imp_??1CWinThread@@UAE@XZ 0047e3f0     mfc71:MFC71.DLL
 0002:000003f4       __imp_?SetAtGrow@CStringArray@@QAEXHABV?$CStringT@DV?$StrTraitMFC_DLL@DV?$ChTraitsCRT@D@ATL@@@@@ATL@@@Z 0047e3f4     mfc71:MFC71.DLL
 0002:000003f8       __imp_?AfxParseURL@@YGHPBDAAKAAV?$CStringT@DV?$StrTraitMFC_DLL@DV?$ChTraitsCRT@D@ATL@@@@@ATL@@2AAG@Z 0047e3f8     mfc71:MFC71.DLL
 0002:000003fc       __imp_?Delete@CException@@QAEXXZ 0047e3fc     mfc71:MFC71.DLL
 0002:00000400       __imp_??1CInternetSession@@UAE@XZ 0047e400     mfc71:MFC71.DLL
 0002:00000404       __imp_?OpenURL@CInternetSession@@QAEPAVCStdioFile@@PBDKK0K@Z 0047e404     mfc71:MFC71.DLL
 0002:00000408       __imp_??0CInternetSession@@QAE@PBDKK00K@Z 0047e408     mfc71:MFC71.DLL
 0002:0000040c       __imp_?GetBuffer@?$CSimpleStringT@D$00@ATL@@QAEPADH@Z 0047e40c     mfc71:MFC71.DLL
 0002:00000410       __imp_?OpenRequest@CHttpConnection@@QAEPAVCHttpFile@@HPBD0KPAPBD0K@Z 0047e410     mfc71:MFC71.DLL
 0002:00000414       __imp_?Replace@?$CStringT@DV?$StrTraitMFC_DLL@DV?$ChTraitsCRT@D@ATL@@@@@ATL@@QAEHPBD0@Z 0047e414     mfc71:MFC71.DLL
 0002:00000418       __imp_?Close@CInternetSession@@UAEXXZ 0047e418     mfc71:MFC71.DLL
 0002:0000041c       __imp_?GetHttpConnection@CInternetSession@@QAEPAVCHttpConnection@@PBDKG00@Z 0047e41c     mfc71:MFC71.DLL
 0002:00000420       __imp_?CompareNoCase@?$CStringT@DV?$StrTraitMFC_DLL@DV?$ChTraitsCRT@D@ATL@@@@@ATL@@QBEHPBD@Z 0047e420     mfc71:MFC71.DLL
 0002:00000424       __imp_?Tokenize@?$CStringT@DV?$StrTraitMFC_DLL@DV?$ChTraitsCRT@D@ATL@@@@@ATL@@QBE?AV12@PBDAAH@Z 0047e424     mfc71:MFC71.DLL
 0002:00000428       __imp_?Trim@?$CStringT@DV?$StrTraitMFC_DLL@DV?$ChTraitsCRT@D@ATL@@@@@ATL@@QAEAAV12@PBD@Z 0047e428     mfc71:MFC71.DLL
 0002:0000042c       __imp_?QueryInfo@CHttpFile@@QBEHKAAV?$CStringT@DV?$StrTraitMFC_DLL@DV?$ChTraitsCRT@D@ATL@@@@@ATL@@PAK@Z 0047e42c     mfc71:MFC71.DLL
 0002:00000430       __imp_?QueryInfoStatusCode@CHttpFile@@QBEHAAK@Z 0047e430     mfc71:MFC71.DLL
 0002:00000434       __imp_?SendRequest@CHttpFile@@QAEHPBDKPAXK@Z 0047e434     mfc71:MFC71.DLL
 0002:00000438       __imp_?AddRequestHeaders@CHttpFile@@QAEHPBDKH@Z 0047e438     mfc71:MFC71.DLL
 0002:0000043c       __imp_?GetBuffer@?$CSimpleStringT@D$00@ATL@@QAEPADXZ 0047e43c     mfc71:MFC71.DLL
 0002:00000440       __imp_?SetSize@CStringArray@@QAEXHH@Z 0047e440     mfc71:MFC71.DLL
 0002:00000444       __imp_?Empty@?$CSimpleStringT@D$00@ATL@@QAEXXZ 0047e444     mfc71:MFC71.DLL
 0002:00000448       __imp_?MakeUpper@?$CStringT@DV?$StrTraitMFC_DLL@DV?$ChTraitsCRT@D@ATL@@@@@ATL@@QAEAAV12@XZ 0047e448     mfc71:MFC71.DLL
 0002:0000044c       __imp_?Mid@?$CStringT@DV?$StrTraitMFC_DLL@DV?$ChTraitsCRT@D@ATL@@@@@ATL@@QBE?AV12@HH@Z 0047e44c     mfc71:MFC71.DLL
 0002:00000450       __imp_?ReleaseBuffer@?$CSimpleStringT@D$00@ATL@@QAEXH@Z 0047e450     mfc71:MFC71.DLL
 0002:00000454       __imp_?RemoveAt@CStringArray@@QAEXHH@Z 0047e454     mfc71:MFC71.DLL
 0002:00000458       __imp_?SetAt@?$CSimpleStringT@D$00@ATL@@QAEXHD@Z 0047e458     mfc71:MFC71.DLL
 0002:0000045c       __imp_?SetAtGrow@CStringArray@@QAEXHPBD@Z 0047e45c     mfc71:MFC71.DLL
 0002:00000460       __imp_?Close@CFile@@UAEXXZ 0047e460     mfc71:MFC71.DLL
 0002:00000464       __imp_?Write@CFile@@UAEXPBXI@Z 0047e464     mfc71:MFC71.DLL
 0002:00000468       __imp_??1CFile@@UAE@XZ     0047e468     mfc71:MFC71.DLL
 0002:0000046c       __imp_?Open@CFile@@UAEHPBDIPAVCFileException@@@Z 0047e46c     mfc71:MFC71.DLL
 0002:00000470       __imp_??0CFile@@QAE@XZ     0047e470     mfc71:MFC71.DLL
 0002:00000474       __imp_?AppendFormat@?$CStringT@DV?$StrTraitMFC_DLL@DV?$ChTraitsCRT@D@ATL@@@@@ATL@@QAAXPBDZZ 0047e474     mfc71:MFC71.DLL
 0002:00000478       __imp_?GetLBText@CComboBox@@QBEXHAAV?$CStringT@DV?$StrTraitMFC_DLL@DV?$ChTraitsCRT@D@ATL@@@@@ATL@@@Z 0047e478     mfc71:MFC71.DLL
 0002:0000047c       __imp_?AfxThrowInvalidArgException@@YGXXZ 0047e47c     mfc71:MFC71.DLL
 0002:00000480       __imp_?GetManager@?$CSimpleStringT@D$00@ATL@@QBEPAUIAtlStringMgr@2@XZ 0047e480     mfc71:MFC71.DLL
 0002:00000484       __imp_??0?$CStringT@DV?$StrTraitMFC_DLL@DV?$ChTraitsCRT@D@ATL@@@@@ATL@@QAE@PAUIAtlStringMgr@1@@Z 0047e484     mfc71:MFC71.DLL
 0002:00000488       __imp_?StringLength@?$CSimpleStringT@D$00@ATL@@SAHPBD@Z 0047e488     mfc71:MFC71.DLL
 0002:0000048c       __imp_?GetLength@?$CSimpleStringT@D$00@ATL@@QBEHXZ 0047e48c     mfc71:MFC71.DLL
 0002:00000490       __imp_??B?$CSimpleStringT@D$00@ATL@@QBEPBDXZ 0047e490     mfc71:MFC71.DLL
 0002:00000494       __imp_?Concatenate@?$CSimpleStringT@D$00@ATL@@KAXAAV12@PBDH1H@Z 0047e494     mfc71:MFC71.DLL
 0002:00000498       __imp_??0?$CStringT@DV?$StrTraitMFC_DLL@DV?$ChTraitsCRT@D@ATL@@@@@ATL@@QAE@ABV01@@Z 0047e498     mfc71:MFC71.DLL
 0002:0000049c       __imp_?EnableWindow@CWnd@@QAEHH@Z 0047e49c     mfc71:MFC71.DLL
 0002:000004a0       __imp_?EndDialog@CDialog@@QAEXH@Z 0047e4a0     mfc71:MFC71.DLL
 0002:000004a4       __imp_??0?$CStringT@DV?$StrTraitMFC_DLL@DV?$ChTraitsCRT@D@ATL@@@@@ATL@@QAE@PBD@Z 0047e4a4     mfc71:MFC71.DLL
 0002:000004a8       __imp_?InitInstance@CWinApp@@UAEHXZ 0047e4a8     mfc71:MFC71.DLL
 0002:000004ac       __imp_?AfxEnableControlContainer@@YAXPAVCOccManager@@@Z 0047e4ac     mfc71:MFC71.DLL
 0002:000004b0       __imp_??2@YAPAXI@Z         0047e4b0     mfc71:MFC71.DLL
 0002:000004b4       __imp_??2CNoTrackObject@@SGPAXI@Z 0047e4b4     mfc71:MFC71.DLL
 0002:000004b8       __imp_?DoModal@CDialog@@UAEHXZ 0047e4b8     mfc71:MFC71.DLL
 0002:000004bc       __imp_??3CNoTrackObject@@SGXPAX@Z 0047e4bc     mfc71:MFC71.DLL
 0002:000004c0       __imp_?OnEvent@COccManager@@UAEHPAVCCmdTarget@@IPAUAFX_EVENT@@PAUAFX_CMDHANDLERINFO@@@Z 0047e4c0     mfc71:MFC71.DLL
 0002:000004c4       __imp_?CreateContainer@COccManager@@UAEPAVCOleControlContainer@@PAVCWnd@@@Z 0047e4c4     mfc71:MFC71.DLL
 0002:000004c8       __imp_?CreateSite@COccManager@@UAEPAVCOleControlSite@@PAVCOleControlContainer@@@Z 0047e4c8     mfc71:MFC71.DLL
 0002:000004cc       __imp_?PreCreateDialog@COccManager@@UAEPBUDLGTEMPLATE@@PAU_AFX_OCC_DIALOG_INFO@@PBU2@@Z 0047e4cc     mfc71:MFC71.DLL
 0002:000004d0       __imp_?PostCreateDialog@COccManager@@UAEXPAU_AFX_OCC_DIALOG_INFO@@@Z 0047e4d0     mfc71:MFC71.DLL
 0002:000004d4       __imp_?SplitDialogTemplate@COccManager@@UAEPAUDLGTEMPLATE@@PBU2@PAPAUDLGITEMTEMPLATE@@@Z 0047e4d4     mfc71:MFC71.DLL
 0002:000004d8       __imp_?CreateDlgControls@COccManager@@UAEHPAVCWnd@@PAXPAU_AFX_OCC_DIALOG_INFO@@@Z 0047e4d8     mfc71:MFC71.DLL
 0002:000004dc       __imp_?CreateDlgControls@COccManager@@UAEHPAVCWnd@@PBDPAU_AFX_OCC_DIALOG_INFO@@@Z 0047e4dc     mfc71:MFC71.DLL
 0002:000004e0       __imp_?IsDialogMessageA@COccManager@@UAEHPAVCWnd@@PAUtagMSG@@@Z 0047e4e0     mfc71:MFC71.DLL
 0002:000004e4       __imp_??1CListBox@@UAE@XZ  0047e4e4     mfc71:MFC71.DLL
 0002:000004e8       __imp_??1CButton@@UAE@XZ   0047e4e8     mfc71:MFC71.DLL
 0002:000004ec       __imp_??1CProgressCtrl@@UAE@XZ 0047e4ec     mfc71:MFC71.DLL
 0002:000004f0       __imp_??1?$CStringT@DV?$StrTraitMFC_DLL@DV?$ChTraitsCRT@D@ATL@@@@@ATL@@QAE@XZ 0047e4f0     mfc71:MFC71.DLL
 0002:000004f4       __imp_??1CDialog@@UAE@XZ   0047e4f4     mfc71:MFC71.DLL
 0002:000004f8       __imp_?GetString@?$CSimpleStringT@D$00@ATL@@QBEPBDXZ 0047e4f8     mfc71:MFC71.DLL
 0002:000004fc       __imp_?InitApplication@CWinApp@@UAEHXZ 0047e4fc     mfc71:MFC71.DLL
 0002:00000500       __imp_??1CWnd@@UAE@XZ      0047e500     mfc71:MFC71.DLL
 0002:00000504       __imp_??3@YAXPAX@Z         0047e504     mfc71:MFC71.DLL
 0002:00000508       __imp_??0CWinApp@@QAE@PBD@Z 0047e508     mfc71:MFC71.DLL
 0002:0000050c       __imp_??1CWinApp@@UAE@XZ   0047e50c     mfc71:MFC71.DLL
 0002:00000510       __imp_?GetRuntimeClass@CWinApp@@UBEPAUCRuntimeClass@@XZ 0047e510     mfc71:MFC71.DLL
 0002:00000514       __imp_?OnCmdMsg@CCmdTarget@@UAEHIHPAXPAUAFX_CMDHANDLERINFO@@@Z 0047e514     mfc71:MFC71.DLL
 0002:00000518       __imp_?OnFinalRelease@CCmdTarget@@UAEXXZ 0047e518     mfc71:MFC71.DLL
 0002:0000051c       __imp_?IsInvokeAllowed@CCmdTarget@@UAEHJ@Z 0047e51c     mfc71:MFC71.DLL
 0002:00000520       __imp_?GetDispatchIID@CCmdTarget@@UAEHPAU_GUID@@@Z 0047e520     mfc71:MFC71.DLL
 0002:00000524       __imp_?GetTypeInfoCount@CCmdTarget@@UAEIXZ 0047e524     mfc71:MFC71.DLL
 0002:00000528       __imp_?GetTypeLibCache@CCmdTarget@@UAEPAVCTypeLibCache@@XZ 0047e528     mfc71:MFC71.DLL
 0002:0000052c       __imp_?GetTypeLib@CCmdTarget@@UAEJKPAPAUITypeLib@@@Z 0047e52c     mfc71:MFC71.DLL
 0002:00000530       __imp_?GetCommandMap@CCmdTarget@@MBEPBUAFX_OLECMDMAP@@XZ 0047e530     mfc71:MFC71.DLL
 0002:00000534       __imp_?GetDispatchMap@CCmdTarget@@MBEPBUAFX_DISPMAP@@XZ 0047e534     mfc71:MFC71.DLL
 0002:00000538       __imp_?GetConnectionMap@CCmdTarget@@MBEPBUAFX_CONNECTIONMAP@@XZ 0047e538     mfc71:MFC71.DLL
 0002:0000053c       __imp_?GetInterfaceMap@CCmdTarget@@MBEPBUAFX_INTERFACEMAP@@XZ 0047e53c     mfc71:MFC71.DLL
 0002:00000540       __imp_?GetEventSinkMap@CCmdTarget@@MBEPBUAFX_EVENTSINKMAP@@XZ 0047e540     mfc71:MFC71.DLL
 0002:00000544       __imp_?OnCreateAggregates@CCmdTarget@@UAEHXZ 0047e544     mfc71:MFC71.DLL
 0002:00000548       __imp_?GetInterfaceHook@CCmdTarget@@UAEPAUIUnknown@@PBX@Z 0047e548     mfc71:MFC71.DLL
 0002:0000054c       __imp_?GetExtraConnectionPoints@CCmdTarget@@MAEHPAVCPtrArray@@@Z 0047e54c     mfc71:MFC71.DLL
 0002:00000550       __imp_?GetConnectionHook@CCmdTarget@@MAEPAUIConnectionPoint@@ABU_GUID@@@Z 0047e550     mfc71:MFC71.DLL
 0002:00000554       __imp_?Run@CWinApp@@UAEHXZ 0047e554     mfc71:MFC71.DLL
 0002:00000558       __imp_?PreTranslateMessage@CWinThread@@UAEHPAUtagMSG@@@Z 0047e558     mfc71:MFC71.DLL
 0002:0000055c       __imp_?PumpMessage@CWinThread@@UAEHXZ 0047e55c     mfc71:MFC71.DLL
 0002:00000560       __imp_?OnIdle@CWinApp@@UAEHJ@Z 0047e560     mfc71:MFC71.DLL
 0002:00000564       __imp_?IsIdleMessage@CWinThread@@UAEHPAUtagMSG@@@Z 0047e564     mfc71:MFC71.DLL
 0002:00000568       __imp_?ExitInstance@CWinApp@@UAEHXZ 0047e568     mfc71:MFC71.DLL
 0002:0000056c       __imp_?ProcessWndProcException@CWinApp@@UAEJPAVCException@@PBUtagMSG@@@Z 0047e56c     mfc71:MFC71.DLL
 0002:00000570       __imp_?ProcessMessageFilter@CWinThread@@UAEHHPAUtagMSG@@@Z 0047e570     mfc71:MFC71.DLL
 0002:00000574       __imp_?GetMainWnd@CWinThread@@UAEPAVCWnd@@XZ 0047e574     mfc71:MFC71.DLL
 0002:00000578       __imp_?Delete@CWinThread@@UAEXXZ 0047e578     mfc71:MFC71.DLL
 0002:0000057c       __imp_?InitLibId@CWinApp@@UAEXXZ 0047e57c     mfc71:MFC71.DLL
 0002:00000580       __imp_?Register@CWinApp@@UAEHXZ 0047e580     mfc71:MFC71.DLL
 0002:00000584       __imp_?Unregister@CWinApp@@UAEHXZ 0047e584     mfc71:MFC71.DLL
 0002:00000588       __imp_?OpenDocumentFile@CWinApp@@UAEPAVCDocument@@PBD@Z 0047e588     mfc71:MFC71.DLL
 0002:0000058c       __imp_?AddToRecentFileList@CWinApp@@UAEXPBD@Z 0047e58c     mfc71:MFC71.DLL
 0002:00000590       __imp_?SaveAllModified@CWinApp@@UAEHXZ 0047e590     mfc71:MFC71.DLL
 0002:00000594       __imp_?DoMessageBox@CWinApp@@UAEHPBDII@Z 0047e594     mfc71:MFC71.DLL
 0002:00000598       __imp_?DoWaitCursor@CWinApp@@UAEXH@Z 0047e598     mfc71:MFC71.DLL
 0002:0000059c       __imp_?OnDDECommand@CWinApp@@UAEHPAD@Z 0047e59c     mfc71:MFC71.DLL
 0002:000005a0       __imp_?WinHelpA@CWinApp@@UAEXKI@Z 0047e5a0     mfc71:MFC71.DLL
 0002:000005a4       __imp_?HtmlHelpA@CWinApp@@UAEXKI@Z 0047e5a4     mfc71:MFC71.DLL
 0002:000005a8       __imp_?WinHelpInternal@CWinApp@@UAEXKI@Z 0047e5a8     mfc71:MFC71.DLL
 0002:000005ac       __imp_?LoadAppLangResourceDLL@CWinApp@@UAEPAUHINSTANCE__@@XZ 0047e5ac     mfc71:MFC71.DLL
 0002:000005b0       __imp_?LoadSysPolicies@CWinApp@@UAEHXZ 0047e5b0     mfc71:MFC71.DLL
 0002:000005b4       __imp_?GetThisMessageMap@CWinApp@@KGPBUAFX_MSGMAP@@XZ 0047e5b4     mfc71:MFC71.DLL
 0002:000005b8       __imp_?OnHelp@CWinApp@@IAEXXZ 0047e5b8     mfc71:MFC71.DLL
 0002:000005bc       __imp_?OnChildNotify@CButton@@MAEHIIJPAJ@Z 0047e5bc     mfc71:MFC71.DLL
 0002:000005c0       __imp_?AfxWinMain@@YGHPAUHINSTANCE__@@0PADH@Z 0047e5c0     mfc71:MFC71.DLL
 0002:000005c4       \177MFC71_NULL_THUNK_DATA  0047e5c4     mfc71:MFC71.DLL
 0002:000005c8       __imp_?size@?$basic_string@DU?$char_traits@D@std@@V?$allocator@D@2@@std@@QBEIXZ 0047e5c8     msvcprt:MSVCP71.dll
 0002:000005cc       __imp_??0?$basic_string@DU?$char_traits@D@std@@V?$allocator@D@2@@std@@QAE@ABV01@@Z 0047e5cc     msvcprt:MSVCP71.dll
 0002:000005d0       __imp_?end@?$basic_string@DU?$char_traits@D@std@@V?$allocator@D@2@@std@@QAE?AViterator@12@XZ 0047e5d0     msvcprt:MSVCP71.dll
 0002:000005d4       __imp_?begin@?$basic_string@DU?$char_traits@D@std@@V?$allocator@D@2@@std@@QAE?AViterator@12@XZ 0047e5d4     msvcprt:MSVCP71.dll
 0002:000005d8       __imp_?c_str@?$basic_string@DU?$char_traits@D@std@@V?$allocator@D@2@@std@@QBEPBDXZ 0047e5d8     msvcprt:MSVCP71.dll
 0002:000005dc       __imp_??4?$basic_string@DU?$char_traits@D@std@@V?$allocator@D@2@@std@@QAEAAV01@PBD@Z 0047e5dc     msvcprt:MSVCP71.dll
 0002:000005e0       __imp_??Y?$basic_string@DU?$char_traits@D@std@@V?$allocator@D@2@@std@@QAEAAV01@ABV01@@Z 0047e5e0     msvcprt:MSVCP71.dll
 0002:000005e4       __imp_??0?$basic_string@DU?$char_traits@D@std@@V?$allocator@D@2@@std@@QAE@XZ 0047e5e4     msvcprt:MSVCP71.dll
 0002:000005e8       __imp_??Y?$basic_string@DU?$char_traits@D@std@@V?$allocator@D@2@@std@@QAEAAV01@PBD@Z 0047e5e8     msvcprt:MSVCP71.dll
 0002:000005ec       __imp_??0?$basic_string@DU?$char_traits@D@std@@V?$allocator@D@2@@std@@QAE@PBD@Z 0047e5ec     msvcprt:MSVCP71.dll
 0002:000005f0       __imp_??1?$basic_string@DU?$char_traits@D@std@@V?$allocator@D@2@@std@@QAE@XZ 0047e5f0     msvcprt:MSVCP71.dll
 0002:000005f4       __imp_??Y?$basic_string@DU?$char_traits@D@std@@V?$allocator@D@2@@std@@QAEAAV01@D@Z 0047e5f4     msvcprt:MSVCP71.dll
 0002:000005f8       __imp_?_Xran@_String_base@std@@QBEXXZ 0047e5f8     msvcprt:MSVCP71.dll
 0002:000005fc       __imp_?assign@?$basic_string@DU?$char_traits@D@std@@V?$allocator@D@2@@std@@QAEAAV12@PBDI@Z 0047e5fc     msvcprt:MSVCP71.dll
 0002:00000600       __imp_?peek@?$basic_istream@DU?$char_traits@D@std@@@std@@QAEHXZ 0047e600     msvcprt:MSVCP71.dll
 0002:00000604       __imp_?get@?$basic_istream@DU?$char_traits@D@std@@@std@@QAEHXZ 0047e604     msvcprt:MSVCP71.dll
 0002:00000608       __imp_?append@?$basic_string@DU?$char_traits@D@std@@V?$allocator@D@2@@std@@QAEAAV12@PBDI@Z 0047e608     msvcprt:MSVCP71.dll
 0002:0000060c       __imp_??0?$_String_val@DV?$allocator@D@std@@@std@@IAE@V?$allocator@D@1@@Z 0047e60c     msvcprt:MSVCP71.dll
 0002:00000610       __imp_?_Tidy@?$basic_string@DU?$char_traits@D@std@@V?$allocator@D@2@@std@@IAEX_NI@Z 0047e610     msvcprt:MSVCP71.dll
 0002:00000614       __imp_??$?9DU?$char_traits@D@std@@V?$allocator@D@1@@std@@YA_NABV?$basic_string@DU?$char_traits@D@std@@V?$allocator@D@2@@0@0@Z 0047e614     msvcprt:MSVCP71.dll
 0002:00000618       __imp_??$?9DU?$char_traits@D@std@@V?$allocator@D@1@@std@@YA_NABV?$basic_string@DU?$char_traits@D@std@@V?$allocator@D@2@@0@PBD@Z 0047e618     msvcprt:MSVCP71.dll
 0002:0000061c       __imp_??0?$basic_string@DU?$char_traits@D@std@@V?$allocator@D@2@@std@@QAE@ABV01@II@Z 0047e61c     msvcprt:MSVCP71.dll
 0002:00000620       __imp_?append@?$basic_string@DU?$char_traits@D@std@@V?$allocator@D@2@@std@@QAEAAV12@ID@Z 0047e620     msvcprt:MSVCP71.dll
 0002:00000624       __imp_?npos@?$basic_string@DU?$char_traits@D@std@@V?$allocator@D@2@@std@@2IB 0047e624     msvcprt:MSVCP71.dll
 0002:00000628       __imp_?read@?$basic_istream@DU?$char_traits@D@std@@@std@@QAEAAV12@PADH@Z 0047e628     msvcprt:MSVCP71.dll
 0002:0000062c       __imp_??$?8DU?$char_traits@D@std@@V?$allocator@D@1@@std@@YA_NABV?$basic_string@DU?$char_traits@D@std@@V?$allocator@D@2@@0@0@Z 0047e62c     msvcprt:MSVCP71.dll
 0002:00000630       __imp_??0?$basic_ifstream@DU?$char_traits@D@std@@@std@@QAE@PBDHH@Z 0047e630     msvcprt:MSVCP71.dll
 0002:00000634       __imp_??0?$basic_ofstream@DU?$char_traits@D@std@@@std@@QAE@PBDHH@Z 0047e634     msvcprt:MSVCP71.dll
 0002:00000638       __imp_?write@?$basic_ostream@DU?$char_traits@D@std@@@std@@QAEAAV12@PBDH@Z 0047e638     msvcprt:MSVCP71.dll
 0002:0000063c       __imp_?close@?$basic_ifstream@DU?$char_traits@D@std@@@std@@QAEXXZ 0047e63c     msvcprt:MSVCP71.dll
 0002:00000640       __imp_?close@?$basic_ofstream@DU?$char_traits@D@std@@@std@@QAEXXZ 0047e640     msvcprt:MSVCP71.dll
 0002:00000644       __imp_??_D?$basic_ofstream@DU?$char_traits@D@std@@@std@@QAEXXZ 0047e644     msvcprt:MSVCP71.dll
 0002:00000648       __imp_??_D?$basic_ifstream@DU?$char_traits@D@std@@@std@@QAEXXZ 0047e648     msvcprt:MSVCP71.dll
 0002:0000064c       __imp_?find@?$basic_string@DU?$char_traits@D@std@@V?$allocator@D@2@@std@@QBEIPBDII@Z 0047e64c     msvcprt:MSVCP71.dll
 0002:00000650       __imp_?reserve@?$basic_string@DU?$char_traits@D@std@@V?$allocator@D@2@@std@@QAEXI@Z 0047e650     msvcprt:MSVCP71.dll
 0002:00000654       __imp_?clear@?$basic_string@DU?$char_traits@D@std@@V?$allocator@D@2@@std@@QAEXXZ 0047e654     msvcprt:MSVCP71.dll
 0002:00000658       __imp_??4?$basic_string@DU?$char_traits@D@std@@V?$allocator@D@2@@std@@QAEAAV01@ABV01@@Z 0047e658     msvcprt:MSVCP71.dll
 0002:0000065c       __imp_??0?$basic_string@GU?$char_traits@G@std@@V?$allocator@G@2@@std@@QAE@PBG@Z 0047e65c     msvcprt:MSVCP71.dll
 0002:00000660       __imp_??1?$basic_string@GU?$char_traits@G@std@@V?$allocator@G@2@@std@@QAE@XZ 0047e660     msvcprt:MSVCP71.dll
 0002:00000664       __imp_??$?MDU?$char_traits@D@std@@V?$allocator@D@1@@std@@YA_NABV?$basic_string@DU?$char_traits@D@std@@V?$allocator@D@2@@0@0@Z 0047e664     msvcprt:MSVCP71.dll
 0002:00000668       \177MSVCP71_NULL_THUNK_DATA 0047e668     msvcprt:MSVCP71.dll
 0002:0000066c       __imp____CxxFrameHandler   0047e66c     msvcrt:MSVCR71.dll
 0002:00000670       __imp__strftime            0047e670     msvcrt:MSVCR71.dll
 0002:00000674       __imp__localtime           0047e674     msvcrt:MSVCR71.dll
 0002:00000678       __imp__time                0047e678     msvcrt:MSVCR71.dll
 0002:0000067c       __imp__fclose              0047e67c     msvcrt:MSVCR71.dll
 0002:00000680       __imp__fprintf             0047e680     msvcrt:MSVCR71.dll
 0002:00000684       __imp__fopen               0047e684     msvcrt:MSVCR71.dll
 0002:00000688       __imp__fread               0047e688     msvcrt:MSVCR71.dll
 0002:0000068c       __imp__malloc              0047e68c     msvcrt:MSVCR71.dll
 0002:00000690       __imp__free                0047e690     msvcrt:MSVCR71.dll
 0002:00000694       __imp___except_handler3    0047e694     msvcrt:MSVCR71.dll
 0002:00000698       __imp_??0exception@@QAE@ABV0@@Z 0047e698     msvcrt:MSVCR71.dll
 0002:0000069c       __imp___CxxThrowException@8 0047e69c     msvcrt:MSVCR71.dll
 0002:000006a0       __imp__fwrite              0047e6a0     msvcrt:MSVCR71.dll
 0002:000006a4       __imp__fseek               0047e6a4     msvcrt:MSVCR71.dll
 0002:000006a8       __imp__ftell               0047e6a8     msvcrt:MSVCR71.dll
 0002:000006ac       __imp__memmove             0047e6ac     msvcrt:MSVCR71.dll
 0002:000006b0       __imp_??1exception@@UAE@XZ 0047e6b0     msvcrt:MSVCR71.dll
 0002:000006b4       __imp_??0exception@@QAE@XZ 0047e6b4     msvcrt:MSVCR71.dll
 0002:000006b8       __imp___mbscmp             0047e6b8     msvcrt:MSVCR71.dll
 0002:000006bc       __imp__rand                0047e6bc     msvcrt:MSVCR71.dll
 0002:000006c0       __imp___beginthreadex      0047e6c0     msvcrt:MSVCR71.dll
 0002:000006c4       __imp__atol                0047e6c4     msvcrt:MSVCR71.dll
 0002:000006c8       __imp__strncpy             0047e6c8     msvcrt:MSVCR71.dll
 0002:000006cc       __imp__srand               0047e6cc     msvcrt:MSVCR71.dll
 0002:000006d0       __imp__floor               0047e6d0     msvcrt:MSVCR71.dll
 0002:000006d4       __imp__strrchr             0047e6d4     msvcrt:MSVCR71.dll
 0002:000006d8       __imp___strlwr             0047e6d8     msvcrt:MSVCR71.dll
 0002:000006dc       __imp__stricmp             0047e6dc     msvcrt:MSVCR71.dll
 0002:000006dc       __imp___stricmp            0047e6dc     msvcrt:MSVCR71.dll
 0002:000006e0       __imp__realloc             0047e6e0     msvcrt:MSVCR71.dll
 0002:000006e4       __imp___localtime64        0047e6e4     msvcrt:MSVCR71.dll
 0002:000006e8       __imp___vsnprintf          0047e6e8     msvcrt:MSVCR71.dll
 0002:000006ec       __imp___time64             0047e6ec     msvcrt:MSVCR71.dll
 0002:000006f0       __imp__sprintf             0047e6f0     msvcrt:MSVCR71.dll
 0002:000006f4       __imp__qsort               0047e6f4     msvcrt:MSVCR71.dll
 0002:000006f8       __imp__strtok              0047e6f8     msvcrt:MSVCR71.dll
 0002:000006fc       __imp___itoa               0047e6fc     msvcrt:MSVCR71.dll
 0002:00000700       __imp___CIacos             0047e700     msvcrt:MSVCR71.dll
 0002:00000704       __imp___CIasin             0047e704     msvcrt:MSVCR71.dll
 0002:00000708       __imp___CIpow              0047e708     msvcrt:MSVCR71.dll
 0002:0000070c       __imp___purecall           0047e70c     msvcrt:MSVCR71.dll
 0002:00000710       __imp___close              0047e710     msvcrt:MSVCR71.dll
 0002:00000714       __imp__tolower             0047e714     msvcrt:MSVCR71.dll
 0002:00000718       __imp__atoi                0047e718     msvcrt:MSVCR71.dll
 0002:0000071c       __imp___splitpath          0047e71c     msvcrt:MSVCR71.dll
 0002:00000720       __imp___snprintf           0047e720     msvcrt:MSVCR71.dll
 0002:00000724       __imp__isspace             0047e724     msvcrt:MSVCR71.dll
 0002:00000728       __imp__isalpha             0047e728     msvcrt:MSVCR71.dll
 0002:0000072c       __imp__isalnum             0047e72c     msvcrt:MSVCR71.dll
 0002:00000730       __imp__strncmp             0047e730     msvcrt:MSVCR71.dll
 0002:00000734       __imp__strchr              0047e734     msvcrt:MSVCR71.dll
 0002:00000738       __imp__strrev              0047e738     msvcrt:MSVCR71.dll
 0002:00000738       __imp___strrev             0047e738     msvcrt:MSVCR71.dll
 0002:0000073c       __imp__calloc              0047e73c     msvcrt:MSVCR71.dll
 0002:00000740       __imp___ftol               0047e740     msvcrt:MSVCR71.dll
 0002:00000744       __imp___open               0047e744     msvcrt:MSVCR71.dll
 0002:00000748       __imp___read               0047e748     msvcrt:MSVCR71.dll
 0002:0000074c       __imp___write              0047e74c     msvcrt:MSVCR71.dll
 0002:00000750       __imp___lseek              0047e750     msvcrt:MSVCR71.dll
 0002:00000754       __imp__frexp               0047e754     msvcrt:MSVCR71.dll
 0002:00000758       __imp___setmbcp            0047e758     msvcrt:MSVCR71.dll
 0002:0000075c       __imp___controlfp          0047e75c     msvcrt:MSVCR71.dll
 0002:00000760       __imp____set_app_type      0047e760     msvcrt:MSVCR71.dll
 0002:00000764       __imp____p__fmode          0047e764     msvcrt:MSVCR71.dll
 0002:00000768       __imp____p__commode        0047e768     msvcrt:MSVCR71.dll
 0002:0000076c       __imp___adjust_fdiv        0047e76c     msvcrt:MSVCR71.dll
 0002:00000770       __imp____setusermatherr    0047e770     msvcrt:MSVCR71.dll
 0002:00000774       __imp___initterm           0047e774     msvcrt:MSVCR71.dll
 0002:00000778       __imp____getmainargs       0047e778     msvcrt:MSVCR71.dll
 0002:0000077c       __imp___amsg_exit          0047e77c     msvcrt:MSVCR71.dll
 0002:00000780       __imp___acmdln             0047e780     msvcrt:MSVCR71.dll
 0002:00000784       __imp__exit                0047e784     msvcrt:MSVCR71.dll
 0002:00000788       __imp___cexit              0047e788     msvcrt:MSVCR71.dll
 0002:0000078c       __imp___ismbblead          0047e78c     msvcrt:MSVCR71.dll
 0002:00000790       __imp___XcptFilter         0047e790     msvcrt:MSVCR71.dll
 0002:00000794       __imp___exit               0047e794     msvcrt:MSVCR71.dll
 0002:00000798       __imp___c_exit             0047e798     msvcrt:MSVCR71.dll
 0002:0000079c       __imp_?terminate@@YAXXZ    0047e79c     msvcrt:MSVCR71.dll
 0002:000007a0       __imp_??1type_info@@UAE@XZ 0047e7a0     msvcrt:MSVCR71.dll
 0002:000007a4       __imp____security_error_handler 0047e7a4     msvcrt:MSVCR71.dll
 0002:000007a8       __imp___onexit             0047e7a8     msvcrt:MSVCR71.dll
 0002:000007ac       __imp____dllonexit         0047e7ac     msvcrt:MSVCR71.dll
 0002:000007b0       __imp__memset              0047e7b0     msvcrt:MSVCR71.dll
 0002:000007b4       \177MSVCR71_NULL_THUNK_DATA 0047e7b4     msvcrt:MSVCR71.dll
 0002:000007b8       __imp__SysAllocString@4    0047e7b8     oleaut32:OLEAUT32.dll
 0002:000007bc       __imp__VariantInit@4       0047e7bc     oleaut32:OLEAUT32.dll
 0002:000007c0       \177OLEAUT32_NULL_THUNK_DATA 0047e7c0     oleaut32:OLEAUT32.dll
 0002:000007c4       __imp__ShellExecuteA@24    0047e7c4     shell32:SHELL32.dll
 0002:000007c8       __imp__SHGetSpecialFolderPathA@16 0047e7c8     shell32:SHELL32.dll
 0002:000007cc       \177SHELL32_NULL_THUNK_DATA 0047e7cc     shell32:SHELL32.dll
 0002:000007d0       __imp__PathFileExistsA@4   0047e7d0     shlwapi:SHLWAPI.dll
 0002:000007d4       \177SHLWAPI_NULL_THUNK_DATA 0047e7d4     shlwapi:SHLWAPI.dll
 0002:000007d8       __imp__SendMessageA@16     0047e7d8     user32:USER32.dll
 0002:000007dc       __imp__SetCapture@4        0047e7dc     user32:USER32.dll
 0002:000007e0       __imp__FindWindowA@8       0047e7e0     user32:USER32.dll
 0002:000007e4       __imp__ReleaseCapture@0    0047e7e4     user32:USER32.dll
 0002:000007e8       __imp__GetWindowRect@8     0047e7e8     user32:USER32.dll
 0002:000007ec       __imp__EmptyClipboard@0    0047e7ec     user32:USER32.dll
 0002:000007f0       __imp__RegisterClipboardFormatA@4 0047e7f0     user32:USER32.dll
 0002:000007f4       __imp__OpenClipboard@4     0047e7f4     user32:USER32.dll
 0002:000007f8       __imp__SetClipboardData@8  0047e7f8     user32:USER32.dll
 0002:000007fc       __imp__CloseClipboard@0    0047e7fc     user32:USER32.dll
 0002:00000800       __imp__ShowCursor@4        0047e800     user32:USER32.dll
 0002:00000804       __imp__SetCursorPos@8      0047e804     user32:USER32.dll
 0002:00000808       __imp__GetDlgItem@8        0047e808     user32:USER32.dll
 0002:0000080c       __imp__RegisterClassA@4    0047e80c     user32:USER32.dll
 0002:00000810       __imp__CreateWindowExA@48  0047e810     user32:USER32.dll
 0002:00000814       __imp__SetCursor@4         0047e814     user32:USER32.dll
 0002:00000818       __imp__GetMessageA@16      0047e818     user32:USER32.dll
 0002:0000081c       __imp__PeekMessageA@20     0047e81c     user32:USER32.dll
 0002:00000820       __imp__LoadCursorA@8       0047e820     user32:USER32.dll
 0002:00000824       __imp__SetRect@20          0047e824     user32:USER32.dll
 0002:00000828       __imp__ScreenToClient@8    0047e828     user32:USER32.dll
 0002:0000082c       __imp__DefWindowProcA@16   0047e82c     user32:USER32.dll
 0002:00000830       __imp__DestroyMenu@4       0047e830     user32:USER32.dll
 0002:00000834       __imp__DestroyWindow@4     0047e834     user32:USER32.dll
 0002:00000838       __imp__PostQuitMessage@4   0047e838     user32:USER32.dll
 0002:0000083c       __imp__GetCursorPos@4      0047e83c     user32:USER32.dll
 0002:00000840       __imp__SetWindowLongA@12   0047e840     user32:USER32.dll
 0002:00000844       __imp__GetWindowLongA@8    0047e844     user32:USER32.dll
 0002:00000848       __imp__GetMenu@4           0047e848     user32:USER32.dll
 0002:0000084c       __imp__AdjustWindowRect@12 0047e84c     user32:USER32.dll
 0002:00000850       __imp__SetWindowPos@28     0047e850     user32:USER32.dll
 0002:00000854       __imp__GetClassLongA@8     0047e854     user32:USER32.dll
 0002:00000858       __imp__ClipCursor@4        0047e858     user32:USER32.dll
 0002:0000085c       __imp__MessageBoxW@16      0047e85c     user32:USER32.dll
 0002:00000860       __imp__GetIconInfo@8       0047e860     user32:USER32.dll
 0002:00000864       __imp__GetDC@4             0047e864     user32:USER32.dll
 0002:00000868       __imp__ReleaseDC@8         0047e868     user32:USER32.dll
 0002:0000086c       __imp__UnhookWindowsHookEx@4 0047e86c     user32:USER32.dll
 0002:00000870       __imp__SetWindowsHookExA@16 0047e870     user32:USER32.dll
 0002:00000874       __imp__CallNextHookEx@16   0047e874     user32:USER32.dll
 0002:00000878       __imp__SystemParametersInfoA@16 0047e878     user32:USER32.dll
 0002:0000087c       __imp__GetSystemMetrics@4  0047e87c     user32:USER32.dll
 0002:00000880       __imp__MessageBoxA@16      0047e880     user32:USER32.dll
 0002:00000884       __imp__wsprintfA           0047e884     user32:USER32.dll
 0002:00000888       __imp__PostThreadMessageA@16 0047e888     user32:USER32.dll
 0002:0000088c       __imp__GetParent@4         0047e88c     user32:USER32.dll
 0002:00000890       __imp__KillTimer@8         0047e890     user32:USER32.dll
 0002:00000894       __imp__PostMessageA@16     0047e894     user32:USER32.dll
 0002:00000898       __imp__RegisterWindowMessageA@4 0047e898     user32:USER32.dll
 0002:0000089c       __imp__ShowWindow@8        0047e89c     user32:USER32.dll
 0002:000008a0       __imp__LoadIconA@8         0047e8a0     user32:USER32.dll
 0002:000008a4       __imp__EnableWindow@8      0047e8a4     user32:USER32.dll
 0002:000008a8       __imp__SetTimer@16         0047e8a8     user32:USER32.dll
 0002:000008ac       __imp__GetClientRect@8     0047e8ac     user32:USER32.dll
 0002:000008b0       __imp__IsIconic@4          0047e8b0     user32:USER32.dll
 0002:000008b4       __imp__GetSystemMenu@8     0047e8b4     user32:USER32.dll
 0002:000008b8       __imp__AppendMenuA@16      0047e8b8     user32:USER32.dll
 0002:000008bc       __imp__DrawIcon@16         0047e8bc     user32:USER32.dll
 0002:000008c0       \177USER32_NULL_THUNK_DATA 0047e8c0     user32:USER32.dll
 0002:000008c4       __imp__timeGetTime@0       0047e8c4     Winmm:WINMM.dll
 0002:000008c8       __imp__mmioOpenA@12        0047e8c8     Winmm:WINMM.dll
 0002:000008cc       __imp__mmioClose@8         0047e8cc     Winmm:WINMM.dll
 0002:000008d0       __imp__mmioWrite@12        0047e8d0     Winmm:WINMM.dll
 0002:000008d4       __imp__mmioAdvance@12      0047e8d4     Winmm:WINMM.dll
 0002:000008d8       __imp__mmioSetInfo@12      0047e8d8     Winmm:WINMM.dll
 0002:000008dc       __imp__mmioSeek@12         0047e8dc     Winmm:WINMM.dll
 0002:000008e0       __imp__mmioCreateChunk@12  0047e8e0     Winmm:WINMM.dll
 0002:000008e4       __imp__mmioGetInfo@12      0047e8e4     Winmm:WINMM.dll
 0002:000008e8       __imp__mmioDescend@16      0047e8e8     Winmm:WINMM.dll
 0002:000008ec       __imp__mmioRead@12         0047e8ec     Winmm:WINMM.dll
 0002:000008f0       __imp__mmioAscend@12       0047e8f0     Winmm:WINMM.dll
 0002:000008f4       \177WINMM_NULL_THUNK_DATA  0047e8f4     Winmm:WINMM.dll
 0002:000008f8       __imp__WSAWaitForMultipleEvents@20 0047e8f8     ws2_32:WS2_32.dll
 0002:000008fc       __imp__WSACleanup@0        0047e8fc     ws2_32:WS2_32.dll
 0002:00000900       __imp__WSAStartup@8        0047e900     ws2_32:WS2_32.dll
 0002:00000904       __imp__htons@4             0047e904     ws2_32:WS2_32.dll
 0002:00000908       __imp__inet_addr@4         0047e908     ws2_32:WS2_32.dll
 0002:0000090c       __imp__socket@12           0047e90c     ws2_32:WS2_32.dll
 0002:00000910       __imp__ioctlsocket@12      0047e910     ws2_32:WS2_32.dll
 0002:00000914       __imp__connect@12          0047e914     ws2_32:WS2_32.dll
 0002:00000918       __imp__WSAGetLastError@0   0047e918     ws2_32:WS2_32.dll
 0002:0000091c       __imp__WSACreateEvent@0    0047e91c     ws2_32:WS2_32.dll
 0002:00000920       __imp__WSAEventSelect@12   0047e920     ws2_32:WS2_32.dll
 0002:00000924       __imp__WSACloseEvent@4     0047e924     ws2_32:WS2_32.dll
 0002:00000928       __imp__WSAEnumNetworkEvents@12 0047e928     ws2_32:WS2_32.dll
 0002:0000092c       __imp__recv@16             0047e92c     ws2_32:WS2_32.dll
 0002:00000930       __imp__closesocket@4       0047e930     ws2_32:WS2_32.dll
 0002:00000934       __imp__send@16             0047e934     ws2_32:WS2_32.dll
 0002:00000938       \177WS2_32_NULL_THUNK_DATA 0047e938     ws2_32:WS2_32.dll
 0002:0000093c       __imp__Direct3DCreate9@4   0047e93c     d3d9:d3d9.dll
 0002:00000940       \177d3d9_NULL_THUNK_DATA   0047e940     d3d9:d3d9.dll
 0002:00000944       __imp__D3DXCreateCubeTextureFromFileInMemoryEx@56 0047e944     d3dx9:d3dx9_26.dll
 0002:00000948       __imp__D3DXCreateCubeTextureFromFileExA@52 0047e948     d3dx9:d3dx9_26.dll
 0002:0000094c       __imp__D3DXCreateTextureFromFileInMemoryEx@60 0047e94c     d3dx9:d3dx9_26.dll
 0002:00000950       __imp__D3DXVec3Normalize@8 0047e950     d3dx9:d3dx9_26.dll
 0002:00000954       __imp__D3DXCreateTextureFromFileExA@56 0047e954     d3dx9:d3dx9_26.dll
 0002:00000958       __imp__D3DXMatrixLookAtLH@16 0047e958     d3dx9:d3dx9_26.dll
 0002:0000095c       __imp__D3DXVec3Project@24  0047e95c     d3dx9:d3dx9_26.dll
 0002:00000960       __imp__D3DXMatrixMultiply@12 0047e960     d3dx9:d3dx9_26.dll
 0002:00000964       __imp__D3DXGetFVFVertexSize@4 0047e964     d3dx9:d3dx9_26.dll
 0002:00000968       __imp__D3DXMatrixScaling@16 0047e968     d3dx9:d3dx9_26.dll
 0002:0000096c       __imp__D3DXMatrixTranslation@16 0047e96c     d3dx9:d3dx9_26.dll
 0002:00000970       \177d3dx9_26_NULL_THUNK_DATA 0047e970     d3dx9:d3dx9_26.dll
 0002:0000099c       ?messageMap@CAutoPatchManApp@@1UAFX_MSGMAP@@B 0047e99c     AutoPatchMan.obj
 0002:000009a4       ?_messageEntries@CAutoPatchManApp@@0QBUAFX_MSGMAP_ENTRY@@B 0047e9a4     AutoPatchMan.obj
 0002:000009d8       ??_7CAutoPatchManApp@@6B@  0047e9d8     AutoPatchMan.obj
 0002:00000a98       ??_C@_08MCKKOKAP@Launcher?$AA@ 0047ea98     AutoPatchMan.obj
 0002:00000aa4       ??_7CCustomOccManager@@6B@ 0047eaa4     AutoPatchMan.obj
 0002:00000acc       ??_C@_0M@DKMIDAIN@IDS_MESSAGE?$AA@ 0047eacc     AutoPatchManButtonMsg.obj
 0002:00000ad8       ??_C@_05MBDEGLCK@ERROR?$AA@ 0047ead8     AutoPatchManButtonMsg.obj
 0002:00000ae0       ??_C@_0BF@GKEAGIKC@?$CFs?5Error?5Number?5?3?5?$CFd?$AA@ 0047eae0     AutoPatchManButtonMsg.obj
 0002:00000af8       ??_C@_04PMOCAHAA@open?$AA@ 0047eaf8     AutoPatchManButtonMsg.obj
 0002:00000b00       ??_C@_06LFELMJIL@?$CC?$CFs?$CFs?$CC?$AA@ 0047eb00     AutoPatchManButtonMsg.obj
 0002:00000b08       ??_C@_04EAGIINDL@TID?3?$AA@ 0047eb08     AutoPatchManButtonMsg.obj
 0002:00000b10       ??_C@_03LGMJKEGG@run?$AA@  0047eb10     AutoPatchManButtonMsg.obj
 0002:00000b14       ??_C@_01IDAFKMJL@_?$AA@    0047eb14     AutoPatchManButtonMsg.obj
 0002:00000b18       ??_C@_03CGOPKBCD@app?$AA@  0047eb18     AutoPatchManButtonMsg.obj
 0002:00000b1c       ??_C@_01CLKCMJKC@?5?$AA@   0047eb1c     AutoPatchManButtonMsg.obj
 0002:00000b20       ??_C@_01KMDKNFGN@?1?$AA@   0047eb20     AutoPatchManButtonMsg.obj
 0002:00000b24       ??_C@_0O@CFCCAJBO@Shell_TrayWnd?$AA@ 0047eb24     AutoPatchManButtonMsg.obj
 0002:00000b34       ?messageMap@CAutoPatchManDlg@@1UAFX_MSGMAP@@B 0047eb34     AutoPatchManDlg.obj
 0002:00000b40       ?_messageEntries@CAutoPatchManDlg@@0QBUAFX_MSGMAP_ENTRY@@B 0047eb40     AutoPatchManDlg.obj
 0002:00000ca8       ?messageMap@CAboutDlg@@1UAFX_MSGMAP@@B 0047eca8     AutoPatchManDlg.obj
 0002:00000cb0       ?nLOGIN_CONNECT_TIME_ELAPSE@CAutoPatchManDlg@@0IB 0047ecb0     AutoPatchManDlg.obj
 0002:00000cb4       ?nCHECK_VERSION_TIME_ELAPSE@CAutoPatchManDlg@@0IB 0047ecb4     AutoPatchManDlg.obj
 0002:00000cb8       ?nFTP_CONNECT_TIME_ELAPSE@CAutoPatchManDlg@@0IB 0047ecb8     AutoPatchManDlg.obj
 0002:00000cbc       ?nFORCE_TERMINATE_TIME_ELAPSE@CAutoPatchManDlg@@0IB 0047ecbc     AutoPatchManDlg.obj
 0002:00000cc0       ?n500_MILISEC@CAutoPatchManDlg@@0IB 0047ecc0     AutoPatchManDlg.obj
 0002:00000cc4       ?n1000_MILISEC@CAutoPatchManDlg@@0IB 0047ecc4     AutoPatchManDlg.obj
 0002:00000cc8       ?nWEB_BROWSER_START@CAutoPatchManDlg@@0IB 0047ecc8     AutoPatchManDlg.obj
 0002:00000cd0       ??_7CAboutDlg@@6B@         0047ecd0     AutoPatchManDlg.obj
 0002:00000e30       ??_C@_0BA@JAKHBKFF@ABOUT_BOX_ID_OK?$AA@ 0047ee30     AutoPatchManDlg.obj
 0002:00000e40       ??_C@_0P@LKODHJKP@IDC_VER_STATIC?$AA@ 0047ee40     AutoPatchManDlg.obj
 0002:00000e50       ??_C@_0O@HBBFBOHL@IDD_ABOUT_BOX?$AA@ 0047ee50     AutoPatchManDlg.obj
 0002:00000e60       ??_7CExplorer1@@6B@        0047ee60     AutoPatchManDlg.obj
 0002:00000f98       ?clsid@?1??GetClsid@CExplorer1@@QAEABU_GUID@@XZ@4U3@B 0047ef98     AutoPatchManDlg.obj
 0002:00000fa8       __real@4f800000            0047efa8     AutoPatchManDlg.obj
 0002:00000fb0       ??_7CButton@@6B@           0047efb0     AutoPatchManDlg.obj
 0002:000010f0       ??_7CListBox@@6B@          0047f0f0     AutoPatchManDlg.obj
 0002:00001248       ??_7CProgressCtrl@@6B@     0047f248     AutoPatchManDlg.obj
 0002:00001388       ??_7CAutoPatchManDlg@@6B@  0047f388     AutoPatchManDlg.obj
 0002:000014e8       ??_C@_0BK@KDDLKEEO@CreateProcess?5Patch?5Prime?$AA@ 0047f4e8     AutoPatchManDlg.obj
 0002:00001504       ??_C@_09KBCHIAGA@?5?$CFd?5?$CFd?5?$CFs?$AA@ 0047f504     AutoPatchManDlg.obj
 0002:00001510       ??_7XDocHostUIHandler@CCustomControlSite@@6B@ 0047f510     AutoPatchManDlg.obj
 0002:00001558       ??_7CCustomControlSite@@6B@ 0047f558     AutoPatchManDlg.obj
 0002:00001624       ??_C@_0N@OJMOGCEN@IDS_ABOUTBOX?$AA@ 0047f624     AutoPatchManDlg.obj
 0002:00001634       ??_C@_05BMGBEOOC@?$CFs?2?$CFs?$AA@ 0047f634     AutoPatchManDlg.obj
 0002:0000163c       ??_C@_0BD@EJPIOCLO@log?4?$CFY?$CFm?$CFd?$CFH?$CFM?4txt?$AA@ 0047f63c     AutoPatchManDlg.obj
 0002:00001650       ??_C@_0M@IMLLLNOG@LauncherMsg?$AA@ 0047f650     AutoPatchManDlg.obj
 0002:0000165c       ??_C@_04LLEBNMDN@?$CFs?$AN?6?$AA@ 0047f65c     AutoPatchManDlgCtrl.obj
 0002:00001664       ??_C@_02BKFDOEMK@wt?$AA@   0047f664     AutoPatchManDlgCtrl.obj
 0002:00001668       ??_C@_05DNIIFBMG@?$CFs?5?$CFs?$AA@ 0047f668     AutoPatchManDlgCtrl.obj
 0002:00001670       ??_C@_07FGAOOBMN@http?3?1?1?$AA@ 0047f670     AutoPatchManDlgCtrl.obj
 0002:00001678       ??_C@_05GDDOFCIF@?1?$CF04d?$AA@ 0047f678     AutoPatchManDlgCtrl.obj
 0002:00001680       ??_C@_0BA@NPHDLGJD@IDC_BUTTON_EXIT?$AA@ 0047f680     AutoPatchManDlgEx.obj
 0002:00001690       ??_C@_0BC@BPHCLJDH@IDC_BUTTON_OPTION?$AA@ 0047f690     AutoPatchManDlgEx.obj
 0002:000016a4       ??_C@_0BD@EJNMMNJN@IDC_CHECK_USE_HTTP?$AA@ 0047f6a4     AutoPatchManDlgEx.obj
 0002:000016b8       ??_C@_0BB@NEIICICJ@IDC_BUTTON_PATCH?$AA@ 0047f6b8     AutoPatchManDlgEx.obj
 0002:000016cc       ??_C@_0BB@HDCHFJFD@IDC_READYTOSTART?$AA@ 0047f6cc     AutoPatchManDlgEx.obj
 0002:000016e0       ??_C@_0BB@CCPNMFLF@IDC_BUTTON_RETRY?$AA@ 0047f6e0     AutoPatchManDlgEx.obj
 0002:000016f4       ??_C@_0BB@GGEIHBMC@IDC_BUTTON_START?$AA@ 0047f6f4     AutoPatchManDlgEx.obj
 0002:00001708       ??_C@_0BB@GKGMPPBL@IDC_TITLE_STATIC?$AA@ 0047f708     AutoPatchManDlgEx.obj
 0002:0000171c       ??_C@_0BB@MGPJNIMJ@SetAppPath?5Error?$AA@ 0047f71c     AutoPatchManDlgEx.obj
 0002:00001730       ??_C@_05NAOIJFC@Error?$AA@ 0047f730     AutoPatchManDlgEx.obj
 0002:00001738       ??_C@_02JDPG@rb?$AA@       0047f738     AutoPatchManDlgEx.obj
 0002:0000173c       ??_C@_04HDOCAJNK@?$CFs?$CFs?$AA@ 0047f73c     AutoPatchManDlgEx.obj
 0002:00001744       ??_C@_06DIJPEION@?$CFs?$CFs?$CFs?$AA@ 0047f744     AutoPatchManPatchFunc.obj
 0002:0000174c       ??_C@_01KICIPPFI@?2?$AA@   0047f74c     AutoPatchManPatchFunc.obj
 0002:0000174e       ??_C@_00CNPNBAHC@?$AA@     0047f74e     AutoPatchManPatchFunc.obj
 0002:00001750       ??_C@_0BC@MEGIILEI@?$CFs?5?$CFd?5sec?5?$FL?$CFd?1?$CFd?$FN?$AA@ 0047f750     AutoPatchManTimerMsg.obj
 0002:00001764       ?classCExplorer1@CExplorer1@@2UCRuntimeClass@@B 0047f764     explorer1.obj
 0002:00001780       ??_C@_0L@OPBMJJEI@CExplorer1?$AA@ 0047f780     explorer1.obj
 0002:0000178c       ?interfaceMap@CCustomControlSite@@1UAFX_INTERFACEMAP@@B 0047f78c     Custsite.obj
 0002:00001794       ?_interfaceEntries@CCustomControlSite@@0QBUAFX_INTERFACEMAP_ENTRY@@B 0047f794     Custsite.obj
 0002:000017b8       ??_7CImpIDispatch@@6B@     0047f7b8     Idispimp.obj
 0002:000017d4       ??_C@_1O@ONGLAKGH@?$AAW?$AAi?$AAb?$AAb?$AAl?$AAe?$AA?$AA@ 0047f7d4     Idispimp.obj
 0002:000017e4       ??_C@_0P@KCKEJPBD@DOWNAREA_ID_OK?$AA@ 0047f7e4     DlgDownloadArea.obj
 0002:000017f4       ??_C@_0BA@FENDNAA@IDC_AREA_STATIC?$AA@ 0047f7f4     DlgDownloadArea.obj
 0002:00001804       ??_C@_0BJ@OMPFOCGO@IDD_DIALOG_DOWNLOAD_AREA?$AA@ 0047f804     DlgDownloadArea.obj
 0002:00001820       ??_C@_0O@KENMBJIO@WARNING_ID_OK?$AA@ 0047f820     DlgWarningWhql.obj
 0002:00001830       ??_C@_0BC@HNIOJBOM@IDC_CHECK_NOCHECK?$AA@ 0047f830     DlgWarningWhql.obj
 0002:00001844       ??_C@_0BE@DJEGMHOC@IDC_STATIC_ATI_LINK?$AA@ 0047f844     DlgWarningWhql.obj
 0002:00001858       ??_C@_0P@NLNHJOJN@IDC_ATI_STATIC?$AA@ 0047f858     DlgWarningWhql.obj
 0002:00001868       ??_C@_0BH@DLDPDHFJ@IDC_STATIC_NVIDIA_LINK?$AA@ 0047f868     DlgWarningWhql.obj
 0002:00001880       ??_C@_0BC@OGBEPCHI@IDC_NVIDIA_STATIC?$AA@ 0047f880     DlgWarningWhql.obj
 0002:00001894       ??_C@_0BB@MNPNCPMP@IDC_VIDEO_STATIC?$AA@ 0047f894     DlgWarningWhql.obj
 0002:000018a8       ??_C@_0BI@BEGAAPGH@IDD_DIALOG_WARNING_WHQL?$AA@ 0047f8a8     DlgWarningWhql.obj
 0002:000018c0       ?messageMap@CGameSetDlg@@1UAFX_MSGMAP@@B 0047f8c0     GameSetDlg.obj
 0002:000018c8       ?_messageEntries@CGameSetDlg@@0QBUAFX_MSGMAP_ENTRY@@B 0047f8c8     GameSetDlg.obj
 0002:00001a30       ?classCGameSetDlg@CGameSetDlg@@2UCRuntimeClass@@B 0047fa30     GameSetDlg.obj
 0002:00001a4c       ??_C@_0M@OPHNMBM@CGameSetDlg?$AA@ 0047fa4c     GameSetDlg.obj
 0002:00001a58       ??_C@_0O@EADHNBJI@IDS_WHQL_UCVD?$AA@ 0047fa58     GameSetDlg.obj
 0002:00001a68       ??_C@_0N@IOAAGCGI@IDS_WHQL_CVD?$AA@ 0047fa68     GameSetDlg.obj
 0002:00001a78       ??_C@_07MMBOBMNN@Nothing?$AA@ 0047fa78     GameSetDlg.obj
 0002:00001a80       ??_C@_03GOOLIKIF@?$CF3d?$AA@ 0047fa80     GameSetDlg.obj
 0002:00001a88       ??_7CGameSetDlg@@6B@       0047fa88     GameSetDlg.obj
 0002:00001be8       ??_C@_0BB@KKJNGGPO@IDC_SOUND_OPTION?$AA@ 0047fbe8     GameSetDlgEx.obj
 0002:00001bfc       ??_C@_0BD@GBEKMJJN@IDC_GRAPHIC_OPTION?$AA@ 0047fbfc     GameSetDlgEx.obj
 0002:00001c10       ??_C@_0BC@HANDGGME@GAMESET_ID_CANCEL?$AA@ 0047fc10     GameSetDlgEx.obj
 0002:00001c24       ??_C@_0O@NPCOGJBP@GAMESET_ID_OK?$AA@ 0047fc24     GameSetDlgEx.obj
 0002:00001c34       ??_C@_0BE@JCKIALCB@IDC_DOWNAREA_STATIC?$AA@ 0047fc34     GameSetDlgEx.obj
 0002:00001c48       ??_C@_0BC@JONOJOAN@IDC_CHECK_PASSIVE?$AA@ 0047fc48     GameSetDlgEx.obj
 0002:00001c5c       ??_C@_0BE@CKBJGGDG@IDC_DOWNLOAD_STATIC?$AA@ 0047fc5c     GameSetDlgEx.obj
 0002:00001c70       ??_C@_0BF@DGHKHIIA@IDC_CHECK_WINDOWMODE?$AA@ 0047fc70     GameSetDlgEx.obj
 0002:00001c88       ??_C@_0BD@JHLJGNIO@IDC_DISPLAY_STATIC?$AA@ 0047fc88     GameSetDlgEx.obj
 0002:00001c9c       ??_C@_0P@GNDFPNHJ@IDD_GAMESETDLG?$AA@ 0047fc9c     GameSetDlgEx.obj
 0002:00001cac       ??_C@_0P@HJOBENIJ@?$CF4d?5?$CK?5?$CF4d?5?$CK?5?$CFd?$AA@ 0047fcac     GameSetDlgEx.obj
 0002:00001cbc       ??_C@_03CCKOKKND@rb?$CL?$AA@ 0047fcbc     CheckSystem.obj
 0002:00001cc0       ??_C@_0P@EHEGBKGP@Launcher?5Patch?$AA@ 0047fcc0     GlobalVariable.obj
 0002:00001cd0       ??_C@_0BG@GLKPLIHG@launcherpatch?4exe?4cab?$AA@ 0047fcd0     GlobalVariable.obj
 0002:00001ce8       ??_C@_0O@PCPMCJGH@cFileList?4bin?$AA@ 0047fce8     GlobalVariable.obj
 0002:00001cf8       ??_C@_0N@NMIPLMNA@FileList?4bin?$AA@ 0047fcf8     GlobalVariable.obj
 0002:00001d08       ??_C@_08DNHNKGCI@Game?4exe?$AA@ 0047fd08     GlobalVariable.obj
 0002:00001d14       ??_C@_0N@LMAJKEJA@Ran?5Launcher?$AA@ 0047fd14     GlobalVariable.obj
 0002:00001d24       ??_C@_05DEDLJFG@Temp?2?$AA@ 0047fd24     GlobalVariable.obj
 0002:00001d2c       ??_C@_0BB@NAPLMCD@filelist?4bin?4cab?$AA@ 0047fd2c     GlobalVariable.obj
 0002:00001d40       ??_C@_0O@IKKIBLE@cDownList?4bin?$AA@ 0047fd40     GlobalVariable.obj
 0002:00001d50       ??_C@_0O@JJJAAIPO@cCopyList?4bin?$AA@ 0047fd50     GlobalVariable.obj
 0002:00001d60       ?classCAutoPatchThread@CAutoPatchThread@@2UCRuntimeClass@@B 0047fd60     AutoPatchThread.obj
 0002:00001d7c       ??_C@_0BB@JHHBMLIL@CAutoPatchThread?$AA@ 0047fd7c     AutoPatchThread.obj
 0002:00001d90       ??_7logic_error@std@@6B@   0047fd90     AutoPatchThread.obj
 0002:00001d98       ??_7length_error@std@@6B@  0047fd98     AutoPatchThread.obj
 0002:00001da0       ??_7out_of_range@std@@6B@  0047fda0     AutoPatchThread.obj
 0002:00001da8       ??_C@_0BD@OLBABOEK@vector?$DMT?$DO?5too?5long?$AA@ 0047fda8     AutoPatchThread.obj
 0002:00001dbc       ??_C@_0BE@JONHPENG@map?1set?$DMT?$DO?5too?5long?$AA@ 0047fdbc     AutoPatchThread.obj
 0002:00001dd0       ??_C@_0BM@PAPJHAGI@invalid?5map?1set?$DMT?$DO?5iterator?$AA@ 0047fdd0     AutoPatchThread.obj
 0002:00001dec       ??_C@_0CH@CJCBKLGE@?$FLERROR?$FNSaveDownList?5File?5Write?5F@ 0047fdec     AutoPatchThread.obj
 0002:00001e14       ??_C@_0CM@EEDBNPAP@?$FLERROR?$FNSaveDownList?5File?5Size?5Wr@ 0047fe14     AutoPatchThread.obj
 0002:00001e40       ??_C@_0DE@MJFGHDKD@?$FLERROR?$FNSaveDownList?5File?5Game?5Ve@ 0047fe40     AutoPatchThread.obj
 0002:00001e74       ??_C@_02GMLFBBN@wb?$AA@    0047fe74     AutoPatchThread.obj
 0002:00001e78       ??_C@_0CH@GDKMPINH@?$FLERROR?$FNSaveCopyList?5File?5Write?5F@ 0047fe78     AutoPatchThread.obj
 0002:00001ea0       ??_C@_0CM@CJJFCCNL@?$FLERROR?$FNSaveCopyList?5File?5Size?5Wr@ 0047fea0     AutoPatchThread.obj
 0002:00001ecc       ??_C@_0DE@KNIHLAFI@?$FLERROR?$FNSaveCopyList?5File?5Game?5Ve@ 0047fecc     AutoPatchThread.obj
 0002:00001f00       ??_C@_08KJEDNCKC@?$CFs?$CFs?$CFs?$CFs?$AA@ 0047ff00     AutoPatchThread.obj
 0002:00001f10       ??_7CHttpThread@@6B@       0047ff10     AutoPatchThread.obj
 0002:00001f98       ??_C@_0CG@GEPMDMFH@?$FLERROR?$FNLoadDownList?5File?5Read?5Fa@ 0047ff98     AutoPatchThread.obj
 0002:00001fc0       ??_C@_0CL@PLLNNFMG@?$FLERROR?$FNLoadDownList?5File?5Size?5Re@ 0047ffc0     AutoPatchThread.obj
 0002:00001fec       ??_C@_0DD@BGJGJPHN@?$FLERROR?$FNLoadDownList?5File?5Game?5Ve@ 0047ffec     AutoPatchThread.obj
 0002:00002020       ??_C@_0CG@DGAKMODD@?$FLERROR?$FNLoadCopyList?5File?5Read?5Fa@ 00480020     AutoPatchThread.obj
 0002:00002048       ??_C@_0CL@ICKEOKND@?$FLERROR?$FNLoadCopyList?5File?5Size?5Re@ 00480048     AutoPatchThread.obj
 0002:00002074       ??_C@_0DD@KMPNKEGE@?$FLERROR?$FNLoadCopyList?5File?5Game?5Ve@ 00480074     AutoPatchThread.obj
 0002:000020a8       ??_C@_04HLONOPDM@?4dll?$AA@ 004800a8     AutoPatchThread.obj
 0002:000020b0       ??_C@_02DKCKIIND@?$CFs?$AA@ 004800b0     AutoPatchThread.obj
 0002:000020b8       ??_7CAutoPatchThread@@6B@  004800b8     AutoPatchThread.obj
 0002:00002140       ?messageMap@CHashCheckThread@@1UAFX_MSGMAP@@B 00480140     HashCheckThread.obj
 0002:00002140       ?messageMap@CAutoPatchThread@@1UAFX_MSGMAP@@B 00480140     AutoPatchThread.obj
 0002:00002148       ?classCHashCheckThread@CHashCheckThread@@2UCRuntimeClass@@B 00480148     HashCheckThread.obj
 0002:00002164       ??_C@_0BB@NKICHPFN@CHashCheckThread?$AA@ 00480164     HashCheckThread.obj
 0002:00002178       ??_7CHashCheckThread@@6B@  00480178     HashCheckThread.obj
 0002:00002200       ??_C@_0BP@CAKLDEGD@?$FLERROR?$FN?3Filelist?5is?5different?$CB?$AA@ 00480200     HashCheckThread.obj
 0002:00002220       ??_C@_0BE@FPBNCDBD@?2data?2glogic?2quest?2?$AA@ 00480220     HashCheckThread.obj
 0002:00002234       ??_C@_0BG@IMGDDPHB@?2data?2glogic?2npctalk?2?$AA@ 00480234     HashCheckThread.obj
 0002:0000224c       ??_C@_0O@OEIGPGDD@?2data?2glogic?2?$AA@ 0048024c     HashCheckThread.obj
 0002:0000225c       ??_C@_0P@CPBIDFKE@option?4ini?4cab?$AA@ 0048025c     HashCheckThread.obj
 0002:0000226c       ??_C@_0O@FCCFAFME@param?4ini?4cab?$AA@ 0048026c     HashCheckThread.obj
 0002:0000227c       ?messageMap@CHttpThread@@1UAFX_MSGMAP@@B 0048027c     HttpThread.obj
 0002:0000227c       ?messageMap@CWebBrowserThread@@1UAFX_MSGMAP@@B 0048027c     WebBrowserThread.obj
 0002:0000227c       ?messageMap@CServerLoginThread@@1UAFX_MSGMAP@@B 0048027c     ServerLoginThread.obj
 0002:00002284       ?classCHttpThread@CHttpThread@@2UCRuntimeClass@@B 00480284     HttpThread.obj
 0002:000022a0       ??_C@_0M@KFLCHJCI@CHttpThread?$AA@ 004802a0     HttpThread.obj
 0002:000022ac       ?messageMap@CLPatchThread@@1UAFX_MSGMAP@@B 004802ac     LPatchThread.obj
 0002:000022b4       ?classCLPatchThread@CLPatchThread@@2UCRuntimeClass@@B 004802b4     LPatchThread.obj
 0002:000022d0       ??_C@_0O@PEJLLHIC@CLPatchThread?$AA@ 004802d0     LPatchThread.obj
 0002:000022e0       ??_7CLPatchThread@@6B@     004802e0     LPatchThread.obj
 0002:00002368       ?classCServerLoginThread@CServerLoginThread@@2UCRuntimeClass@@B 00480368     ServerLoginThread.obj
 0002:00002384       ??_C@_0BD@JIHAFPGP@CServerLoginThread?$AA@ 00480384     ServerLoginThread.obj
 0002:00002398       ??_7CServerLoginThread@@6B@ 00480398     ServerLoginThread.obj
 0002:00002420       ?_messageEntries@CHashCheckThread@@0QBUAFX_MSGMAP_ENTRY@@B 00480420     HashCheckThread.obj
 0002:00002420       ?_messageEntries@CLPatchThread@@0QBUAFX_MSGMAP_ENTRY@@B 00480420     LPatchThread.obj
 0002:00002420       ?_messageEntries@CServerLoginThread@@0QBUAFX_MSGMAP_ENTRY@@B 00480420     ServerLoginThread.obj
 0002:00002420       ?_messageEntries@CAboutDlg@@0QBUAFX_MSGMAP_ENTRY@@B 00480420     AutoPatchManDlg.obj
 0002:00002420       ?_messageEntries@CWebBrowserThread@@0QBUAFX_MSGMAP_ENTRY@@B 00480420     WebBrowserThread.obj
 0002:00002420       ?_messageEntries@CHttpThread@@0QBUAFX_MSGMAP_ENTRY@@B 00480420     HttpThread.obj
 0002:00002420       ?_messageEntries@CAutoPatchThread@@0QBUAFX_MSGMAP_ENTRY@@B 00480420     AutoPatchThread.obj
 0002:00002438       ?classCWebBrowserThread@CWebBrowserThread@@2UCRuntimeClass@@B 00480438     WebBrowserThread.obj
 0002:00002454       ??_C@_0BC@ONMGGACP@CWebBrowserThread?$AA@ 00480454     WebBrowserThread.obj
 0002:00002468       ??_7CWebBrowserThread@@6B@ 00480468     WebBrowserThread.obj
 0002:000024f0       ??_7CLauncherTextMan@@6B@  004804f0     LauncherText.obj
 0002:000024f4       ??_C@_08CDJDHLJC@cVer?4bin?$AA@ 004804f4     NetClientLib:s_NetClient.obj
 0002:00002500       ??_C@_0FP@BKKHNPHN@WSAEnumNetworkEvents?5?9?5Contact?5E@ 00480500     NetClientLib:s_NetClient.obj
 0002:00002560       ??_C@_0CH@NIEHMHMI@WSAWaitForMultipleEvents?5Error?5C@ 00480560     NetClientLib:s_NetClient.obj
 0002:00002588       ??_C@_0DF@OFEFKFKI@WSAWaitForMultipleEvents?5Error?5C@ 00480588     NetClientLib:s_NetClient.obj
 0002:000025c0       ??_C@_0BM@DACMMLBI@WSAWaitForMultipleEvents?5?$CFs?$AA@ 004805c0     NetClientLib:s_NetClient.obj
 0002:000025dc       ??_C@_0BG@HNMEGFKD@connect?5error?3Code?5?$CFd?$AA@ 004805dc     NetClientLib:s_NetClient.obj
 0002:000025f4       ??_C@_0BN@BKNLPLGL@WSAEventSelect?5Error?5Code?5?$CFd?$AA@ 004805f4     NetClientLib:s_NetClient.obj
 0002:00002614       ??_C@_0BN@OELMFGDM@WSACreateEvent?5Error?5Code?5?$CFd?$AA@ 00480614     NetClientLib:s_NetClient.obj
 0002:00002634       ??_C@_0P@IPCOILOA@ioctlsocket?5?$CFs?$AA@ 00480634     NetClientLib:s_NetClient.obj
 0002:00002644       ??_C@_0BF@ILHAKMGC@socket?5Error?5Code?5?$CFd?$AA@ 00480644     NetClientLib:s_NetClient.obj
 0002:0000265c       ??_C@_0BD@MAANJBIL@AfxParserURL?5ERROR?$AA@ 0048065c     NetClientLib:s_CHttpPatch.obj
 0002:00002670       ??_C@_0BD@JIIOMGFI@Ran?5Patch?5GetFile2?$AA@ 00480670     NetClientLib:s_CHttpPatch.obj
 0002:00002684       ??_C@_02CBLDBPFN@?1?1?$AA@ 00480684     NetClientLib:s_CHttpPatch.obj
 0002:00002688       ??_C@_0BB@HILGIEHG@?$CFd?5Unknown?5Error?$AA@ 00480688     NetClientLib:s_CHttpPatch.obj
 0002:0000269c       ??_C@_0DK@DHGAIPLH@?$CFd?5HTTP_STATUS_VERSION_NOT_SUP?5H@ 0048069c     NetClientLib:s_CHttpPatch.obj
 0002:000026d8       ??_C@_0DN@NMLHDGDE@?$CFd?5HTTP_STATUS_GATEWAY_TIMEOUT?5t@ 004806d8     NetClientLib:s_CHttpPatch.obj
 0002:00002718       ??_C@_0DG@HCGGKMCN@?$CFd?5HTTP_STATUS_SERVICE_UNAVAIL?5t@ 00480718     NetClientLib:s_CHttpPatch.obj
 0002:00002750       ??_C@_0EA@IHBKBEJG@?$CFd?5HTTP_STATUS_BAD_GATEWAY?5error@ 00480750     NetClientLib:s_CHttpPatch.obj
 0002:00002790       ??_C@_0DE@CEMDPEAA@?$CFd?5HTTP_STATUS_NOT_SUPPORTED?5req@ 00480790     NetClientLib:s_CHttpPatch.obj
 0002:000027c4       ??_C@_0DC@BIEMCLNF@?$CFd?5HTTP_STATUS_SERVER_ERROR?5inte@ 004807c4     NetClientLib:s_CHttpPatch.obj
 0002:000027f8       ??_C@_0EE@LKIBCIMO@?$CFd?5HTTP_STATUS_RETRY_WITH?5retry?5@ 004807f8     NetClientLib:s_CHttpPatch.obj
 0002:0000283c       ??_C@_0DI@CHCFPAEI@?$CFd?5HTTP_STATUS_UNSUPPORTED_MEDIA@ 0048083c     NetClientLib:s_CHttpPatch.obj
 0002:00002874       ??_C@_0DB@FPIEGIKD@?$CFd?5HTTP_STATUS_URI_TOO_LONG?5requ@ 00480874     NetClientLib:s_CHttpPatch.obj
 0002:000028a8       ??_C@_0DO@HMGNMNFI@?$CFd?5HTTP_STATUS_REQUEST_TOO_LARGE@ 004808a8     NetClientLib:s_CHttpPatch.obj
 0002:000028e8       ??_C@_0ED@HEOJMIDO@?$CFd?5HTTP_STATUS_PRECOND_FAILED?5pr@ 004808e8     NetClientLib:s_CHttpPatch.obj
 0002:00002930       ??_C@_0FB@EHGIKFFH@?$CFd?5HTTP_STATUS_LENGTH_REQUIRED?5t@ 00480930     NetClientLib:s_CHttpPatch.obj
 0002:00002984       ??_C@_0DI@BNNNGIME@?$CFd?5HTTP_STATUS_GONE?5the?5resource@ 00480984     NetClientLib:s_CHttpPatch.obj
 0002:000029bc       ??_C@_0DM@DLFBIAFN@?$CFd?5HTTP_STATUS_CONFLICT?5user?5sho@ 004809bc     NetClientLib:s_CHttpPatch.obj
 0002:000029f8       ??_C@_0EE@BEBHKJPC@?$CFd?5HTTP_STATUS_REQUEST_TIMEOUT?5s@ 004809f8     NetClientLib:s_CHttpPatch.obj
 0002:00002a3c       ??_C@_0DM@OBANNKJF@?$CFd?5HTTP_STATUS_PROXY_AUTH_REQ?5pr@ 00480a3c     NetClientLib:s_CHttpPatch.obj
 0002:00002a78       ??_C@_0EG@PMEGONCG@?$CFd?5HTTP_STATUS_NONE_ACCEPTABLE?5n@ 00480a78     NetClientLib:s_CHttpPatch.obj
 0002:00002ac0       ??_C@_0DA@ICLDEMNI@?$CFd?5HTTP_STATUS_BAD_METHOD?5method@ 00480ac0     NetClientLib:s_CHttpPatch.obj
 0002:00002af0       ??_C@_0CK@IOPMPOIH@?$CFd?5HTTP_STATUS_NOT_FOUND?5object?5@ 00480af0     NetClientLib:s_CHttpPatch.obj
 0002:00002b1c       ??_C@_0CL@FNIEAIML@?$CFd?5HTTP_STATUS_FORBIDDEN?5request@ 00480b1c     NetClientLib:s_CHttpPatch.obj
 0002:00002b48       ??_C@_0CM@DBHNGBGA@?$CFd?5HTTP_STATUS_PAYMENT_REQ?5payme@ 00480b48     NetClientLib:s_CHttpPatch.obj
 0002:00002b74       ??_C@_0CE@MMFIAOJO@?$CFd?5HTTP_STATUS_DENIED?5access?5den@ 00480b74     NetClientLib:s_CHttpPatch.obj
 0002:00002b98       ??_C@_0CK@BOCOPHDE@?$CFd?5HTTP_STATUS_BAD_REQUEST?5inval@ 00480b98     NetClientLib:s_CHttpPatch.obj
 0002:00002bc4       ??_C@_0DL@DCGPIDEG@?$CFd?5HTTP_STATUS_REDIRECT_KEEP_VER@ 00480bc4     NetClientLib:s_CHttpPatch.obj
 0002:00002c00       ??_C@_0FG@CFDOLNJO@?$CFd?5HTTP_STATUS_USE_PROXY?5redirec@ 00480c00     NetClientLib:s_CHttpPatch.obj
 0002:00002c58       ??_C@_0DP@BFOKPBFE@?$CFd?5HTTP_STATUS_NOT_MODIFIED?5if?9m@ 00480c58     NetClientLib:s_CHttpPatch.obj
 0002:00002c98       ??_C@_0EA@OIHCELOE@?$CFd?5HTTP_STATUS_REDIRECT_METHOD?5r@ 00480c98     NetClientLib:s_CHttpPatch.obj
 0002:00002cd8       ??_C@_0DB@FJDCNDJO@?$CFd?5HTTP_STATUS_REDIRECT?5object?5t@ 00480cd8     NetClientLib:s_CHttpPatch.obj
 0002:00002d0c       ??_C@_0CO@EOMGABHA@?$CFd?5HTTP_STATUS_MOVED?5object?5perm@ 00480d0c     NetClientLib:s_CHttpPatch.obj
 0002:00002d3c       ??_C@_0DP@NAMPEGIG@?$CFd?5HTTP_STATUS_AMBIGUOUS?5server?5@ 00480d3c     NetClientLib:s_CHttpPatch.obj
 0002:00002d7c       ??_C@_0DF@DNEKIOM@?$CFd?5HTTP_STATUS_PARTIAL_CONTENT?5p@ 00480d7c     NetClientLib:s_CHttpPatch.obj
 0002:00002db4       ??_C@_0DP@PPOKKPOL@?$CFd?5HTTP_STATUS_RESET_CONTENT?5req@ 00480db4     NetClientLib:s_CHttpPatch.obj
 0002:00002df4       ??_C@_0CM@POCCPGOC@?$CFd?5HTTP_STATUS_NO_CONTENT?5no?5inf@ 00480df4     NetClientLib:s_CHttpPatch.obj
 0002:00002e20       ??_C@_0CK@IPCDHKJO@?$CFd?5HTTP_STATUS_PARTIAL?5partial?5c@ 00480e20     NetClientLib:s_CHttpPatch.obj
 0002:00002e4c       ??_C@_0CP@CNFCHLMF@?$CFd?5HTTP_STATUS_ACCEPTED?5async?5co@ 00480e4c     NetClientLib:s_CHttpPatch.obj
 0002:00002e7c       ??_C@_0DI@LCLKKMFD@?$CFd?5HTTP_STATUS_CREATED?5object?5cr@ 00480e7c     NetClientLib:s_CHttpPatch.obj
 0002:00002eb4       ??_C@_0CE@COLIANNO@?$CFd?5HTTP_STATUS_OK?5request?5comple@ 00480eb4     NetClientLib:s_CHttpPatch.obj
 0002:00002ed8       ??_C@_0FA@ODLLGNOO@?$CFd?5HTTP_STATUS_SWITCH_PROTOCOLS?5@ 00480ed8     NetClientLib:s_CHttpPatch.obj
 0002:00002f28       ??_C@_0DE@JHHJAECC@?$CFd?5HTTP_STATUS_CONTINUE?5OK?5to?5co@ 00480f28     NetClientLib:s_CHttpPatch.obj
 0002:00002f5c       ??_C@_0BA@DIGAFIOK@Content?9Length?3?$AA@ 00480f5c     NetClientLib:s_CHttpPatch.obj
 0002:00002f6c       ??_C@_03IMLOPEAE@?5?$AN?6?$AA@ 00480f6c     NetClientLib:s_CHttpPatch.obj
 0002:00002f70       ??_C@_0EO@NNOMHCAD@Accept?3?5?$CK?1?$CK?$AN?6User?9Agent?3?5Mozilla@ 00480f70     NetClientLib:s_CHttpPatch.obj
 0002:00002fc0       ??_C@_0BD@IAOJMPIG@HTTP?5Patch?5program?$AA@ 00480fc0     NetClientLib:s_CHttpPatch.obj
 0002:00002fd4       ??_C@_0BN@JJFJMML@Unknown?5Socket?5ERROR?5code?5?$CFd?$AA@ 00480fd4     NetClientLib:s_NetGlobal.obj
 0002:00002ff4       ??_C@_0BF@IEKPHJHP@WSAHOST_NOT_FOUND?5?$CFd?$AA@ 00480ff4     NetClientLib:s_NetGlobal.obj
 0002:0000300c       ??_C@_0P@DJPEENHM@WSAEREFUSED?5?$CFd?$AA@ 0048100c     NetClientLib:s_NetGlobal.obj
 0002:0000301c       ??_C@_0BD@FPGMGAA@WSA_E_CANCELLED?5?$CFd?$AA@ 0048101c     NetClientLib:s_NetGlobal.obj
 0002:00003030       ??_C@_0BB@FJBJADLB@WSA_E_NO_MORE?5?$CFd?$AA@ 00481030     NetClientLib:s_NetGlobal.obj
 0002:00003044       ??_C@_0BF@NCMBICEN@WSATYPE_NOT_FOUND?5?$CFd?$AA@ 00481044     NetClientLib:s_NetGlobal.obj
 0002:0000305c       ??_C@_0BI@OMPCCJCF@WSASERVICE_NOT_FOUND?5?$CFd?$AA@ 0048105c     NetClientLib:s_NetGlobal.obj
 0002:00003074       ??_C@_0BF@FFIJAJEN@WSASYSCALLFAILURE?5?$CFd?$AA@ 00481074     NetClientLib:s_NetGlobal.obj
 0002:0000308c       ??_C@_0BK@KOPAKCJM@WSAEPROVIDERFAILEDINIT?5?$CFd?$AA@ 0048108c     NetClientLib:s_NetGlobal.obj
 0002:000030a8       ??_C@_0BH@OGHIOIFM@WSAEINVALIDPROVIDER?5?$CFd?$AA@ 004810a8     NetClientLib:s_NetGlobal.obj
 0002:000030c0       ??_C@_0BI@FMGNJIOH@WSAEINVALIDPROCTABLE?5?$CFd?$AA@ 004810c0     NetClientLib:s_NetGlobal.obj
 0002:000030d8       ??_C@_0BB@FFHDCNII@WSAECANCELLED?5?$CFd?$AA@ 004810d8     NetClientLib:s_NetGlobal.obj
 0002:000030ec       ??_C@_0O@BLOICANC@WSAENOMORE?5?$CFd?$AA@ 004810ec     NetClientLib:s_NetGlobal.obj
 0002:000030fc       ??_C@_0O@BJNJKAKI@WSAEDISCON?5?$CFd?$AA@ 004810fc     NetClientLib:s_NetGlobal.obj
 0002:0000310c       ??_C@_0BF@DCFBDMAL@WSANOTINITIALISED?5?$CFd?$AA@ 0048110c     NetClientLib:s_NetGlobal.obj
 0002:00003124       ??_C@_0BG@BFJDDKHO@WSAVERNOTSUPPORTED?5?$CFd?$AA@ 00481124     NetClientLib:s_NetGlobal.obj
 0002:0000313c       ??_C@_0BC@BLNBCDPG@WSASYSNOTREADY?5?$CFd?$AA@ 0048113c     NetClientLib:s_NetGlobal.obj
 0002:00003150       ??_C@_0O@GFANCIDH@WSAEREMOTE?5?$CFd?$AA@ 00481150     NetClientLib:s_NetGlobal.obj
 0002:00003160       ??_C@_0N@KPKBGMJJ@WSAESTALE?5?$CFd?$AA@ 00481160     NetClientLib:s_NetGlobal.obj
 0002:00003170       ??_C@_0N@GHGFDJAE@WSAEDQUOT?5?$CFd?$AA@ 00481170     NetClientLib:s_NetGlobal.obj
 0002:00003180       ??_C@_0N@PEENDJNA@WSAEUSERS?5?$CFd?$AA@ 00481180     NetClientLib:s_NetGlobal.obj
 0002:00003190       ??_C@_0P@FJNJKOPG@WSAEPROCLIM?5?$CFd?$AA@ 00481190     NetClientLib:s_NetGlobal.obj
 0002:000031a0       ??_C@_0BA@NBHIILDE@WSAENOTEMPTY?5?$CFd?$AA@ 004811a0     NetClientLib:s_NetGlobal.obj
 0002:000031b0       ??_C@_0BD@HANLKDJE@WSAEHOSTUNREACH?5?$CFd?$AA@ 004811b0     NetClientLib:s_NetGlobal.obj
 0002:000031c4       ??_C@_0BA@LNKPKNKP@WSAEHOSTDOWN?5?$CFd?$AA@ 004811c4     NetClientLib:s_NetGlobal.obj
 0002:000031d4       ??_C@_0BD@ECJLNMLO@WSAENAMETOOLONG?5?$CFd?$AA@ 004811d4     NetClientLib:s_NetGlobal.obj
 0002:000031e8       ??_C@_0M@FNKBDLDG@WSAELOOP?5?$CFd?$AA@ 004811e8     NetClientLib:s_NetGlobal.obj
 0002:000031f4       ??_C@_0BD@EIPIJIK@WSAECONNREFUSED?5?$CFd?$AA@ 004811f4     NetClientLib:s_NetGlobal.obj
 0002:00003208       ??_C@_0BA@LJEMAONA@WSAETIMEDOUT?5?$CFd?$AA@ 00481208     NetClientLib:s_NetGlobal.obj
 0002:00003218       ??_C@_0BD@JHPGFPOG@WSAETOOMANYREFS?5?$CFd?$AA@ 00481218     NetClientLib:s_NetGlobal.obj
 0002:0000322c       ??_C@_0BA@OEAAIBJJ@WSAESHUTDOWN?5?$CFd?$AA@ 0048122c     NetClientLib:s_NetGlobal.obj
 0002:0000323c       ??_C@_0P@DCNBMHDK@WSAENOTCONN?5?$CFd?$AA@ 0048123c     NetClientLib:s_NetGlobal.obj
 0002:0000324c       ??_C@_0O@KFIOGLAN@WSAEISCONN?5?$CFd?$AA@ 0048124c     NetClientLib:s_NetGlobal.obj
 0002:0000325c       ??_C@_0O@HGIBNDFB@WSAENOBUFS?5?$CFd?$AA@ 0048125c     NetClientLib:s_NetGlobal.obj
 0002:0000326c       ??_C@_0BB@GPCEDKBA@WSAECONNRESET?5?$CFd?$AA@ 0048126c     NetClientLib:s_NetGlobal.obj
 0002:00003280       ??_C@_0BD@LCIGLBPF@WSAECONNABORTED?5?$CFd?$AA@ 00481280     NetClientLib:s_NetGlobal.obj
 0002:00003294       ??_C@_0BA@CJGBOIKP@WSAENETRESET?5?$CFd?$AA@ 00481294     NetClientLib:s_NetGlobal.obj
 0002:000032a4       ??_C@_0BC@LAKLIBJJ@WSAENETUNREACH?5?$CFd?$AA@ 004812a4     NetClientLib:s_NetGlobal.obj
 0002:000032b8       ??_C@_0P@LOPANLJ@WSAENETDOWN?5?$CFd?$AA@ 004812b8     NetClientLib:s_NetGlobal.obj
 0002:000032c8       ??_C@_0BE@IKJJADEC@WSAEADDRNOTAVAIL?5?$CFd?$AA@ 004812c8     NetClientLib:s_NetGlobal.obj
 0002:000032dc       ??_C@_0BB@DJPHLIMD@WSAEADDRINUSE?5?$CFd?$AA@ 004812dc     NetClientLib:s_NetGlobal.obj
 0002:000032f0       ??_C@_0BD@DGKNLDJI@WSAEAFNOSUPPORT?5?$CFd?$AA@ 004812f0     NetClientLib:s_NetGlobal.obj
 0002:00003304       ??_C@_0BD@MLDEPHDP@WSAEPFNOSUPPORT?5?$CFd?$AA@ 00481304     NetClientLib:s_NetGlobal.obj
 0002:00003318       ??_C@_0BB@GIFFNLKM@WSAEOPNOTSUPP?5?$CFd?$AA@ 00481318     NetClientLib:s_NetGlobal.obj
 0002:0000332c       ??_C@_0BG@EDPIPDCB@WSAESOCKTNOSUPPORT?5?$CFd?$AA@ 0048132c     NetClientLib:s_NetGlobal.obj
 0002:00003344       ??_C@_0BG@DCNDJMLH@WSAEPROTONOSUPPORT?5?$CFd?$AA@ 00481344     NetClientLib:s_NetGlobal.obj
 0002:0000335c       ??_C@_03EBJOKFHF@?5?$CFd?$AA@ 0048135c     NetClientLib:s_NetGlobal.obj
 0002:00003360       ??_C@_0BB@ECCJDEDA@WSAEPROTOTYPE?5?$CFd?$AA@ 00481360     NetClientLib:s_NetGlobal.obj
 0002:00003374       ??_C@_0P@PDBAMLGE@WSAEMSGSIZE?5?$CFd?$AA@ 00481374     NetClientLib:s_NetGlobal.obj
 0002:00003384       ??_C@_0BD@KKCPGEBP@WSAEDESTADDRREQ?5?$CFd?$AA@ 00481384     NetClientLib:s_NetGlobal.obj
 0002:00003398       ??_C@_0P@DKBEGKLP@WSAENOTSOCK?5?$CFd?$AA@ 00481398     NetClientLib:s_NetGlobal.obj
 0002:000033a8       ??_C@_0P@NMAPOLFL@WSAEALREADY?5?$CFd?$AA@ 004813a8     NetClientLib:s_NetGlobal.obj
 0002:000033b8       ??_C@_0BC@IHNAGOCP@WSAEINPROGRESS?5?$CFd?$AA@ 004813b8     NetClientLib:s_NetGlobal.obj
 0002:000033cc       ??_C@_0BC@LPDMFKKM@WSAEWOULDBLOCK?5?$CFd?$AA@ 004813cc     NetClientLib:s_NetGlobal.obj
 0002:000033e0       ??_C@_0N@MGNCINEL@WSAEMFILE?5?$CFd?$AA@ 004813e0     NetClientLib:s_NetGlobal.obj
 0002:000033f0       ??_C@_0N@ENJBMJP@WSAEACCES?5?$CFd?$AA@ 004813f0     NetClientLib:s_NetGlobal.obj
 0002:00003400       ??_C@_0N@LDLMFCAH@WSAEFAULT?5?$CFd?$AA@ 00481400     NetClientLib:s_NetGlobal.obj
 0002:00003410       ??_C@_0N@GIMDFKHK@WSAEINVAL?5?$CFd?$AA@ 00481410     NetClientLib:s_NetGlobal.obj
 0002:00003420       ??_C@_0M@KAOHJPNO@WSAEINTR?5?$CFd?$AA@ 00481420     NetClientLib:s_NetGlobal.obj
 0002:0000342c       ??_C@_0BG@FIMPPLIO@WSA_INVALID_HANDLE?5?$CFd?$AA@ 0048142c     NetClientLib:s_NetGlobal.obj
 0002:00003444       ??_C@_0BJ@DDLBKOGJ@WSA_NOT_ENOUGH_MEMORY?5?$CFd?$AA@ 00481444     NetClientLib:s_NetGlobal.obj
 0002:00003460       ??_C@_0BJ@NBFBOOL@WSA_INVALID_PARAMETER?5?$CFd?$AA@ 00481460     NetClientLib:s_NetGlobal.obj
 0002:0000347c       ??_C@_0BJ@LFBPMJAD@Memory?5allocation?5failed?$AA@ 0048147c     NetClientLib:s_NetGlobal.obj
 0002:00003498       ??_C@_09PKLIECEJ@O5FDASEOT?$AA@ 00481498     NetClientLib:RcvMsgBuffer.obj
 0002:000034a4       ??_C@_06JNBKLGDJ@N6GNET?$AA@ 004814a4     NetClientLib:RcvMsgBuffer.obj
 0002:000034ac       ??_C@_06EHINGHJC@M7HSET?$AA@ 004814ac     NetClientLib:RcvMsgBuffer.obj
 0002:000034b4       ??_C@_06HODPKDEM@L8IDUL?$AA@ 004814b4     NetClientLib:RcvMsgBuffer.obj
 0002:000034bc       ??_C@_07CDMLLHFG@K9IHANA?$AA@ 004814bc     NetClientLib:RcvMsgBuffer.obj
 0002:000034c4       __real@bfc00000            004814c4     NetClientLib:minTea.obj
 0002:000034c8       ??_C@_0BJ@EJDOMAGL@Steven?5Seagal?5Neck?5Break?$AA@ 004814c8     NetClientLib:minTea.obj
 0002:000034e4       __real@42500000            004814e4     NetClientLib:minTea.obj
 0002:000034e8       ??_C@_0O@BNNCBLEN@out?5of?5memory?$AA@ 004814e8     NetClientLib:MinLzo.obj
 0002:000034f8       ??_C@_0KB@NLCAIBHJ@internal?5error?5?9?5lzo_init?$CI?$CJ?5fail@ 004814f8     NetClientLib:MinLzo.obj
 0002:0000359c       ??_C@_0BP@IOFJCNNH@lzoDeCompress?5input?5data?5error?$AA@ 0048159c     NetClientLib:MinLzo.obj
 0002:000035bc       ??_C@_0CB@MFLPHMNE@lzoDeCompress?5can?5not?5decompress@ 004815bc     NetClientLib:MinLzo.obj
 0002:000035e0       ??_C@_0CB@PGPHENPA@A18C92492EE8893EA8618812BE9C934F@ 004815e0     NetClientLib:dhkey.obj
 0002:00003604       ??_C@_0CB@BKECPKML@98A4D112C3EBA27AD9EA76938B20CD5F@ 00481604     NetClientLib:dhkey.obj
 0002:00003628       ??_C@_0IB@NBFGGIAI@B4FEF503267797287E837152A997495F@ 00481628     NetClientLib:dhkey.obj
 0002:000036b0       ??_C@_0IB@KKLNCCAB@BDE8B97AF6E4AE453287D6A21CD9820D@ 004816b0     NetClientLib:dhkey.obj
 0002:00003734       ??_C@_0BB@PBMKLJGE@E09082D102CAC731?$AA@ 00481734     NetClientLib:dhkey.obj
 0002:00003748       ??_C@_0BB@EADFGBH@CE0835F012503743?$AA@ 00481748     NetClientLib:dhkey.obj
 0002:0000375c       ?fDONT_CARE_DIST_SQ@DxSoundMan@@0MB 0048175c     EngineSoundLib:DxSoundMan.obj
 0002:00003760       ?fMAX_DIST_SQ@DxSoundMan@@0MB 00481760     EngineSoundLib:DxSoundMan.obj
 0002:00003764       ?dwMAX_BUFFER_SIZE@DxSoundMan@@0KB 00481764     EngineSoundLib:DxSoundMan.obj
 0002:00003768       __real@3ecccccd            00481768     EngineSoundLib:DxSoundMan.obj
 0002:0000376c       __real@3e4ccccd            0048176c     EngineSoundLib:DxSoundMan.obj
 0002:00003770       ??_7DxSoundMan@@6B@        00481770     EngineSoundLib:DxSoundMan.obj
 0002:00003774       ??_C@_01IHBHIGKO@?0?$AA@   00481774     EngineLib:StringUtils.obj
 0002:00003778       ??_C@_0BJ@NPKIGAGM@separator?5must?5one?5char?4?$AA@ 00481778     EngineLib:StringUtils.obj
 0002:00003794       ??_C@_0BE@NPEOLIBM@EnumDisplayDevicesA?$AA@ 00481794     EngineLib:DXUT.obj
 0002:000037a8       ??_C@_0BA@KIAMMEPJ@GetMonitorInfoA?$AA@ 004817a8     EngineLib:DXUT.obj
 0002:000037b8       ??_C@_0BE@OHNDFFJG@EnumDisplayMonitors?$AA@ 004817b8     EngineLib:DXUT.obj
 0002:000037cc       ??_C@_0BB@DDMDAIAD@MonitorFromPoint?$AA@ 004817cc     EngineLib:DXUT.obj
 0002:000037e0       ??_C@_0BA@DPLKJPEB@MonitorFromRect?$AA@ 004817e0     EngineLib:DXUT.obj
 0002:000037f0       ??_C@_0BC@CHFENAPF@MonitorFromWindow?$AA@ 004817f0     EngineLib:DXUT.obj
 0002:00003804       ??_C@_0BB@BFCABEPI@GetSystemMetrics?$AA@ 00481804     EngineLib:DXUT.obj
 0002:00003818       ??_C@_06KDCOIDGA@USER32?$AA@ 00481818     EngineLib:DXUT.obj
 0002:00003820       ??_C@_1CI@EFENCLA@?$AAD?$AAi?$AAr?$AAe?$AAc?$AAt?$AAX?$AA?5?$AAA?$AAp?$AAp?$AAl?$AAi?$AAc?$AAa?$AAt?$AAi?$AAo?$AAn?$AA?$AA@ 00481820     EngineLib:DXUT.obj
 0002:00003848       ??_C@_1GA@FBENCPFN@?$AAC?$AAo?$AAu?$AAl?$AAd?$AA?5?$AAn?$AAo?$AAt?$AA?5?$AAf?$AAi?$AAn?$AAd?$AA?5?$AAa?$AAn?$AAy?$AA?5?$AAc@ 00481848     EngineLib:DXUT.obj
 0002:000038a8       ??_C@_1FM@GKCCEHLI@?$AAD?$AAi?$AAr?$AAe?$AAc?$AAt?$AA3?$AAD?$AA?5?$AAd?$AAo?$AAe?$AAs?$AA?5?$AAn?$AAo?$AAt?$AA?5?$AAw?$AAo@ 004818a8     EngineLib:DXUT.obj
 0002:00003908       ??_C@_1FE@FMDBOPIH@?$AAF?$AAa?$AAi?$AAl?$AAe?$AAd?$AA?5?$AAr?$AAe?$AAs?$AAe?$AAt?$AAt?$AAi?$AAn?$AAg?$AA?5?$AAD?$AAi?$AAr@ 00481908     EngineLib:DXUT.obj
 0002:00003960       ??_C@_1FC@NBFKGDPC@?$AAF?$AAa?$AAi?$AAl?$AAe?$AAd?$AA?5?$AAc?$AAr?$AAe?$AAa?$AAt?$AAi?$AAn?$AAg?$AA?5?$AAD?$AAi?$AAr?$AAe@ 00481960     EngineLib:DXUT.obj
 0002:000039b8       ??_C@_1EM@NKIANKFC@?$AAF?$AAa?$AAi?$AAl?$AAe?$AAd?$AA?5?$AAr?$AAe?$AAs?$AAe?$AAt?$AAt?$AAi?$AAn?$AAg?$AA?5?$AAt?$AAh?$AAe@ 004819b8     EngineLib:DXUT.obj
 0002:00003a08       ??_C@_1EK@EFMPIFKF@?$AAF?$AAa?$AAi?$AAl?$AAe?$AAd?$AA?5?$AAc?$AAr?$AAe?$AAa?$AAt?$AAi?$AAn?$AAg?$AA?5?$AAt?$AAh?$AAe?$AA?5@ 00481a08     EngineLib:DXUT.obj
 0002:00003a58       ??_C@_1KO@GOLOOJHJ@?$AAT?$AAh?$AAe?$AA?5?$AAD?$AA3?$AAD?$AA?5?$AAd?$AAe?$AAv?$AAi?$AAc?$AAe?$AA?5?$AAh?$AAa?$AAs?$AA?5?$AAa@ 00481a58     EngineLib:DXUT.obj
 0002:00003b08       ??_C@_1KG@FAPOGIIN@?$AAC?$AAo?$AAu?$AAl?$AAd?$AA?5?$AAn?$AAo?$AAt?$AA?5?$AAf?$AAi?$AAn?$AAd?$AA?5?$AAr?$AAe?$AAq?$AAu?$AAi@ 00481b08     EngineLib:DXUT.obj
 0002:00003bb0       ??_C@_1FG@MMNACHKN@?$AAI?$AAn?$AAc?$AAo?$AAr?$AAr?$AAe?$AAc?$AAt?$AA?5?$AAv?$AAe?$AAr?$AAs?$AAi?$AAo?$AAn?$AA?5?$AAo?$AAf@ 00481bb0     EngineLib:DXUT.obj
 0002:00003c08       ??_C@_1BMO@KLBFKJKP@?$AAC?$AAo?$AAu?$AAl?$AAd?$AA?5?$AAn?$AAo?$AAt?$AA?5?$AAi?$AAn?$AAi?$AAt?$AAi?$AAa?$AAl?$AAi?$AAz?$AAe@ 00481c08     EngineLib:DXUT.obj
 0002:00003dd8       __real@41200000            00481dd8     EngineLib:DXUT.obj
 0002:00003ddc       __real@3dcccccd            00481ddc     EngineLib:DXUT.obj
 0002:00003de0       __real@41f0000000000000    00481de0     EngineLib:DXUT.obj
 0002:00003de8       __real@41700000            00481de8     EngineLib:DebugSet.obj
 0002:00003dec       __real@425c0000            00481dec     EngineLib:DebugSet.obj
 0002:00003df0       ??_C@_0BM@DAFDJKHJ@?$CFd?9?$CF02d?9?$CF02d?5?$CF02d?3?$CF02d?3?$CF02d?$AA@ 00481df0     EngineLib:DebugSet.obj
 0002:00003e0c       ??_C@_08MPICMHNM@?$FL?$CFs?$FN?5?$CFs?6?$AA@ 00481e0c     EngineLib:DebugSet.obj
 0002:00003e18       ??_C@_0BF@JCAAFDIB@Execution?5time?5?3?5?$CFs?6?$AA@ 00481e18     EngineLib:DebugSet.obj
 0002:00003e30       ??_C@_01EEMJAFIK@?6?$AA@   00481e30     EngineLib:DebugSet.obj
 0002:00003e34       ??_C@_0BP@BIDKKMG@?5?5?5?5?5?5?5?5?5?5?5?5?5?5?5?5?5ERROR?5REPORT?6?$AA@ 00481e34     EngineLib:DebugSet.obj
 0002:00003e54       ??_C@_0BG@KIBKBPDI@?7?7?7?7?5?5?5?5ERROR?5REPORT?6?$AA@ 00481e54     EngineLib:DebugSet.obj
 0002:00003e6c       ??_C@_0DB@EDCEICEK@?9?9?9?9?9?9?9?9?9?9?9?9?9?9?9?9?9?9?9?9?9?9?9?9?9?9?9?9?9?9?9?9@ 00481e6c     EngineLib:DebugSet.obj
 0002:00003ea0       ??_C@_02CPIDLAI@at?$AA@    00481ea0     EngineLib:DebugSet.obj
 0002:00003ea4       ??_C@_0L@FKKGEMIP@notepad?5?$CFs?$AA@ 00481ea4     EngineLib:DebugSet.obj
 0002:00003eb0       ??_C@_0BB@MOGOBHAF@list?$DMT?$DO?5too?5long?$AA@ 00481eb0     EngineLib:DebugSet.obj
 0002:00003ec4       ??_C@_08FMKPAPDE@?$FL?$CF05d?$FN?5?5?$AA@ 00481ec4     EngineLib:DebugSet.obj
 0002:00003ed0       ??_C@_0BD@EGAHMPCH@log?4?$CFd?$CFd?$CFd?$CFd?$CFd?4txt?$AA@ 00481ed0     EngineLib:DebugSet.obj
 0002:00003ee8       ??_C@_0IC@MFMIPNPF@?6?6Switching?5to?5the?5reference?5ras@ 00481ee8     EngineLib:d3dapp.obj
 0002:00003f6c       ??_C@_0CC@LHIDCKOG@?6?6This?5application?5will?5now?5exit@ 00481f6c     EngineLib:d3dapp.obj
 0002:00003f90       ??_C@_0EJ@NBPBFOLL@Generic?5application?5error?4?5Enabl@ 00481f90     EngineLib:d3dapp.obj
 0002:00003fdc       ??_C@_0BJ@IMKDBANA@Not?5enough?5video?5memory?4?$AA@ 00481fdc     EngineLib:d3dapp.obj
 0002:00003ff8       ??_C@_0NL@EFFPMEHJ@Warning?3?5Nothing?5will?5be?5rendere@ 00481ff8     EngineLib:d3dapp.obj
 0002:000040d8       ??_C@_0FL@JAPAPODB@A?5D3D?5object?5has?5a?5non?9zero?5refe@ 004820d8     EngineLib:d3dapp.obj
 0002:00004134       ??_C@_0CF@JCBOIPFJ@Could?5not?5reset?5the?5Direct3D?5dev@ 00482134     EngineLib:d3dapp.obj
 0002:0000415c       ??_C@_0BP@DDMILEGD@Could?5not?5load?5required?5media?4?$AA@ 0048215c     EngineLib:d3dapp.obj
 0002:00004180       ??_C@_0IM@LIGDAPNJ@This?5program?5requires?5functional@ 00482180     EngineLib:d3dapp.obj
 0002:00004210       ??_C@_0GL@OFPFDCAP@Your?5Direct3D?5hardware?5accelerat@ 00482210     EngineLib:d3dapp.obj
 0002:0000427c       ??_C@_0DF@BENIABML@No?5hardware?9accelerated?5Direct3D@ 0048227c     EngineLib:d3dapp.obj
 0002:000042b8       ??_C@_0GB@CBKJMPPD@This?5program?5requires?5functional@ 004822b8     EngineLib:d3dapp.obj
 0002:00004320       ??_C@_0EB@ELFLADEA@Your?5Direct3D?5hardware?5accelerat@ 00482320     EngineLib:d3dapp.obj
 0002:00004368       ??_C@_0LA@LBOPFNMO@This?5program?5cannot?5run?5in?5a?5des@ 00482368     EngineLib:d3dapp.obj
 0002:00004418       ??_C@_0BD@NLHHLHNB@Not?5enough?5memory?4?$AA@ 00482418     EngineLib:d3dapp.obj
 0002:00004430       ??_C@_0OH@MILJLCEI@Could?5not?5initialize?5Direct3D?4?5Y@ 00482430     EngineLib:d3dapp.obj
 0002:00004518       ??_C@_0DA@NILKFAHG@Could?5not?5find?5any?5compatible?5Di@ 00482518     EngineLib:d3dapp.obj
 0002:00004548       ??_C@_03GPMNEAGC@REF?$AA@  00482548     EngineLib:d3dapp.obj
 0002:0000454c       ??_C@_03KNIPLHMP@HAL?$AA@  0048254c     EngineLib:d3dapp.obj
 0002:00004550       ??_C@_02LMMGGCAJ@?3?5?$AA@ 00482550     EngineLib:d3dapp.obj
 0002:00004554       ??_C@_08OFBBMACB@?5?$CIsw?5vp?$CJ?$AA@ 00482554     EngineLib:d3dapp.obj
 0002:00004560       ??_C@_0BG@GKHJLCDJ@?5?$CIsimulated?5mixed?5vp?$CJ?$AA@ 00482560     EngineLib:d3dapp.obj
 0002:00004578       ??_C@_0M@NOOBLHBB@?5?$CImixed?5vp?$CJ?$AA@ 00482578     EngineLib:d3dapp.obj
 0002:00004584       ??_C@_0BD@NNKCKNKM@?5?$CIsimulated?5hw?5vp?$CJ?$AA@ 00482584     EngineLib:d3dapp.obj
 0002:00004598       ??_C@_08IAMIAIBF@?5?$CIhw?5vp?$CJ?$AA@ 00482598     EngineLib:d3dapp.obj
 0002:000045a4       ??_C@_0BI@KADHBMJM@?5?$CIsimulated?5pure?5hw?5vp?$CJ?$AA@ 004825a4     EngineLib:d3dapp.obj
 0002:000045bc       ??_C@_0O@INAAPCCB@?5?$CIpure?5hw?5vp?$CJ?$AA@ 004825bc     EngineLib:d3dapp.obj
 0002:000045cc       ??_C@_02JLLOHNJH@SW?$AA@   004825cc     EngineLib:d3dapp.obj
 0002:000045d0       ??_C@_0BD@HLOAJGKJ@?5?$CI16x?5Multisample?$CJ?$AA@ 004825d0     EngineLib:d3dapp.obj
 0002:000045e4       ??_C@_0BD@FCCICCFL@?5?$CI15x?5Multisample?$CJ?$AA@ 004825e4     EngineLib:d3dapp.obj
 0002:000045f8       ??_C@_0BD@PMEALDMK@?5?$CI14x?5Multisample?$CJ?$AA@ 004825f8     EngineLib:d3dapp.obj
 0002:0000460c       ??_C@_0BD@BLJELLP@?5?$CI13x?5Multisample?$CJ?$AA@ 0048260c     EngineLib:d3dapp.obj
 0002:00004620       ??_C@_0BD@KPNBNKCO@?5?$CI12x?5Multisample?$CJ?$AA@ 00482620     EngineLib:d3dapp.obj
 0002:00004634       ??_C@_0BD@IGBJGONM@?5?$CI11x?5Multisample?$CJ?$AA@ 00482634     EngineLib:d3dapp.obj
 0002:00004648       ??_C@_0BD@CIHBPPEN@?5?$CI10x?5Multisample?$CJ?$AA@ 00482648     EngineLib:d3dapp.obj
 0002:0000465c       ??_C@_0BC@PCLDCAJ@?5?$CI9x?5Multisample?$CJ?$AA@ 0048265c     EngineLib:d3dapp.obj
 0002:00004670       ??_C@_0BC@KBEDKDJI@?5?$CI8x?5Multisample?$CJ?$AA@ 00482670     EngineLib:d3dapp.obj
 0002:00004684       ??_C@_0BC@CPKJMEKC@?5?$CI7x?5Multisample?$CJ?$AA@ 00482684     EngineLib:d3dapp.obj
 0002:00004698       ??_C@_0BC@IBMBFFDD@?5?$CI6x?5Multisample?$CJ?$AA@ 00482698     EngineLib:d3dapp.obj
 0002:000046ac       ??_C@_0BC@KIAJOBMB@?5?$CI5x?5Multisample?$CJ?$AA@ 004826ac     EngineLib:d3dapp.obj
 0002:000046c0       ??_C@_0BC@GGBHAFA@?5?$CI4x?5Multisample?$CJ?$AA@ 004826c0     EngineLib:d3dapp.obj
 0002:000046d4       ??_C@_0BC@PLJIIICF@?5?$CI3x?5Multisample?$CJ?$AA@ 004826d4     EngineLib:d3dapp.obj
 0002:000046e8       ??_C@_0BC@FFPABJLE@?5?$CI2x?5Multisample?$CJ?$AA@ 004826e8     EngineLib:d3dapp.obj
 0002:000046fc       ??_C@_06GKJFJJJF@?5?$CID32?$CJ?$AA@ 004826fc     EngineLib:d3dapp.obj
 0002:00004704       ??_C@_0L@FMDEODJN@?5?$CID24X4S4?$CJ?$AA@ 00482704     EngineLib:d3dapp.obj
 0002:00004710       ??_C@_08KLEFHCBE@?5?$CID24S8?$CJ?$AA@ 00482710     EngineLib:d3dapp.obj
 0002:0000471c       ??_C@_08HMEEPFBF@?5?$CID24X8?$CJ?$AA@ 0048271c     EngineLib:d3dapp.obj
 0002:00004728       ??_C@_08BPGABCIF@?5?$CID15S1?$CJ?$AA@ 00482728     EngineLib:d3dapp.obj
 0002:00004734       ??_C@_06MHJFPJMC@?5?$CID16?$CJ?$AA@ 00482734     EngineLib:d3dapp.obj
 0002:0000473c       ??_C@_0BF@CIOJMCE@?$CF?402f?5fps?5?$CI?$CFdx?$CFdx?$CFd?$CJ?$AA@ 0048273c     EngineLib:d3dapp.obj
 0002:00004758       __real@3fa0e56040000000    00482758     EngineLib:d3dapp.obj
 0002:00004760       ??_C@_0L@HDBPGOOH@D3D?5Window?$AA@ 00482760     EngineLib:d3dapp.obj
 0002:0000476c       ??_C@_0BB@GLNGAIJG@D3D9?5Application?$AA@ 0048276c     EngineLib:d3dapp.obj
 0002:00004780       ??_7CD3DApplication@@6B@   00482780     EngineLib:d3dapp.obj
 0002:000047cc       ??_C@_08HBEEOLCM@D3DXFONT?$AA@ 004827cc     EngineLib:DxFontMan.obj
 0002:000047d8       ??_C@_07IKFPMGCM@D3DFONT?$AA@ 004827d8     EngineLib:DxFontMan.obj
 0002:000047e0       ??_7SFileHandle@@6B@       004827e0     EngineLib:SFileSystem.obj
 0002:000047e4       ??_C@_0BF@LBEAGDOO@RANPACKAGEFILESYSTEM?$AA@ 004827e4     EngineLib:SFileSystem.obj
 0002:000047fc       ??_C@_01LFCBOECM@?4?$AA@   004827fc     EngineLib:SFileSystem.obj
 0002:00004800       ??_C@_06MGLLNMNP@?2?1?$AA?6?$AN?7?$AA@ 00482800     EngineLib:SFileSystem.obj
 0002:00004808       ??_C@_02DJGKEECL@?4?4?$AA@ 00482808     EngineLib:SFileSystem.obj
 0002:0000480c       ??_7SFileSystem@@6B@       0048280c     EngineLib:SFileSystem.obj
 0002:00004810       ??_C@_03HMFOOINA@r?$CLb?$AA@ 00482810     EngineLib:SFileSystem.obj
 0002:00004814       ??_C@_04NEJBHOB@?$CF08x?$AA@ 00482814     EngineLib:CHash.obj
 0002:0000481c       ??_C@_06PEDEOBLD@Reverb?$AA@ 0048281c     EngineLib:dsutil.obj
 0002:00004824       ??_C@_08EOFPAMKB@Param?5Eq?$AA@ 00482824     EngineLib:dsutil.obj
 0002:00004830       ??_C@_06FMDDGGDK@Gargle?$AA@ 00482830     EngineLib:dsutil.obj
 0002:00004838       ??_C@_07CJHHAFLL@Flanger?$AA@ 00482838     EngineLib:dsutil.obj
 0002:00004840       ??_C@_04CEPMGKMG@Echo?$AA@ 00482840     EngineLib:dsutil.obj
 0002:00004848       ??_C@_0L@PHLCMPMK@Distortion?$AA@ 00482848     EngineLib:dsutil.obj
 0002:00004854       ??_C@_0L@EAPGMEIM@Compressor?$AA@ 00482854     EngineLib:dsutil.obj
 0002:00004860       ??_C@_06HPKLMKFH@Chorus?$AA@ 00482860     EngineLib:dsutil.obj
 0002:00004868       ??_C@_03BFNIAKNN@WAV?$AA@  00482868     EngineLib:dsutil.obj
 0002:0000486c       ??_C@_04HFHJMNCD@WAVE?$AA@ 0048286c     EngineLib:dsutil.obj
 0002:00004874       ??_7CSound@@6B@            00482874     EngineLib:dsutil.obj
 0002:00004878       ??_7DxViewPort@@6B@        00482878     EngineLib:DxViewPort.obj
 0002:000048a8       __real@bfc8ef16            004828a8     EngineLib:DxViewPort.obj
 0002:000048b0       __real@4@3ffe8000000000000000 004828b0     vorbisfile_static:vorbisfile.obj
 0002:000048b0       __real@3f000000            004828b0     EngineLib:DxViewPort.obj
 0002:000048b4       __real@bf800000            004828b4     EngineLib:DxViewPort.obj
 0002:000048b8       __real@40400000            004828b8     EngineLib:DxViewPort.obj
 0002:000048bc       __real@3a83126f            004828bc     EngineLib:DxViewPort.obj
 0002:000048c0       __real@3fc90fdb            004828c0     EngineLib:DxViewPort.obj
 0002:000048c4       ??_7DxInputDevice@@6B@     004828c4     EngineLib:DxInputDevice.obj
 0002:000048c8       __real@3f50624dd2f1a9fc    004828c8     EngineLib:dxutil.obj
 0002:0000492c       ??_7CMD2@HASH@@6B@         0048292c     EngineLib:md2.obj
 0002:000051d0       ??_7CCrc32Static@HASH@@6B@ 004831d0     EngineLib:CRC32.obj
 0002:000051d4       __real@3eaaaaab            004831d4     EngineLib:navagationtree.obj
 0002:000051d8       __real@ba83126f            004831d8     EngineLib:Collision.obj
 0002:000051dc       __real@bc23d70a            004831dc     EngineLib:Collision.obj
 0002:000051e0       ?FVF@SHADOWTEX2@@2KB       004831e0     EngineLib:DxMethods.obj
 0002:000051e4       ?TYPEID@DxEffectMultiTex@@2KB 004831e4     EngineLib:DxEffectMultiTex.obj
 0002:000051e8       ?VERSION@DxEffectMultiTex@@2KB 004831e8     EngineLib:DxEffectMultiTex.obj
 0002:000051ec       ?NAME@DxEffectMultiTex@@2QBDB 004831ec     EngineLib:DxEffectMultiTex.obj
 0002:000051fc       ?FLAG@DxEffectMultiTex@@2KB 004831fc     EngineLib:DxEffectMultiTex.obj
 0002:00005200       ?TYPEID@DxEffectGlow@@2KB  00483200     EngineLib:DxEffectGlow.obj
 0002:00005204       ?VERSION@DxEffectGlow@@2KB 00483204     EngineLib:DxEffectGlow.obj
 0002:00005208       ?NAME@DxEffectGlow@@2QBDB  00483208     EngineLib:DxEffectGlow.obj
 0002:00005218       ?FLAG@DxEffectGlow@@2KB    00483218     EngineLib:DxEffectGlow.obj
 0002:0000521c       ?TYPEID@DxEffectLightMap@@2KB 0048321c     EngineLib:DxEffectLightMap.obj
 0002:00005220       ?VERSION@DxEffectLightMap@@2KB 00483220     EngineLib:DxEffectLightMap.obj
 0002:00005224       ?NAME@DxEffectLightMap@@2QBDB 00483224     EngineLib:DxEffectLightMap.obj
 0002:00005234       ?FLAG@DxEffectLightMap@@2KB 00483234     EngineLib:DxEffectLightMap.obj
 0002:00005238       ?TYPEID@DxEffectSpecReflect@@2KB 00483238     EngineLib:DxEffectSpecReflect.obj
 0002:0000523c       ?VERSION@DxEffectSpecReflect@@2KB 0048323c     EngineLib:DxEffectSpecReflect.obj
 0002:00005240       ?NAME@DxEffectSpecReflect@@2QBDB 00483240     EngineLib:DxEffectSpecReflect.obj
 0002:00005258       ?FLAG@DxEffectSpecReflect@@2KB 00483258     EngineLib:DxEffectSpecReflect.obj
 0002:0000525c       ?FVF@OBJECT@DxEffectNeon@@2KB 0048325c     EngineLib:DxEffectNeon.obj
 0002:00005260       ?FVF@OBJECTNORMAL@DxEffectNeon@@2KB 00483260     EngineLib:DxEffectNeon.obj
 0002:00005264       ?TYPEID@DxEffectNeon@@2KB  00483264     EngineLib:DxEffectNeon.obj
 0002:00005268       ?VERSION@DxEffectNeon@@2KB 00483268     EngineLib:DxEffectNeon.obj
 0002:0000526c       ?NAME@DxEffectNeon@@2QBDB  0048326c     EngineLib:DxEffectNeon.obj
 0002:00005290       ?FLAG@DxEffectNeon@@2KB    00483290     EngineLib:DxEffectNeon.obj
 0002:00005294       ?TYPEID@DxEffectSpecular2@@2KB 00483294     EngineLib:DxEffectSpecular2.obj
 0002:00005298       ?VERSION@DxEffectSpecular2@@2KB 00483298     EngineLib:DxEffectSpecular2.obj
 0002:0000529c       ?NAME@DxEffectSpecular2@@2QBDB 0048329c     EngineLib:DxEffectSpecular2.obj
 0002:000052b0       ?FLAG@DxEffectSpecular2@@2KB 004832b0     EngineLib:DxEffectSpecular2.obj
 0002:000052b4       ?TYPEID@DxEffectSpecular@@2KB 004832b4     EngineLib:DxEffectSpecular.obj
 0002:000052b8       ?VERSION@DxEffectSpecular@@2KB 004832b8     EngineLib:DxEffectSpecular.obj
 0002:000052bc       ?NAME@DxEffectSpecular@@2QBDB 004832bc     EngineLib:DxEffectSpecular.obj
 0002:000052d4       ?FLAG@DxEffectSpecular@@2KB 004832d4     EngineLib:DxEffectSpecular.obj
 0002:000052d8       ?FVF@PARTICLEVERTEX@DxEffectSpore@@2KB 004832d8     EngineLib:DxEffectSpore.obj
 0002:000052dc       ?TYPEID@DxEffectSpore@@2KB 004832dc     EngineLib:DxEffectSpore.obj
 0002:000052e0       ?VERSION@DxEffectSpore@@2KB 004832e0     EngineLib:DxEffectSpore.obj
 0002:000052e4       ?NAME@DxEffectSpore@@2QBDB 004832e4     EngineLib:DxEffectSpore.obj
 0002:000052f8       ?FLAG@DxEffectSpore@@2KB   004832f8     EngineLib:DxEffectSpore.obj
 0002:000052fc       ?MAX_LIFE@DxEffectSpore@@1MB 004832fc     EngineLib:DxEffectSpore.obj
 0002:00005300       ?MAX_VERTEX@DxEffectSpore@@1KB 00483300     EngineLib:DxEffectSpore.obj
 0002:00005304       ?FIREFLY_SIZE@DxEffectSpore@@1MB 00483304     EngineLib:DxEffectSpore.obj
 0002:00005308       __real@3cf5c28f            00483308     EngineLib:DxEffectSpore.obj
 0002:0000530c       __real@3e99999a            0048330c     EngineLib:DxEffectSpore.obj
 0002:00005310       __real@38000100            00483310     EngineLib:DxEffectSpore.obj
 0002:00005314       ?FVF@D3DWATER2VERTEX@DxEffectWater2@@2KB 00483314     EngineLib:DxEffectWater2.obj
 0002:00005318       ?TYPEID@DxEffectWater2@@2KB 00483318     EngineLib:DxEffectWater2.obj
 0002:0000531c       ?VERSION@DxEffectWater2@@2KB 0048331c     EngineLib:DxEffectWater2.obj
 0002:00005320       ?NAME@DxEffectWater2@@2QBDB 00483320     EngineLib:DxEffectWater2.obj
 0002:00005330       ?FLAG@DxEffectWater2@@2KB  00483330     EngineLib:DxEffectWater2.obj
 0002:00005334       ?FVF@D3DWATERVERTEX@DxEffectWater@@2KB 00483334     EngineLib:DxEffectWater.obj
 0002:00005338       ?TYPEID@DxEffectWater@@2KB 00483338     EngineLib:DxEffectWater.obj
 0002:0000533c       ?VERSION@DxEffectWater@@2KB 0048333c     EngineLib:DxEffectWater.obj
 0002:00005340       ?NAME@DxEffectWater@@2QBDB 00483340     EngineLib:DxEffectWater.obj
 0002:00005350       ?FLAG@DxEffectWater@@2KB   00483350     EngineLib:DxEffectWater.obj
 0002:00005354       ?TYPEID@DxEffectTiling@@2KB 00483354     EngineLib:DxEffectTiling.obj
 0002:00005358       ?VERSION@DxEffectTiling@@2KB 00483358     EngineLib:DxEffectTiling.obj
 0002:0000535c       ?NAME@DxEffectTiling@@2QBDB 0048335c     EngineLib:DxEffectTiling.obj
 0002:00005378       ?FLAG@DxEffectTiling@@2KB  00483378     EngineLib:DxEffectTiling.obj
 0002:0000537c       ?FVF@VERTEXCOLOR@DxEffectTiling@@2KB 0048337c     EngineLib:DxEffectTiling.obj
 0002:00005380       ?FVF@VERTEX@DxEffectWaterLight@@2KB 00483380     EngineLib:DxEffectWaterLight.obj
 0002:00005384       ?FVF@WATERVERTEX@DxEffectWaterLight@@2KB 00483384     EngineLib:DxEffectWaterLight.obj
 0002:00005388       ?TYPEID@DxEffectWaterLight@@2KB 00483388     EngineLib:DxEffectWaterLight.obj
 0002:0000538c       ?VERSION@DxEffectWaterLight@@2KB 0048338c     EngineLib:DxEffectWaterLight.obj
 0002:00005390       ?NAME@DxEffectWaterLight@@2QBDB 00483390     EngineLib:DxEffectWaterLight.obj
 0002:000053a8       ?FLAG@DxEffectWaterLight@@2KB 004833a8     EngineLib:DxEffectWaterLight.obj
 0002:000053ac       ?FVF@SHADOW_TEX1@DxEffectShadowLow@@2KB 004833ac     EngineLib:DxEffectShadowLow.obj
 0002:000053b0       ?FVF@SHADOW_TEX1_COLOR@DxEffectShadowLow@@2KB 004833b0     EngineLib:DxEffectShadowLow.obj
 0002:000053b4       ?FVF@SHADOW_TEX2@DxEffectShadowLow@@2KB 004833b4     EngineLib:DxEffectShadowLow.obj
 0002:000053b8       ?FVF@SHADOW_TEX2_COLOR@DxEffectShadowLow@@2KB 004833b8     EngineLib:DxEffectShadowLow.obj
 0002:000053bc       ?TYPEID@DxEffectShadowLow@@2KB 004833bc     EngineLib:DxEffectShadowLow.obj
 0002:000053c0       ?VERSION@DxEffectShadowLow@@2KB 004833c0     EngineLib:DxEffectShadowLow.obj
 0002:000053c4       ?NAME@DxEffectShadowLow@@2QBDB 004833c4     EngineLib:DxEffectShadowLow.obj
 0002:000053e0       ?FLAG@DxEffectShadowLow@@2KB 004833e0     EngineLib:DxEffectShadowLow.obj
 0002:000053e4       ?TYPEID@DxEffectShadow@@2KB 004833e4     EngineLib:DxEffectShadow.obj
 0002:000053e8       ?VERSION@DxEffectShadow@@2KB 004833e8     EngineLib:DxEffectShadow.obj
 0002:000053ec       ?NAME@DxEffectShadow@@2QBDB 004833ec     EngineLib:DxEffectShadow.obj
 0002:00005404       ?FLAG@DxEffectShadow@@2KB  00483404     EngineLib:DxEffectShadow.obj
 0002:00005408       ?FVF@PARTICLE@DxEffectNature@@2KB 00483408     EngineLib:DxEffectNature.obj
 0002:0000540c       ?FVF@PARTICLEPOINT@DxEffectNature@@2KB 0048340c     EngineLib:DxEffectNature.obj
 0002:00005410       ?TYPEID@DxEffectNature@@2KB 00483410     EngineLib:DxEffectNature.obj
 0002:00005414       ?VERSION@DxEffectNature@@2KB 00483414     EngineLib:DxEffectNature.obj
 0002:00005418       ?NAME@DxEffectNature@@2QBDB 00483418     EngineLib:DxEffectNature.obj
 0002:00005428       ?FLAG@DxEffectNature@@2KB  00483428     EngineLib:DxEffectNature.obj
 0002:0000542c       ?FVF@GRASSVERTEX@DxEffectGrass@@2KB 0048342c     EngineLib:DxEffectGrass.obj
 0002:00005430       ?TYPEID@DxEffectGrass@@2KB 00483430     EngineLib:DxEffectGrass.obj
 0002:00005434       ?VERSION@DxEffectGrass@@2KB 00483434     EngineLib:DxEffectGrass.obj
 0002:00005438       ?NAME@DxEffectGrass@@2QBDB 00483438     EngineLib:DxEffectGrass.obj
 0002:00005448       ?FLAG@DxEffectGrass@@2KB   00483448     EngineLib:DxEffectGrass.obj
 0002:0000544c       ?MAX_BASE@DxEffectGrass@@1KB 0048344c     EngineLib:DxEffectGrass.obj
 0002:00005450       ?MAX_OBJECTS@DxEffectGrass@@1KB 00483450     EngineLib:DxEffectGrass.obj
 0002:00005454       ?MAX_ALPHA_LENGTH@DxEffectGrass@@1MB 00483454     EngineLib:DxEffectGrass.obj
 0002:00005458       ?MAX_SEE_LENGTH@DxEffectGrass@@1MB 00483458     EngineLib:DxEffectGrass.obj
 0002:0000545c       ?TYPEID@DxEffectReflect@@2KB 0048345c     EngineLib:DxEffectReflect.obj
 0002:00005460       ?VERSION@DxEffectReflect@@2KB 00483460     EngineLib:DxEffectReflect.obj
 0002:00005464       ?NAME@DxEffectReflect@@2QBDB 00483464     EngineLib:DxEffectReflect.obj
 0002:0000547c       ?FLAG@DxEffectReflect@@2KB 0048347c     EngineLib:DxEffectReflect.obj
 0002:00005480       ?SEPARATELENGTH@DxEffectRainPoint@@1MB 00483480     EngineLib:DxEffectRainDrop.obj
 0002:00005484       ?MAX_OBJECT@DxEffectRainPoint@@1KB 00483484     EngineLib:DxEffectRainDrop.obj
 0002:00005488       ?MAX_OBJECT_LEAVES@DxEffectRainPoint@@1KB 00483488     EngineLib:DxEffectRainDrop.obj
 0002:0000548c       ?FVF@RAINRENDER@DxEffectRainPoint@@2KB 0048348c     EngineLib:DxEffectRainDrop.obj
 0002:00005490       ?FVF@LEAVESRENDER@DxEffectRainPoint@@2KB 00483490     EngineLib:DxEffectRainDrop.obj
 0002:00005494       ?FVF@SNOWRENDER@DxEffectRainPoint@@2KB 00483494     EngineLib:DxEffectRainDrop.obj
 0002:00005498       ?TYPEID@DxEffectRainPoint@@2KB 00483498     EngineLib:DxEffectRainDrop.obj
 0002:0000549c       ?VERSION@DxEffectRainPoint@@2KB 0048349c     EngineLib:DxEffectRainDrop.obj
 0002:000054a0       ?NAME@DxEffectRainPoint@@2QBDB 004834a0     EngineLib:DxEffectRainDrop.obj
 0002:000054b8       ?FLAG@DxEffectRainPoint@@2KB 004834b8     EngineLib:DxEffectRainDrop.obj
 0002:000054bc       ??_C@_08PELKPNGA@Rain?4dds?$AA@ 004834bc     EngineLib:DxEffectRainDrop.obj
 0002:000054c8       ?TYPEID@DxEffectFur@@2KB   004834c8     EngineLib:DxEffectFur.obj
 0002:000054cc       ?VERSION@DxEffectFur@@2KB  004834cc     EngineLib:DxEffectFur.obj
 0002:000054d0       ?NAME@DxEffectFur@@2QBDB   004834d0     EngineLib:DxEffectFur.obj
 0002:000054e4       ?FLAG@DxEffectFur@@2KB     004834e4     EngineLib:DxEffectFur.obj
 0002:000054e8       ?RAINDROP_MAXNUM@DxEffectRiver@@1KB 004834e8     EngineLib:DxEffectRiver.obj
 0002:000054ec       ?DEFAULT_SCALE@DxEffectRiver@@1MB 004834ec     EngineLib:DxEffectRiver.obj
 0002:000054f0       ?DEFAULT_SPEED@DxEffectRiver@@1MB 004834f0     EngineLib:DxEffectRiver.obj
 0002:000054f4       ?FVF@VERTEXCOLOR@DxEffectRiver@@2KB 004834f4     EngineLib:DxEffectRiver.obj
 0002:000054f8       ?FVF@D3DWAVETEX@DxEffectRiver@@2KB 004834f8     EngineLib:DxEffectRiver.obj
 0002:000054fc       ?TYPEID@DxEffectRiver@@2KB 004834fc     EngineLib:DxEffectRiver.obj
 0002:00005500       ?VERSION@DxEffectRiver@@2KB 00483500     EngineLib:DxEffectRiver.obj
 0002:00005504       ?NAME@DxEffectRiver@@2QBDB 00483504     EngineLib:DxEffectRiver.obj
 0002:00005524       ?FLAG@DxEffectRiver@@2KB   00483524     EngineLib:DxEffectRiver.obj
 0002:00005528       ?TYPEID@DxEffectDot3@@2KB  00483528     EngineLib:DxEffectDot3.obj
 0002:0000552c       ?VERSION@DxEffectDot3@@2KB 0048352c     EngineLib:DxEffectDot3.obj
 0002:00005530       ?NAME@DxEffectDot3@@2QBDB  00483530     EngineLib:DxEffectDot3.obj
 0002:0000554c       ?FLAG@DxEffectDot3@@2KB    0048354c     EngineLib:DxEffectDot3.obj
 0002:00005550       ?TYPEID@DxEffectCloth@@2KB 00483550     EngineLib:DxEffectCloth.obj
 0002:00005554       ?VERSION@DxEffectCloth@@2KB 00483554     EngineLib:DxEffectCloth.obj
 0002:00005558       ?NAME@DxEffectCloth@@2QBDB 00483558     EngineLib:DxEffectCloth.obj
 0002:0000556c       ?FLAG@DxEffectCloth@@2KB   0048356c     EngineLib:DxEffectCloth.obj
 0002:00005570       ?FVF@VERTEX@DxEffectRenderState@@2KB 00483570     EngineLib:DxEffectRenderState.obj
 0002:00005574       ?TYPEID@DxEffectRenderState@@2KB 00483574     EngineLib:DxEffectRenderState.obj
 0002:00005578       ?VERSION@DxEffectRenderState@@2KB 00483578     EngineLib:DxEffectRenderState.obj
 0002:0000557c       ?NAME@DxEffectRenderState@@2QBDB 0048357c     EngineLib:DxEffectRenderState.obj
 0002:00005594       ?FLAG@DxEffectRenderState@@2KB 00483594     EngineLib:DxEffectRenderState.obj
 0002:00005598       ?dwNumSphereVertex@EDITMESHS@@3KB 00483598     EngineLib:EditMeshs.obj
 0002:0000559c       ?dwNumSphereFaces@EDITMESHS@@3KB 0048359c     EngineLib:EditMeshs.obj
 0002:000055a0       ??_C@_04OODPLKPE@?4mtf?$AA@ 004835a0     EngineLib:TextureManager.obj
 0002:000055a8       ??_C@_0DB@KDMBHFOF@?$LO?P?C?$OA?G?X?A?V?$LM?$LM?$LP?d?5?$HM?$HM?5Format?5?3?5etc?4?4?4?5@ 004835a8     EngineLib:TextureManager.obj
 0002:000055dc       ??_C@_0DJ@LLPBLPJG@DXT1?0?5DXT5?5?A?$KE?G?X?A?V?$LM?$LM?$LP?d?4?5?$HM?$HM?5Format@ 004835dc     EngineLib:TextureManager.obj
 0002:00005618       ??_C@_0DJ@CGCNLEIF@DXT1?0?5DXT5?5?A?$KE?G?X?A?V?$LM?$LM?$LP?d?4?5?$HM?$HM?5Format@ 00483618     EngineLib:TextureManager.obj
 0002:00005654       ??_C@_0DJ@PBMPDENN@DXT1?0?5DXT5?5?A?$KE?G?X?A?V?$LM?$LM?$LP?d?4?5?$HM?$HM?5Format@ 00483654     EngineLib:TextureManager.obj
 0002:00005690       ??_C@_0DB@FIKFDJKM@?$LO?P?C?$OA?G?X?A?V?$LM?$LM?$LP?d?5?$HM?$HM?5Format?5?3?5R3G3B2?5@ 00483690     EngineLib:TextureManager.obj
 0002:000056c4       ??_C@_0DB@HCHCEHLI@?$LO?P?C?$OA?G?X?A?V?$LM?$LM?$LP?d?5?$HM?$HM?5Format?5?3?5R5G6B5?5@ 004836c4     EngineLib:TextureManager.obj
 0002:000056f8       ??_C@_0DB@NAANDFG@?$LO?P?C?$OA?G?X?A?V?$LM?$LM?$LP?d?5?$HM?$HM?5Format?5?3?5R8G8B8?5@ 004836f8     EngineLib:TextureManager.obj
 0002:0000572c       ??_C@_0DD@GIEONNNA@?$LO?P?C?$OA?G?X?A?V?$LM?$LM?$LP?d?5?$HM?$HM?5Format?5?3?5X4R4G4B@ 0048372c     EngineLib:TextureManager.obj
 0002:00005760       ??_C@_0DD@OFDDOODH@?$LO?P?C?$OA?G?X?A?V?$LM?$LM?$LP?d?5?$HM?$HM?5Format?5?3?5X1R5G5B@ 00483760     EngineLib:TextureManager.obj
 0002:00005794       ??_C@_0DD@GINPPLID@?$LO?P?C?$OA?G?X?A?V?$LM?$LM?$LP?d?5?$HM?$HM?5Format?5?3?5X8R8G8B@ 00483794     EngineLib:TextureManager.obj
 0002:000057c8       ??_C@_0CN@OOKOPLGF@?$LO?P?C?$OA?G?X?A?V?$LM?$LM?$LP?d?5?$HM?$HM?5Format?5?3?5A8?5?$HM?$HM?5?F@ 004837c8     EngineLib:TextureManager.obj
 0002:000057f8       ??_C@_0DD@CFBMMBCK@?$LO?P?C?$OA?G?X?A?V?$LM?$LM?$LP?d?5?$HM?$HM?5Format?5?3?5A8R3G3B@ 004837f8     EngineLib:TextureManager.obj
 0002:0000582c       ??_C@_0DD@HACIANID@?$LO?P?C?$OA?G?X?A?V?$LM?$LM?$LP?d?5?$HM?$HM?5Format?5?3?5A4R4G4B@ 0048382c     EngineLib:TextureManager.obj
 0002:00005860       ??_C@_0DD@PNFFDOGE@?$LO?P?C?$OA?G?X?A?V?$LM?$LM?$LP?d?5?$HM?$HM?5Format?5?3?5A1R5G5B@ 00483860     EngineLib:TextureManager.obj
 0002:00005894       ??_C@_0DD@HALJCLNA@?$LO?P?C?$OA?G?X?A?V?$LM?$LM?$LP?d?5?$HM?$HM?5Format?5?3?5A8R8G8B@ 00483894     EngineLib:TextureManager.obj
 0002:000058c8       ??_C@_04CMOMPIEM@_a2?4?$AA@ 004838c8     EngineLib:TextureManager.obj
 0002:000058d0       ??_C@_04COKKEGBF@_a1?4?$AA@ 004838d0     EngineLib:TextureManager.obj
 0002:000058d8       ??_C@_03PMHJHCM@_a?4?$AA@  004838d8     EngineLib:TextureManager.obj
 0002:000058dc       ??_C@_0CB@JNLOFDBI@release?5texture?5?$CILoading?$CJ?5?3?5?$DM?$CFs?$DO@ 004838dc     EngineLib:TextureManager.obj
 0002:00005900       ??_C@_0CC@HMMEGHAB@release?5texture?5?$CIComplete?$CJ?5?3?5?$DM?$CFs@ 00483900     EngineLib:TextureManager.obj
 0002:00005924       ??_C@_0CN@PJNAJEBP@ERROR?5?3?5TextureManager?3?3LoadText@ 00483924     EngineLib:TextureManager.obj
 0002:00005954       ??_7DXLIGHT@@6B@           00483954     EngineLib:DxLightMan.obj
 0002:0000595c       ??_C@_07EINEIMDP@UNNAMED?$AA@ 0048395c     EngineLib:DxLightMan.obj
 0002:00005964       __real@3db851ec            00483964     EngineLib:DxLightMan.obj
 0002:00005968       __real@3a11a2b4            00483968     EngineLib:DxLightMan.obj
 0002:0000596c       __real@44e10000            0048396c     EngineLib:DxLightMan.obj
 0002:00005970       ??_7DxLightMan@@6B@        00483970     EngineLib:DxLightMan.obj
 0002:00005984       ??_C@_0BE@ILHHNEMI@DIRECTIONAL?9?$FLNIGHT?$FN?$AA@ 00483984     EngineLib:DxLightMan.obj
 0002:00005998       ??_C@_0BD@EDANBFKH@DIRECTIONAL?9?$FLNOON?$FN?$AA@ 00483998     EngineLib:DxLightMan.obj
 0002:000059ac       ?FVF@VERTEX@DxSurfaceTex@@2KB 004839ac     EngineLib:DxSurfaceTex.obj
 0002:000059b0       ?POINTSHADOWVERTEX@DxSurfaceTex@@1KB 004839b0     EngineLib:DxSurfaceTex.obj
 0002:000059b4       ?POINTSHADOWFACES@DxSurfaceTex@@1KB 004839b4     EngineLib:DxSurfaceTex.obj
 0002:000059b8       ?EYE_TO_LOOKAT@DxSurfaceTex@@1MB 004839b8     EngineLib:DxSurfaceTex.obj
 0002:000059bc       ?VERSION@DxWeatherMan@@2KB 004839bc     EngineLib:DxWeatherMan.obj
 0002:000059c0       ??_7DxWeatherMan@@6B@      004839c0     EngineLib:DxWeatherMan.obj
 0002:000059dc       ?FVF@VERTEX@DxShadowMap@@2KB 004839dc     EngineLib:DxShadowMap.obj
 0002:000059e0       ?m_fRange@DxShadowMap@@1MB 004839e0     EngineLib:DxShadowMap.obj
 0002:000059e4       ?EYE_TO_LOOKAT@DxShadowMap@@1MB 004839e4     EngineLib:DxShadowMap.obj
 0002:000059ec       ?FVF@D3DWAVETEX@DxEnvironment@@2KB 004839ec     EngineLib:DxEnvironment.obj
 0002:000059f0       ?FVF@VERTEX@DxEnvironment@@2KB 004839f0     EngineLib:DxEnvironment.obj
 0002:000059f4       ?FVF@POS_DIFF_TEX1@DxEnvironment@@2KB 004839f4     EngineLib:DxEnvironment.obj
 0002:000059f8       ?FVF@VERTEX_POS_TEX1@DxEnvironment@@2KB 004839f8     EngineLib:DxEnvironment.obj
 0002:000059fc       ?FVF@D3DVERTEX@DxEffectRainPoint@@2KB 004839fc     EngineLib:DxEffectRainDropFireFly.obj
 0002:00005a00       ?MAX_FIREFLY@DxEffectRainPoint@@1KB 00483a00     EngineLib:DxEffectRainDropFireFly.obj
 0002:00005a04       ?RAINTIME@DxEffectRainPoint@@1MB 00483a04     EngineLib:DxEffectRainDropEx.obj
 0002:00005a08       ?RAINDROP_S@DxEffectRainPoint@@1MB 00483a08     EngineLib:DxEffectRainDropEx.obj
 0002:00005a0c       ?SNOWTIMEUP@DxEffectRainPoint@@1MB 00483a0c     EngineLib:DxEffectRainDropEx.obj
 0002:00005a10       ?SNOWTIMEDOWN@DxEffectRainPoint@@1MB 00483a10     EngineLib:DxEffectRainDropEx.obj
 0002:00005a14       ?SNOWTIMEALPHA@DxEffectRainPoint@@1MB 00483a14     EngineLib:DxEffectRainDropEx.obj
 0002:00005a18       ?LEAVESTIMEUP@DxEffectRainPoint@@1MB 00483a18     EngineLib:DxEffectRainDropEx.obj
 0002:00005a1c       ?LEAVESTIMEDOWN@DxEffectRainPoint@@1MB 00483a1c     EngineLib:DxEffectRainDropEx.obj
 0002:00005a20       ?LEAVESTIMEALPHA@DxEffectRainPoint@@1MB 00483a20     EngineLib:DxEffectRainDropEx.obj
 0002:00005a24       ?FVF@VERTEXCOLOR@DXRAINDROPMAN@@2KB 00483a24     EngineLib:DxEffectRiverRainDrop.obj
 0002:00005a28       ?sm_alog@CRijndael@@0QBHB  00483a28     EngineLib:Rijndael.obj
 0002:00005e28       ?sm_log@CRijndael@@0QBHB   00483e28     EngineLib:Rijndael.obj
 0002:00006228       ?sm_S@CRijndael@@0QBDB     00484228     EngineLib:Rijndael.obj
 0002:00006328       ?sm_Si@CRijndael@@0QBDB    00484328     EngineLib:Rijndael.obj
 0002:00006428       ?sm_T1@CRijndael@@0QBHB    00484428     EngineLib:Rijndael.obj
 0002:00006828       ?sm_T2@CRijndael@@0QBHB    00484828     EngineLib:Rijndael.obj
 0002:00006c28       ?sm_T3@CRijndael@@0QBHB    00484c28     EngineLib:Rijndael.obj
 0002:00007028       ?sm_T4@CRijndael@@0QBHB    00485028     EngineLib:Rijndael.obj
 0002:00007428       ?sm_T5@CRijndael@@0QBHB    00485428     EngineLib:Rijndael.obj
 0002:00007828       ?sm_T6@CRijndael@@0QBHB    00485828     EngineLib:Rijndael.obj
 0002:00007c28       ?sm_T7@CRijndael@@0QBHB    00485c28     EngineLib:Rijndael.obj
 0002:00008028       ?sm_T8@CRijndael@@0QBHB    00486028     EngineLib:Rijndael.obj
 0002:00008428       ?sm_U1@CRijndael@@0QBHB    00486428     EngineLib:Rijndael.obj
 0002:00008828       ?sm_U2@CRijndael@@0QBHB    00486828     EngineLib:Rijndael.obj
 0002:00008c28       ?sm_U3@CRijndael@@0QBHB    00486c28     EngineLib:Rijndael.obj
 0002:00009028       ?sm_U4@CRijndael@@0QBHB    00487028     EngineLib:Rijndael.obj
 0002:00009428       ?sm_rcon@CRijndael@@0QBDB  00487428     EngineLib:Rijndael.obj
 0002:00009448       ?sm_shifts@CRijndael@@0QAY131$$CBHA 00487448     EngineLib:Rijndael.obj
 0002:000094a8       ?sm_chain0@CRijndael@@2QBDB 004874a8     EngineLib:Rijndael.obj
 0002:000094c8       ?sm_KeyLength@CRijndael@@2QBKB 004874c8     EngineLib:Rijndael.obj
 0002:000094d4       ??_7CRijndael@@6B@         004874d4     EngineLib:Rijndael.obj
 0002:000094f0       ??_C@_08JKDDDAD@?$CFd?$CFd?$CFd?$CFd?$AA@ 004874f0     EngineLib:Rijndael.obj
 0002:000094fc       ??_C@_08COPJELP@RIJNDAEL?$AA@ 004874fc     EngineLib:Rijndael.obj
 0002:00009508       ??_7runtime_error@std@@6B@ 00487508     EngineLib:Rijndael.obj
 0002:00009510       ??_C@_0BE@JIPANLEJ@Illegal?5Key?5Length?$CB?$AA@ 00487510     EngineLib:Rijndael.obj
 0002:00009524       ??_C@_01DCLJPIOD@?$CB?$AA@ 00487524     EngineLib:Rijndael.obj
 0002:00009528       ??_C@_0CB@BDCEFDCJ@skrkrhtlvdj?$CB?$EA?$CDwpfrmfjgrpgo?$CB?$EA?$CD$qk@ 00487528     EngineLib:Rijndael.obj
 0002:0000954c       ??_C@_0BB@FHAKKBHP@0in123joydn11ps9?$AA@ 0048754c     EngineLib:Rijndael.obj
 0002:00009560       ??_C@_0BB@OJEBFNJI@fjiw239rnisf9342?$AA@ 00487560     EngineLib:Rijndael.obj
 0002:00009574       ?VERSION@DXLANDSKINOBJ@@2KB 00487574     EngineLib:DXLANDSKINOBJ.obj
 0002:00009578       ?VERSION@DxStaticMesh@@1KB 00487578     EngineLib:DxStaticMesh.obj
 0002:0000957c       ?VERSION_PSF@DxPieceManager@@0KB 0048757c     EngineLib:DxPieceManager.obj
 0002:00009580       ?VERSION_WLD@DxPieceManager@@0KB 00487580     EngineLib:DxPieceManager.obj
 0002:00009584       ?VERSION@DxCameraAni@@2KB  00487584     EngineLib:DxCamAniMan.obj
 0002:00009588       ??_C@_0BL@ONADMOGG@Texture?5File?5Decrypt?5Error?$AA@ 00487588     EngineLib:MemoryTexture.obj
 0002:000095a4       ??_C@_0BI@FFPKPFBD@Texture?5File?5Open?5Error?$AA@ 004875a4     EngineLib:MemoryTexture.obj
 0002:000095bc       ?RAIN_TURN_TIME@DxEffectRain@@1MB 004875bc     EngineLib:DxWeatherManEx.obj
 0002:000095c0       ?RAIN_WIDTH_SCALE@DxEffectRain@@1MB 004875c0     EngineLib:DxWeatherManEx.obj
 0002:000095c4       ?VERSION@DxEffectRain@@2KB 004875c4     EngineLib:DxWeatherManEx.obj
 0002:000095c8       ?FVF@VERTEX@DxEffectRain@@2KB 004875c8     EngineLib:DxWeatherManEx.obj
 0002:000095cc       ?FVF@CLOUDSHADOW@DxEffectCloud@@2KB 004875cc     EngineLib:DxWeatherManEx.obj
 0002:000095d0       ?VERSION@DxEffectCloud@@2KB 004875d0     EngineLib:DxWeatherManEx.obj
 0002:000095d4       ??_7DxEffectRain@@6B@      004875d4     EngineLib:DxWeatherManEx.obj
 0002:000095d8       ??_C@_07JACCJKML@thunder?$AA@ 004875d8     EngineLib:DxWeatherManEx.obj
 0002:000095e0       ??_C@_04IFCNJNKN@rain?$AA@ 004875e0     EngineLib:DxWeatherManEx.obj
 0002:000095e8       ??_7DxEffectCloud@@6B@     004875e8     EngineLib:DxWeatherManEx.obj
 0002:000095ec       __real@411ccccd            004875ec     EngineLib:DxWeatherManEx.obj
 0002:000095f0       ??_C@_0DF@JGIHFOGI@DxEffectRain?3?3FrameMove?$CI?$CJ?5?9?9?5m_p@ 004875f0     EngineLib:DxWeatherManEx.obj
 0002:00009628       __real@3ccccccd            00487628     EngineLib:DxWeatherManEx.obj
 0002:0000962c       ??_C@_0N@ECAHKFEC@04000349?4wav?$AA@ 0048762c     EngineLib:DxWeatherManEx.obj
 0002:0000963c       ??_C@_0N@OKILEDNN@04000328?4wav?$AA@ 0048763c     EngineLib:DxWeatherManEx.obj
 0002:0000964c       ??_C@_0DN@HDLKPMDF@DxEffectRain?3?3InitDeviceObjects?$CI@ 0048764c     EngineLib:DxWeatherManEx.obj
 0002:0000968c       ??_C@_0DN@HEELGBPH@DxEffectRain?3?3InitDeviceObjects?$CI@ 0048768c     EngineLib:DxWeatherManEx.obj
 0002:000096d0       ??_C@_0ED@FMALEKK@DxEffectRain?3?3InitDeviceObjects?$CI@ 004876d0     EngineLib:DxWeatherManEx.obj
 0002:00009718       ??_C@_0EE@JNPMFJFK@DxEffectRain?3?3InitDeviceObjects?$CI@ 00487718     EngineLib:DxWeatherManEx.obj
 0002:0000975c       ??_C@_09FIEFCLLG@eff02?4tga?$AA@ 0048775c     EngineLib:DxWeatherManEx.obj
 0002:00009768       ?SNOW_TURN_TIME@DxEffectSnow@@1MB 00487768     EngineLib:DxWeatherManSnow.obj
 0002:0000976c       ?VERSION@DxEffectSnow@@2KB 0048776c     EngineLib:DxWeatherManSnow.obj
 0002:00009770       ?LEAVES_TURN_TIME@DxEffectLeaves@@1MB 00487770     EngineLib:DxWeatherManSnow.obj
 0002:00009774       ?VERSION@DxEffectLeaves@@2KB 00487774     EngineLib:DxWeatherManSnow.obj
 0002:00009778       ??_7DxEffectSnow@@6B@      00487778     EngineLib:DxWeatherManSnow.obj
 0002:0000977c       __real@3d088889            0048777c     EngineLib:DxWeatherManSnow.obj
 0002:00009780       ??_7DxEffectLeaves@@6B@    00487780     EngineLib:DxWeatherManSnow.obj
 0002:00009784       ?VERSION@DxAABBOctree@@1KB 00487784     EngineLib:NsOCTreeSaveLoad.obj
 0002:00009788       ?VERSION@DxSingleTexMesh@@1KB 00487788     EngineLib:NsOCTreeSaveLoad.obj
 0002:0000978c       ?TYPEID@DxTexEffSpecular@@2KB 0048778c     EngineLib:DxTexEffSpecular.obj
 0002:00009790       ?VERSION@DxTexEffSpecular@@2KB 00487790     EngineLib:DxTexEffSpecular.obj
 0002:00009794       ?NAME@DxTexEffSpecular@@2QBDB 00487794     EngineLib:DxTexEffSpecular.obj
 0002:000097a4       ?TYPEID@DxTexEffRotate@@2KB 004877a4     EngineLib:DxTexEffRotate.obj
 0002:000097a8       ?VERSION@DxTexEffRotate@@2KB 004877a8     EngineLib:DxTexEffRotate.obj
 0002:000097ac       ?NAME@DxTexEffRotate@@2QBDB 004877ac     EngineLib:DxTexEffRotate.obj
 0002:000097bc       ?TYPEID@DxTexEffFlowUV@@2KB 004877bc     EngineLib:DxTexEffFlowUV.obj
 0002:000097c0       ?VERSION@DxTexEffFlowUV@@2KB 004877c0     EngineLib:DxTexEffFlowUV.obj
 0002:000097c4       ?NAME@DxTexEffFlowUV@@2QBDB 004877c4     EngineLib:DxTexEffFlowUV.obj
 0002:000097d0       ?TYPEID@DxTexEffDiffuse@@2KB 004877d0     EngineLib:DxTexEffDiffuse.obj
 0002:000097d4       ?VERSION@DxTexEffDiffuse@@2KB 004877d4     EngineLib:DxTexEffDiffuse.obj
 0002:000097d8       ?NAME@DxTexEffDiffuse@@2QBDB 004877d8     EngineLib:DxTexEffDiffuse.obj
 0002:000097ec       ??_C@_0BJ@KIJMKPKH@?$FLFILE?3?$CFs?0?5SECTION?3?$CFs?$FN?6?$CFs?$AA@ 004877ec     EngineLib:IniLoader.obj
 0002:00009808       ??_C@_0CB@IGNGACEI@?$FLFILE?3?$CFs?0?5SECTION?3?$CFs?0?5KEY?3?$CFs?$FN?6?$CFs@ 00487808     EngineLib:IniLoader.obj
 0002:0000982c       ??_C@_0CA@BFLIJBBB@A?5Section?5which?5does?5not?5exist?4?$AA@ 0048782c     EngineLib:IniLoader.obj
 0002:0000984c       ??_C@_0CB@GNBIGLOD@It?5was?5wrong?5size?5of?5Input?5Data?4@ 0048784c     EngineLib:IniLoader.obj
 0002:00009870       ??_C@_02OJDBNLEE@?5?7?$AA@ 00487870     EngineLib:IniLoader.obj
 0002:00009874       ??_C@_01NEMOKFLO@?$DN?$AA@ 00487874     EngineLib:IniLoader.obj
 0002:00009878       ??_C@_0BM@CKECJKOF@The?5Section?5already?5exists?4?$AA@ 00487878     EngineLib:IniLoader.obj
 0002:00009894       ??_C@_0CJ@FGCDILFA@ERROR?5?3?5CIniLoader?3?3open?$CI?$CJ?0?5File@ 00487894     EngineLib:IniLoader.obj
 0002:00009980       ?FVF@VERTEX@DxCubeMap@@2KB 00487980     EngineLib:DxCubeMap.obj
 0002:00009984       ?FVF@SKYBOXVERTEX@DxCubeMap@@2KB 00487984     EngineLib:DxCubeMap.obj
 0002:00009988       ?VERSION@DxLandMan@@2KB    00487988     EngineLib:DxLandManSaveLoad.obj
 0002:00009990       ?FILEMARK@DxLandMan@@2QBDB 00487990     EngineLib:DxLandManSaveLoad.obj
 0002:00009a10       ??_C@_0CA@EBCMLHAE@?5cannot?5be?5Correctly?5Decrypted?$CB?$AA@ 00487a10     EngineLib:Method.obj
 0002:00009a30       ??_C@_0BH@DPFFPFJM@FileCrypt?5ERROR?3?5File?5?$AA@ 00487a30     EngineLib:Method.obj
 0002:00009a48       ??_C@_0DF@HMFJDCDC@FileCrypt?5ERROR?3?5The?5same?5File?5f@ 00487a48     EngineLib:Method.obj
 0002:00009a80       ??_C@_0CD@NPBNFELC@FileCrypt?5ERROR?3?5Cannot?5open?5Fil@ 00487a80     EngineLib:Method.obj
 0002:00009aa4       ??_C@_0BE@LJOIGOND@Illegal?5Block?5Size?$CB?$AA@ 00487aa4     EngineLib:Method.obj
 0002:00009ab8       ??_C@_0DA@MAEEOKDM@FileCrypt?5ERROR?3?5Key?5Data?5Length@ 00487ab8     EngineLib:Method.obj
 0002:00009ae8       ??_C@_0CH@OOHEGNGA@FileCrypt?5ERROR?3?5No?5Key?5DataSpec@ 00487ae8     EngineLib:Method.obj
 0002:00009b10       ??_C@_0CH@EAGOAKEC@FileCrypt?5ERROR?3?5Illegal?5Padding@ 00487b10     EngineLib:Method.obj
 0002:00009b38       ??_C@_0CJ@KKHEIPAM@FileCrypt?5ERROR?3?5Illegal?5Operati@ 00487b38     EngineLib:Method.obj
 0002:00009b64       ??_C@_0DP@PALFHHIB@FileCrypt?5ERROR?3?5Encryption?1Decr@ 00487b64     EngineLib:Method.obj
 0002:00009ba4       ??_7IMethod@@6B@           00487ba4     EngineLib:Method.obj
 0002:00009bc0       ?sm_K256@CSHA@@0QBIB       00487bc0     EngineLib:Sha.obj
 0002:00009cc0       ?sm_H256@CSHA@@0QBIB       00487cc0     EngineLib:Sha.obj
 0002:00009ce0       ??_C@_0EA@DFGDLGPN@FileCrypt?5ERROR?3?5in?5CSHA?3?3AddDat@ 00487ce0     EngineLib:Sha.obj
 0002:00009d20       ??_C@_0EE@FEPODNFA@FileCrypt?5ERROR?3?5in?5CSHA?3?3FinalD@ 00487d20     EngineLib:Sha.obj
 0002:00009d64       ??_C@_0DO@IEHHAFPL@CDoubleBuffering?3?5Referenced?5Fil@ 00487d64     EngineLib:DoubleBuffering.obj
 0002:00009da4       ??_C@_0CN@BPMDLJH@CDoubleBuffering?3?5Illegal?5Constr@ 00487da4     EngineLib:DoubleBuffering.obj
 0002:00009dd4       ??_C@_0DB@PDBFNGKD@CDoubleBuffering?3?5m_iSize?5should@ 00487dd4     EngineLib:DoubleBuffering.obj
 0002:00009e08       ??_C@_0CP@ILOJAMHC@CDoubleBuffering?3?3GetData?$CI?$CJ?3?5Ill@ 00487e08     EngineLib:DoubleBuffering.obj
 0002:00009e38       ?FILEVERSION@EFF_PROPGROUP@@2KB 00487e38     EngineLib:DxEffSinglePropGMan.obj
 0002:00009e3c       ?VERSION@EFF_PROPGROUP@@2KB 00487e3c     EngineLib:DxEffSinglePropGMan.obj
 0002:00009e40       ?VERTEXNUM@DxSkyBase@@0IB  00487e40     EngineLib:DxSkyBase.obj
 0002:00009e44       ?FACESNUM@DxSkyBase@@0IB   00487e44     EngineLib:DxSkyBase.obj
 0002:00009e48       ?SKY_NUM@DxSkyBaseMan@@0KB 00487e48     EngineLib:DxSkyBase.obj
 0002:00009e4c       ?CLOUD_NUM@DxSkyCloudMan@@0KB 00487e4c     EngineLib:DxSkyCloud.obj
 0002:00009e50       ?FVF@VERTEX@DxGlowMan@@2KB 00487e50     EngineLib:DxGlowMan.obj
 0002:00009e54       ?FVF@VERTEXCOLOR@DxGlowMan@@2KB 00487e54     EngineLib:DxGlowMan.obj
 0002:00009e58       ?VERSION@MOVETARGET_PROPERTY@@2KB 00487e58     EngineLib:DxEffectMoveTarget.obj
 0002:00009e5c       ?NAME@MOVETARGET_PROPERTY@@2QBDB 00487e5c     EngineLib:DxEffectMoveTarget.obj
 0002:00009e6c       ?TYPEID@DxEffectMoveTarget@@2KB 00487e6c     EngineLib:DxEffectMoveTarget.obj
 0002:00009e70       ?FLAG@DxEffectMoveTarget@@2KB 00487e70     EngineLib:DxEffectMoveTarget.obj
 0002:00009e74       ?NAME@DxEffectMoveTarget@@2QBDB 00487e74     EngineLib:DxEffectMoveTarget.obj
 0002:00009e84       ?VERSION@POINTLIGHT_PROPERTY@@2KB 00487e84     EngineLib:DxEffectPointLight.obj
 0002:00009e88       ?NAME@POINTLIGHT_PROPERTY@@2QBDB 00487e88     EngineLib:DxEffectPointLight.obj
 0002:00009e94       ?TYPEID@DxEffectPointLight@@2KB 00487e94     EngineLib:DxEffectPointLight.obj
 0002:00009e98       ?FLAG@DxEffectPointLight@@2KB 00487e98     EngineLib:DxEffectPointLight.obj
 0002:00009e9c       ?NAME@DxEffectPointLight@@2QBDB 00487e9c     EngineLib:DxEffectPointLight.obj
 0002:00009ea8       ?VERSION@WAVE_PROPERTY@@2KB 00487ea8     EngineLib:DxEffectWave.obj
 0002:00009eac       ?NAME@WAVE_PROPERTY@@2QBDB 00487eac     EngineLib:DxEffectWave.obj
 0002:00009eb4       ?TYPEID@DxEffectWave@@2KB  00487eb4     EngineLib:DxEffectWave.obj
 0002:00009eb8       ?FLAG@DxEffectWave@@2KB    00487eb8     EngineLib:DxEffectWave.obj
 0002:00009ebc       ?NAME@DxEffectWave@@2QBDB  00487ebc     EngineLib:DxEffectWave.obj
 0002:00009ec4       ?FVF@D3DVERTEX@DxEffectWave@@2KB 00487ec4     EngineLib:DxEffectWave.obj
 0002:00009ec8       ?VERSION@SKINMESH_PROPERTY@@2KB 00487ec8     EngineLib:DxEffectSkinMesh.obj
 0002:00009ecc       ?NAME@SKINMESH_PROPERTY@@2QBDB 00487ecc     EngineLib:DxEffectSkinMesh.obj
 0002:00009edc       ?TYPEID@DxEffectSkinMesh@@2KB 00487edc     EngineLib:DxEffectSkinMesh.obj
 0002:00009ee0       ?FLAG@DxEffectSkinMesh@@2KB 00487ee0     EngineLib:DxEffectSkinMesh.obj
 0002:00009ee4       ?NAME@DxEffectSkinMesh@@2QBDB 00487ee4     EngineLib:DxEffectSkinMesh.obj
 0002:00009ef4       ?VERSION@MOVEROTATE_PROPERTY@@2KB 00487ef4     EngineLib:DxEffectMoveRotate.obj
 0002:00009ef8       ?NAME@MOVEROTATE_PROPERTY@@2QBDB 00487ef8     EngineLib:DxEffectMoveRotate.obj
 0002:00009f08       ?TYPEID@DxEffectMoveRotate@@2KB 00487f08     EngineLib:DxEffectMoveRotate.obj
 0002:00009f0c       ?FLAG@DxEffectMoveRotate@@2KB 00487f0c     EngineLib:DxEffectMoveRotate.obj
 0002:00009f10       ?NAME@DxEffectMoveRotate@@2QBDB 00487f10     EngineLib:DxEffectMoveRotate.obj
 0002:00009f20       ?VERSION@LIGHTNING_PROPERTY@@2KB 00487f20     EngineLib:DxEffectLighting.obj
 0002:00009f24       ?NAME@LIGHTNING_PROPERTY@@2QBDB 00487f24     EngineLib:DxEffectLighting.obj
 0002:00009f2c       ?TYPEID@DxEffectLightning@@2KB 00487f2c     EngineLib:DxEffectLighting.obj
 0002:00009f30       ?FLAG@DxEffectLightning@@2KB 00487f30     EngineLib:DxEffectLighting.obj
 0002:00009f34       ?NAME@DxEffectLightning@@2QBDB 00487f34     EngineLib:DxEffectLighting.obj
 0002:00009f3c       ?FVF@D3DVERTEX@DxEffectLightning@@2KB 00487f3c     EngineLib:DxEffectLighting.obj
 0002:00009f40       ?VERSION@BLURSYS_PROPERTY@@2KB 00487f40     EngineLib:DxEffectBlurSys.obj
 0002:00009f44       ?NAME@BLURSYS_PROPERTY@@2QBDB 00487f44     EngineLib:DxEffectBlurSys.obj
 0002:00009f4c       ?TYPEID@DxEffectBlurSys@@2KB 00487f4c     EngineLib:DxEffectBlurSys.obj
 0002:00009f50       ?FLAG@DxEffectBlurSys@@2KB 00487f50     EngineLib:DxEffectBlurSys.obj
 0002:00009f54       ?NAME@DxEffectBlurSys@@2QBDB 00487f54     EngineLib:DxEffectBlurSys.obj
 0002:00009f5c       ?VERSION@CAMERA_PROPERTY@@2KB 00487f5c     EngineLib:DxEffectCamera.obj
 0002:00009f60       ?NAME@CAMERA_PROPERTY@@2QBDB 00487f60     EngineLib:DxEffectCamera.obj
 0002:00009f68       ?TYPEID@DxEffectCamera@@2KB 00487f68     EngineLib:DxEffectCamera.obj
 0002:00009f6c       ?FLAG@DxEffectCamera@@2KB  00487f6c     EngineLib:DxEffectCamera.obj
 0002:00009f70       ?NAME@DxEffectCamera@@2QBDB 00487f70     EngineLib:DxEffectCamera.obj
 0002:00009f78       ?VERSION@DECAL_PROPERTY@@2KB 00487f78     EngineLib:DxEffectDecal.obj
 0002:00009f7c       ?NAME@DECAL_PROPERTY@@2QBDB 00487f7c     EngineLib:DxEffectDecal.obj
 0002:00009f8c       ?TYPEID@DxEffectDecal@@2KB 00487f8c     EngineLib:DxEffectDecal.obj
 0002:00009f90       ?FLAG@DxEffectDecal@@2KB   00487f90     EngineLib:DxEffectDecal.obj
 0002:00009f94       ?NAME@DxEffectDecal@@2QBDB 00487f94     EngineLib:DxEffectDecal.obj
 0002:00009fa4       ?FVF@D3DDECALVERTEX@DxEffectDecal@@2KB 00487fa4     EngineLib:DxEffectDecal.obj
 0002:00009fa8       ?MAX_VERTICES@DxEffectDecal@@1KB 00487fa8     EngineLib:DxEffectDecal.obj
 0002:00009fac       ?VERSION@SEQUENCE_PROPERTY@@2KB 00487fac     EngineLib:DxEffectSequence.obj
 0002:00009fb0       ?NAME@SEQUENCE_PROPERTY@@2QBDB 00487fb0     EngineLib:DxEffectSequence.obj
 0002:00009fb8       ?TYPEID@DxEffectSequence@@2KB 00487fb8     EngineLib:DxEffectSequence.obj
 0002:00009fbc       ?FLAG@DxEffectSequence@@2KB 00487fbc     EngineLib:DxEffectSequence.obj
 0002:00009fc0       ?NAME@DxEffectSequence@@2QBDB 00487fc0     EngineLib:DxEffectSequence.obj
 0002:00009fc8       ?TYPEID@DxEffectMesh@@2KB  00487fc8     EngineLib:DxEffectMesh.obj
 0002:00009fcc       ?FLAG@DxEffectMesh@@2KB    00487fcc     EngineLib:DxEffectMesh.obj
 0002:00009fd0       ?NAME@DxEffectMesh@@2QBDB  00487fd0     EngineLib:DxEffectMesh.obj
 0002:00009fdc       ?VERSION@GROUND_PROPERTY@@2KB 00487fdc     EngineLib:DxEffectGround.obj
 0002:00009fe0       ?NAME@GROUND_PROPERTY@@2QBDB 00487fe0     EngineLib:DxEffectGround.obj
 0002:00009ff0       ?TYPEID@DxEffectGround@@2KB 00487ff0     EngineLib:DxEffectGround.obj
 0002:00009ff4       ?FLAG@DxEffectGround@@2KB  00487ff4     EngineLib:DxEffectGround.obj
 0002:00009ff8       ?NAME@DxEffectGround@@2QBDB 00487ff8     EngineLib:DxEffectGround.obj
 0002:0000a008       ?m_strParticle@DxEffectParticleSys@@1QBDB 00488008     EngineLib:DxEffectParticleSys.obj
 0002:0000a160       ?m_dwParticleVertexShader@DxEffectParticleSys@@1QBKB 00488160     EngineLib:DxEffectParticleSys.obj
 0002:0000a2cc       ?TYPEID@DxEffectParticleSys@@2KB 004882cc     EngineLib:DxEffectParticleSys.obj
 0002:0000a2d0       ?FLAG@DxEffectParticleSys@@2KB 004882d0     EngineLib:DxEffectParticleSys.obj
 0002:0000a2d4       ?NAME@DxEffectParticleSys@@2QBDB 004882d4     EngineLib:DxEffectParticleSys.obj
 0002:0000a2dc       ?FVF@D3DPARTICLEVERTEX@DxEffectParticleSys@@2KB 004882dc     EngineLib:DxEffectParticleSys.obj
 0002:0000a2e0       ?FVF@D3DVERTEX@DxEffectParticleSys@@2KB 004882e0     EngineLib:DxEffectParticleSys.obj
 0002:0000a2e4       ?MIN_SPEED@DxEffectParticleSys@@1MB 004882e4     EngineLib:DxEffectParticleSys.obj
 0002:0000a2e8       ?MIN_LIFETIME@DxEffectParticleSys@@1MB 004882e8     EngineLib:DxEffectParticleSys.obj
 0002:0000a2ec       ?MIN_SIZE@DxEffectParticleSys@@1MB 004882ec     EngineLib:DxEffectParticleSys.obj
 0002:0000a2f0       ?MIN_GRAVITY@DxEffectParticleSys@@1MB 004882f0     EngineLib:DxEffectParticleSys.obj
 0002:0000a2f4       ?MIN_ALPHA@DxEffectParticleSys@@1MB 004882f4     EngineLib:DxEffectParticleSys.obj
 0002:0000a2f8       ?MAX_SPEED@DxEffectParticleSys@@1MB 004882f8     EngineLib:DxEffectParticleSys.obj
 0002:0000a2fc       ?MAX_LIFETIME@DxEffectParticleSys@@1MB 004882fc     EngineLib:DxEffectParticleSys.obj
 0002:0000a300       ?MAX_SIZE@DxEffectParticleSys@@1MB 00488300     EngineLib:DxEffectParticleSys.obj
 0002:0000a304       ?MAX_GRAVITY@DxEffectParticleSys@@1MB 00488304     EngineLib:DxEffectParticleSys.obj
 0002:0000a308       ?MAX_ALPHA@DxEffectParticleSys@@1MB 00488308     EngineLib:DxEffectParticleSys.obj
 0002:0000a30c       ?_SCALEFACT_PAR@DxEffectParticleSys@@1MB 0048830c     EngineLib:DxEffectParticleSys.obj
 0002:0000a310       ?MAX_PARTICLES@DxEffectParticleSys@@1KB 00488310     EngineLib:DxEffectParticleSys.obj
 0002:0000a314       ?VERSION@CTextureSetDXT@@0KB 00488314     EngineLib:TextureSetDXT.obj
 0002:0000a318       ?VERSION@DxPieceEdit@@1KB  00488318     EngineLib:DxPieceContainer.obj
 0002:0000a31c       ?FVF@OCTREEVERTEX@@2KB     0048831c     EngineLib:DxCustomTypes.obj
 0002:0000a320       ?FVF@DIFFUSEVERTEX@@2KB    00488320     EngineLib:DxCustomTypes.obj
 0002:0000a3e8       ?VERSION@DxSkinPiece@@2KB  004883e8     EngineLib:DxSkinPieceContainer.obj
 0002:0000a3f0       ?m_szPIECETYPE@DxSkinPiece@@2QAY0EA@$$CBDA 004883f0     EngineLib:DxSkinPieceContainer.obj
 0002:0000a730       ??_C@_01GPOEFGEJ@?7?$AA@   00488730     EngineLib:DxBoneCollector.obj
 0002:0000a734       ??_7CStringFile@@6B@       00488734     EngineLib:StringFile.obj
 0002:0000a74c       ??_C@_05LJDNNBIK@param?$AA@ 0048874c     EngineLib:StringFile.obj
 0002:0000a754       ??_C@_09CCIDDFAN@Warning?5?$CB?$AA@ 00488754     EngineLib:StringFile.obj
 0002:0000a760       ??_C@_0EJ@BMJAIHBO@CStringFile?3?3m_pBuffer?5Not?5enoug@ 00488760     EngineLib:StringFile.obj
 0002:0000a7ac       ??_7CStringMemory@@6B@     004887ac     EngineLib:StringMemory.obj
 0002:0000a7c8       ??_C@_0EL@GDGDHPM@CStringMemory?3?3m_pBuffer?5Not?5eno@ 004887c8     EngineLib:StringMemory.obj
 0002:0000a814       ??_7CUnzipper@@6B@         00488814     EngineLib:Unzipper.obj
 0002:0000a818       ??_C@_06FILHIEBP@tkqwlf?$AA@ 00488818     EngineLib:Unzipper.obj
 0002:0000a820       ??_C@_04GEBOHHDM@?C?$KE?A?$PN?$AA@ 00488820     EngineLib:DxSkinAniMan.obj
 0002:0000a828       ??_C@_0O@PDJACMCB@?$LN?$LK?E?$LD?5?9Skill?9E?$AA@ 00488828     EngineLib:DxSkinAniMan.obj
 0002:0000a838       ??_C@_0O@OKILBNGA@?$LN?$LK?E?$LD?5?9Skill?9D?$AA@ 00488838     EngineLib:DxSkinAniMan.obj
 0002:0000a848       ??_C@_0O@KFMKILKH@?$LN?$LK?E?$LD?5?9Skill?9C?$AA@ 00488848     EngineLib:DxSkinAniMan.obj
 0002:0000a858       ??_C@_0O@LMNBLKOG@?$LN?$LK?E?$LD?5?9Skill?9B?$AA@ 00488858     EngineLib:DxSkinAniMan.obj
 0002:0000a868       ??_C@_0BB@OFMHDAKI@?F?$KP?$LM?v?5?9Speciality?$AA@ 00488868     EngineLib:DxSkinAniMan.obj
 0002:0000a87c       ??_C@_0BI@GIJJGCNK@?$LE?k?$LH?C?$FL?F?P?$LJ?h?$FN?5?9Fight?$FLlose?$FN?$AA@ 0048887c     EngineLib:DxSkinAniMan.obj
 0002:0000a894       ??_C@_0BH@NBIKKKIO@?$LE?k?$LH?C?$FL?$LN?B?$LI?$KO?$FN?5?9Fight?$FLwin?$FN?$AA@ 00488894     EngineLib:DxSkinAniMan.obj
 0002:0000a8ac       ??_C@_0BP@HLDOHCOH@?$LA?f?$LA?h?$FLSP?$LK?N?A?$LH?$FN?5?9Lookout?$FLSP_lack?$FN?$AA@ 004888ac     EngineLib:DxSkinAniMan.obj
 0002:0000a8cc       ??_C@_0BG@CFPLBHOJ@?C?f?$LA?$NN?$FLMIX?$FN?5?9Shock?$FLMIX?$FN?$AA@ 004888cc     EngineLib:DxSkinAniMan.obj
 0002:0000a8e4       ??_C@_0O@MLLIOJID@?$LI?v?A?$PO?5?9Gesture?$AA@ 004888e4     EngineLib:DxSkinAniMan.obj
 0002:0000a8f4       ??_C@_0O@JHPMOJCF@?$LN?$LK?E?$LD?5?9Skill?9A?$AA@ 004888f4     EngineLib:DxSkinAniMan.obj
 0002:0000a904       ??_C@_0BD@NBGCMGMM@?$LE?k?H?$KN?5?9Conversation?$AA@ 00488904     EngineLib:DxSkinAniMan.obj
 0002:0000a918       ??_C@_0N@OMIHNHJH@?$LL?$PN?$LM?$LK?5?9Create?$AA@ 00488918     EngineLib:DxSkinAniMan.obj
 0002:0000a928       ??_C@_0P@KNFAMIAN@?$LO?$LC?$LH?$KP?A?v?$LB?b?5?9Down?$AA@ 00488928     EngineLib:DxSkinAniMan.obj
 0002:0000a938       ??_C@_0M@NMLHCLFM@?C?f?$LA?$NN?5?9Shock?$AA@ 00488938     EngineLib:DxSkinAniMan.obj
 0002:0000a944       ??_C@_0N@DBGAEGJH@?$LA?x?$LA?$NN?5?9Attack?$AA@ 00488944     EngineLib:DxSkinAniMan.obj
 0002:0000a954       ??_C@_09FPOHDPKK@?$LG?Y?$LB?b?5?9Run?$AA@ 00488954     EngineLib:DxSkinAniMan.obj
 0002:0000a960       ??_C@_0L@IEJDKEOG@?$LA?H?$LB?b?5?9Walk?$AA@ 00488960     EngineLib:DxSkinAniMan.obj
 0002:0000a96c       ??_C@_0L@KOENIMMO@?H?$NO?$LN?D?5?9Rest?$AA@ 0048896c     EngineLib:DxSkinAniMan.obj
 0002:0000a978       ??_C@_0O@LDMGJBLJ@?$LA?f?$LA?h?5?9Lookout?$AA@ 00488978     EngineLib:DxSkinAniMan.obj
 0002:0000a988       ??_C@_06LAFGJOME@SUB_49?$AA@ 00488988     EngineLib:DxSkinAniMan.obj
 0002:0000a990       ??_C@_06KJENKPIF@SUB_48?$AA@ 00488990     EngineLib:DxSkinAniMan.obj
 0002:0000a998       ??_C@_06CONFLDEK@SUB_47?$AA@ 00488998     EngineLib:DxSkinAniMan.obj
 0002:0000a9a0       ??_C@_06DHMOICAL@SUB_46?$AA@ 004889a0     EngineLib:DxSkinAniMan.obj
 0002:0000a9a8       ??_C@_06BMODNBMI@SUB_45?$AA@ 004889a8     EngineLib:DxSkinAniMan.obj
 0002:0000a9b0       ??_C@_06FPIOAIJ@SUB_44?$AA@ 004889b0     EngineLib:DxSkinAniMan.obj
 0002:0000a9b8       ??_C@_06EKLJHGEO@SUB_43?$AA@ 004889b8     EngineLib:DxSkinAniMan.obj
 0002:0000a9c0       ??_C@_06FDKCEHAP@SUB_42?$AA@ 004889c0     EngineLib:DxSkinAniMan.obj
 0002:0000a9c8       ??_C@_06HIIPBEMM@SUB_41?$AA@ 004889c8     EngineLib:DxSkinAniMan.obj
 0002:0000a9d0       ??_C@_06GBJECFIN@SUB_40?$AA@ 004889d0     EngineLib:DxSkinAniMan.obj
 0002:0000a9d8       ??_C@_06LFBJIIEB@SUB_39?$AA@ 004889d8     EngineLib:DxSkinAniMan.obj
 0002:0000a9e0       ??_C@_06KMACLJAA@SUB_38?$AA@ 004889e0     EngineLib:DxSkinAniMan.obj
 0002:0000a9e8       ??_C@_06CLJKKFMP@SUB_37?$AA@ 004889e8     EngineLib:DxSkinAniMan.obj
 0002:0000a9f0       ??_C@_06DCIBJEIO@SUB_36?$AA@ 004889f0     EngineLib:DxSkinAniMan.obj
 0002:0000a9f8       ??_C@_06BJKMMHEN@SUB_35?$AA@ 004889f8     EngineLib:DxSkinAniMan.obj
 0002:0000aa00       ??_C@_06LHPGAM@SUB_34?$AA@ 00488a00     EngineLib:DxSkinAniMan.obj
 0002:0000aa08       ??_C@_06EPPGGAML@SUB_33?$AA@ 00488a08     EngineLib:DxSkinAniMan.obj
 0002:0000aa10       ??_C@_06FGONFBIK@SUB_32?$AA@ 00488a10     EngineLib:DxSkinAniMan.obj
 0002:0000aa18       ??_C@_06HNMAACEJ@SUB_31?$AA@ 00488a18     EngineLib:DxSkinAniMan.obj
 0002:0000aa20       ??_C@_06GENLDDAI@SUB_30?$AA@ 00488a20     EngineLib:DxSkinAniMan.obj
 0002:0000aa28       ??_C@_06LENLOCHG@SUB_29?$AA@ 00488a28     EngineLib:DxSkinAniMan.obj
 0002:0000aa30       ??_C@_06KNMANDDH@SUB_28?$AA@ 00488a30     EngineLib:DxSkinAniMan.obj
 0002:0000aa38       ??_C@_06CKFIMPPI@SUB_27?$AA@ 00488a38     EngineLib:DxSkinAniMan.obj
 0002:0000aa40       ??_C@_06DDEDPOLJ@SUB_26?$AA@ 00488a40     EngineLib:DxSkinAniMan.obj
 0002:0000aa48       ??_C@_06BIGOKNHK@SUB_25?$AA@ 00488a48     EngineLib:DxSkinAniMan.obj
 0002:0000aa50       ??_C@_06BHFJMDL@SUB_24?$AA@ 00488a50     EngineLib:DxSkinAniMan.obj
 0002:0000aa58       ??_C@_06EODEAKPM@SUB_23?$AA@ 00488a58     EngineLib:DxSkinAniMan.obj
 0002:0000aa60       ??_C@_07JBLLJLKF@SUB__22?$AA@ 00488a60     EngineLib:DxSkinAniMan.obj
 0002:0000aa68       ??_C@_07LKJGMIGG@SUB__21?$AA@ 00488a68     EngineLib:DxSkinAniMan.obj
 0002:0000aa70       ??_C@_07KDINPJCH@SUB__20?$AA@ 00488a70     EngineLib:DxSkinAniMan.obj
 0002:0000aa78       ??_C@_07HAAJPMDH@SUB__19?$AA@ 00488a78     EngineLib:DxSkinAniMan.obj
 0002:0000aa80       ??_C@_07GJBCMNHG@SUB__18?$AA@ 00488a80     EngineLib:DxSkinAniMan.obj
 0002:0000aa88       ??_C@_07LHAAHLMK@17?5?H?$KD?$LJ?v?$AA@ 00488a88     EngineLib:DxSkinAniMan.obj
 0002:0000aa90       ??_C@_0BB@PBCNMPAB@16?5?$LK?x?$MA?Z?$LH?g?5?9Broom?$AA@ 00488a90     EngineLib:DxSkinAniMan.obj
 0002:0000aaa4       ??_C@_0BB@FNBAAMBK@15?5?$LB?G?$LJ?$PN?5?9kung?5fu?$AA@ 00488aa4     EngineLib:DxSkinAniMan.obj
 0002:0000aab8       ??_C@_0BE@MJCAAEBF@14?5?$LN?V?$LF?$LF?5?9Two?5KATANA?$AA@ 00488ab8     EngineLib:DxSkinAniMan.obj
 0002:0000aacc       ??_C@_0CE@DCLJDFBF@13?5?$LO?g?$LM?U?$LF?$LF?5?$LE?k?G?$PM?5?9Two?5Hand?5Big?5KAT@ 00488acc     EngineLib:DxSkinAniMan.obj
 0002:0000aaf0       ??_C@_0BL@HLEBGMOJ@12?5?$LO?g?$LM?U?$LF?$LF?5?9Two?5Hand?5KATANA?$AA@ 00488af0     EngineLib:DxSkinAniMan.obj
 0002:0000ab0c       ??_C@_0BL@MPNJBMEM@11?5?G?Q?$LM?U?$LF?$LF?5?9One?5Hand?5KATANA?$AA@ 00488b0c     EngineLib:DxSkinAniMan.obj
 0002:0000ab28       ??_C@_0BA@HEDEFHDF@10?5?$LI?y?$LF?U?$MA?L?5?9Club?$AA@ 00488b28     EngineLib:DxSkinAniMan.obj
 0002:0000ab38       ??_C@_0CD@IPHEEMCA@09?5?$LO?g?$LM?U?$LA?K?5?$LE?k?G?$PM?5?9Two?5Hand?5Big?5Swo@ 00488b38     EngineLib:DxSkinAniMan.obj
 0002:0000ab5c       ??_C@_0P@PAFDCJGO@08?5?$LI?$LG?$LJ?$PN?5?9Magic?$AA@ 00488b5c     EngineLib:DxSkinAniMan.obj
 0002:0000ab6c       ??_C@_0P@KEPPPPAJ@07?5?E?u?C?$LE?5?9Throw?$AA@ 00488b6c     EngineLib:DxSkinAniMan.obj
 0002:0000ab7c       ??_C@_0L@POCNHLOI@06?5?H?$LA?5?9Bow?$AA@ 00488b7c     EngineLib:DxSkinAniMan.obj
 0002:0000ab88       ??_C@_0N@NIAOJIJH@05?5?C?$KC?5?9Spear?$AA@ 00488b88     EngineLib:DxSkinAniMan.obj
 0002:0000ab98       ??_C@_0BA@MFLDBCNM@04?5?$LE?$NM?$LA?K?5?9Dagger?$AA@ 00488b98     EngineLib:DxSkinAniMan.obj
 0002:0000aba8       ??_C@_0BD@HAAKFDIB@03?5?$LN?V?$LA?K?5?9Two?5Sword?$AA@ 00488ba8     EngineLib:DxSkinAniMan.obj
 0002:0000abbc       ??_C@_0BK@FHMGLOLB@02?5?$LO?g?$LM?U?$LA?K?5?9Two?5Hand?5Sword?$AA@ 00488bbc     EngineLib:DxSkinAniMan.obj
 0002:0000abd8       ??_C@_0BK@MEAICMEN@01?5?G?Q?$LM?U?$LA?K?5?9One?5Hand?5Sword?$AA@ 00488bd8     EngineLib:DxSkinAniMan.obj
 0002:0000abf4       ??_C@_0BF@LAMONMLK@00?5?$LI?G?$LM?U?5?9Empty?5Hands?$AA@ 00488bf4     EngineLib:DxSkinAniMan.obj
 0002:0000ac0c       ??_C@_06FHCPDLLN@SUB_22?$AA@ 00488c0c     EngineLib:DxSkinAniMan.obj
 0002:0000ac14       ??_C@_06HMACGIHO@SUB_21?$AA@ 00488c14     EngineLib:DxSkinAniMan.obj
 0002:0000ac1c       ??_C@_06GFBJFJDP@SUB_20?$AA@ 00488c1c     EngineLib:DxSkinAniMan.obj
 0002:0000ac24       ??_C@_06LGJNFMCP@SUB_19?$AA@ 00488c24     EngineLib:DxSkinAniMan.obj
 0002:0000ac2c       ??_C@_06KPIGGNGO@SUB_18?$AA@ 00488c2c     EngineLib:DxSkinAniMan.obj
 0002:0000ac34       ??_C@_06CIBOHBKB@SUB_17?$AA@ 00488c34     EngineLib:DxSkinAniMan.obj
 0002:0000ac3c       ??_C@_06DBAFEAOA@SUB_16?$AA@ 00488c3c     EngineLib:DxSkinAniMan.obj
 0002:0000ac44       ??_C@_06BKCIBDCD@SUB_15?$AA@ 00488c44     EngineLib:DxSkinAniMan.obj
 0002:0000ac4c       ??_C@_06DDDCCGC@SUB_14?$AA@ 00488c4c     EngineLib:DxSkinAniMan.obj
 0002:0000ac54       ??_C@_06EMHCLEKF@SUB_13?$AA@ 00488c54     EngineLib:DxSkinAniMan.obj
 0002:0000ac5c       ??_C@_06FFGJIFOE@SUB_12?$AA@ 00488c5c     EngineLib:DxSkinAniMan.obj
 0002:0000ac64       ??_C@_06HOEENGCH@SUB_11?$AA@ 00488c64     EngineLib:DxSkinAniMan.obj
 0002:0000ac6c       ??_C@_06GHFPOHGG@SUB_10?$AA@ 00488c6c     EngineLib:DxSkinAniMan.obj
 0002:0000ac74       ??_C@_06LHFPDGBI@SUB_09?$AA@ 00488c74     EngineLib:DxSkinAniMan.obj
 0002:0000ac7c       ??_C@_06KOEEAHFJ@SUB_08?$AA@ 00488c7c     EngineLib:DxSkinAniMan.obj
 0002:0000ac84       ??_C@_06CJNMBLJG@SUB_07?$AA@ 00488c84     EngineLib:DxSkinAniMan.obj
