 ServerSession

 Timestamp is 67d9b629 (Wed Mar 19 02:06:33 2025)

 Preferred load address is 00400000

 Start         Length     Name                   Class
 0001:00000000 0006ae33H .text                   CODE
 0001:0006ae40 000079fdH .text$x                 CODE
 0001:00072840 00083079H .text$yc                CODE
 0001:000f58c0 00001b00H .text$yd                CODE
 0002:00000000 00000578H .idata$5                DATA
 0002:00000580 0002e21cH .rdata                  DATA
 0002:0002e79c 00000057H .rdata$debug            DATA
 0002:0002e7f4 00000088H .rdata$r                DATA
 0002:0002e87c 00000004H .rtc$IAA                DATA
 0002:0002e880 00000004H .rtc$IZZ                DATA
 0002:0002e884 00000004H .rtc$TAA                DATA
 0002:0002e888 00000004H .rtc$TZZ                DATA
 0002:0002e88c 00007b74H .xdata$x                DATA
 0002:00036400 00000000H ATL$__a                 DATA
 0002:00036400 00000000H ATL$__z                 DATA
 0002:00036400 000000f0H .idata$2                DATA
 0002:000364f0 00000014H .idata$3                DATA
 0002:00036504 00000578H .idata$4                DATA
 0002:00036a7c 0000203eH .idata$6                DATA
 0002:00038aba 00000000H .edata                  DATA
 0003:00000000 00000004H .CRT$XCA                DATA
 0003:00000004 00000004H .CRT$XCAA               DATA
 0003:00000008 00000004H .CRT$XCL                DATA
 0003:0000000c 0000f680H .CRT$XCU                DATA
 0003:0000f68c 00000004H .CRT$XCZ                DATA
 0003:0000f690 00000004H .CRT$XIA                DATA
 0003:0000f694 00000004H .CRT$XIZ                DATA
 0003:0000f6a0 00033e88H .data                   DATA
 0003:00043528 08f25fecH .bss                    DATA
 0004:00000000 00000268H .rsrc$01                DATA
 0004:00000270 00000a08H .rsrc$02                DATA

  Address         Publics by Value              Rva+Base     Lib:Object

 0000:00000000       ___safe_se_handler_count   00000000     <absolute>
 0000:00000000       __except_list              00000000     <absolute>
 0000:00000000       ___safe_se_handler_table   00000000     <absolute>
 0000:00009876       __fltused                  00009876     <absolute>
 0000:00009876       __ldused                   00009876     <absolute>
 0000:00000000       ___ImageBase               00400000     <linker-defined>
 0001:00000000       ??_H@YGXPAXIHP6EPAX0@Z@Z   00401000 f i ServerSession.obj
 0001:00000030       ?checkCmdParameter@SERVER_CONTROLLER@@YAXPAD@Z 00401030 f   ServerSession.obj
 0001:00000130       ?cmdStartOrStop@@YAXPAUHWND__@@@Z 00401130 f   ServerSession.obj
 0001:00000290       ?cmdPause@@YAXPAUHWND__@@@Z 00401290 f   ServerSession.obj
 0001:00000310       ?cmdExit@@YAXPAUHWND__@@@Z 00401310 f   ServerSession.obj
 0001:00000340       ?executeCommand@@YAXPAUHWND__@@@Z 00401340 f   ServerSession.obj
 0001:00000390       ?setFirstFocus@@YAXPAUHWND__@@@Z 00401390 f   ServerSession.obj
 0001:000003b0       ?cmdShowWindow@@YAXPAUHWND__@@@Z 004013b0 f   ServerSession.obj
 0001:00000400       ?cmdHideWindow@@YAXPAUHWND__@@@Z 00401400 f   ServerSession.obj
 0001:00000480       ?cmdPopupMenu@@YAXPAUHWND__@@@Z 00401480 f   ServerSession.obj
 0001:000004f0       ?initDialog@@YAXPAUHWND__@@@Z 004014f0 f   ServerSession.obj
 0001:00000540       ?MainDlgProc@@YGHPAUHWND__@@IIJ@Z 00401540 f   ServerSession.obj
 0001:00000850       _WinMain@16                00401850 f   ServerSession.obj
 0001:00000a10       ?AtlThrow@ATL@@YGXJ@Z      00401a10 f i stdafx.obj
 0001:00000a30       ??$?HDU?$char_traits@D@std@@V?$allocator@D@1@@std@@YA?AV?$basic_string@DU?$char_traits@D@std@@V?$allocator@D@2@@0@ABV10@PBD@Z 00401a30 f i stdafx.obj
 0001:00000ab0       ??0G_SERVER_INFO@@QAE@XZ   00401ab0 f i Lib_Network:s_CSessionServer.obj
 0001:00000b40       ?StringCopyWorkerA@@YGJPADIPBD@Z 00401b40 f i Lib_Network:s_CSessionServer.obj
 0001:00000b90       ??0CSessionServer@@QAE@PAUHWND__@@000@Z 00401b90 f   Lib_Network:s_CSessionServer.obj
 0001:00000c50       ??1CSessionServer@@UAE@XZ  00401c50 f   Lib_Network:s_CSessionServer.obj
 0001:00000cc0       ?StartClientManager@CSessionServer@@UAEHXZ 00401cc0 f   Lib_Network:s_CSessionServer.obj
 0001:00000d90       ?StartDbManager@CSessionServer@@QAEHXZ 00401d90 f   Lib_Network:s_CSessionServer.obj
 0001:00001070       ?Start@CSessionServer@@UAEHXZ 00402070 f   Lib_Network:s_CSessionServer.obj
 0001:00001240       ?Resume@CSessionServer@@UAEHXZ 00402240 f   Lib_Network:s_CSessionServer.obj
 0001:000012d0       ?ReStart@CSessionServer@@UAEHXZ 004022d0 f   Lib_Network:s_CSessionServer.obj
 0001:000012f0       ?SendClient@CSessionServer@@QAEHKPAX@Z 004022f0 f   Lib_Network:s_CSessionServer.obj
 0001:00001310       ?ExecuteCommand@CSessionServer@@QAEHPAD@Z 00402310 f   Lib_Network:s_CSessionServer.obj
 0001:000018a0       ??_GCSessionServer@@UAEPAXI@Z 004028a0 f i Lib_Network:s_CSessionServer.obj
 0001:000018a0       ??_ECSessionServer@@UAEPAXI@Z 004028a0 f i Lib_Network:s_CSessionServer.obj
 0001:000018c0       ?CloseClient@CSessionServer@@QAEXK@Z 004028c0 f   Lib_Network:s_CSessionServer.obj
 0001:00001ad0       ?MsgServerBroadCastIPFilterBlockAdd@CSessionServer@@QAEXPAUMSG_LIST@@@Z 00402ad0 f   Lib_Network:s_CSessionServer.obj
 0001:00001c50       ?MsgServerBroadCastIPFilterBlockDel@CSessionServer@@QAEXPAUMSG_LIST@@@Z 00402c50 f   Lib_Network:s_CSessionServer.obj
 0001:00001dd0       ?MsgServerBroadCastIPFilterKnownAdd@CSessionServer@@QAEXPAUMSG_LIST@@@Z 00402dd0 f   Lib_Network:s_CSessionServer.obj
 0001:00001f50       ?MsgServerBroadCastIPFilterKnownDel@CSessionServer@@QAEXPAUMSG_LIST@@@Z 00402f50 f   Lib_Network:s_CSessionServer.obj
 0001:000020d0       ?MsgServerBroadCastIPFilterBlockAddSelf@CSessionServer@@QAEXV?$basic_string@DU?$char_traits@D@std@@V?$allocator@D@2@@std@@@Z 004030d0 f   Lib_Network:s_CSessionServer.obj
 0001:000021e0       ?MsgServerBroadCastIPFilterBlockDelSelf@CSessionServer@@QAEXV?$basic_string@DU?$char_traits@D@std@@V?$allocator@D@2@@std@@@Z 004031e0 f   Lib_Network:s_CSessionServer.obj
 0001:000022f0       ?MsgServerBroadCastIPFilterKnownAddSelf@CSessionServer@@QAEXV?$basic_string@DU?$char_traits@D@std@@V?$allocator@D@2@@std@@@Z 004032f0 f   Lib_Network:s_CSessionServer.obj
 0001:00002400       ?MsgServerBroadCastIPFilterKnownDelSelf@CSessionServer@@QAEXV?$basic_string@DU?$char_traits@D@std@@V?$allocator@D@2@@std@@@Z 00403400 f   Lib_Network:s_CSessionServer.obj
 0001:00002510       ?IPFilterCleanIP@CSessionServer@@QAEXV?$basic_string@DU?$char_traits@D@std@@V?$allocator@D@2@@std@@@Z 00403510 f   Lib_Network:s_CSessionServer.obj
 0001:000026d0       ?Stop@CSessionServer@@UAEHXZ 004036d0 f   Lib_Network:s_CSessionServer.obj
 0001:00002880       ?Pause@CSessionServer@@UAEHXZ 00403880 f   Lib_Network:s_CSessionServer.obj
 0001:00002900       ?DatabaseProc@CSessionServer@@UAEHXZ 00403900 f   Lib_Network:s_CSessionServerThread.obj
 0001:00002980       ?ListenProc@CSessionServer@@UAEHXZ 00403980 f   Lib_Network:s_CSessionServerThread.obj
 0001:00002b50       ?WorkProc@CSessionServer@@UAEHXZ 00403b50 f   Lib_Network:s_CSessionServerThread.obj
 0001:00002df0       ?UpdateProc@CSessionServer@@UAEHXZ 00403df0 f   Lib_Network:s_CSessionServerThread.obj
 0001:00003490       ??1?$pair@V?$basic_string@DU?$char_traits@D@std@@V?$allocator@D@2@@std@@PAUSSoundEx@@@std@@QAE@XZ 00404490 f i Lib_Engine:DxSoundLib.obj
 0001:00003490       ??1SMATERIAL_PIECE@@QAE@XZ 00404490 f i Lib_Engine:DxSkinPieceContainer.obj
 0001:00003490       ??1?$pair@USWavFileKey@@PAUSWavFileData@@@std@@QAE@XZ 00404490 f i Lib_Engine:DxSoundMan.obj
 0001:00003490       ??1?$pair@$$CBV?$basic_string@DU?$char_traits@D@std@@V?$allocator@D@2@@std@@K@std@@QAE@XZ 00404490 f i Lib_Client:GLClubMan.obj
 0001:00003490       ??1SWavFileKey@@QAE@XZ     00404490 f i Lib_Engine:DxSoundMan.obj
 0001:00003490       ??1?$pair@$$CBV?$basic_string@DU?$char_traits@D@std@@V?$allocator@D@2@@std@@PAUSSoundEx@@@std@@QAE@XZ 00404490 f i Lib_Engine:DxSoundLib.obj
 0001:00003490       ??1?$pair@$$CBUSWavFileKey@@PAUSWavFileData@@@std@@QAE@XZ 00404490 f i Lib_Engine:DxSoundMan.obj
 0001:00003490       ??1?$pair@$$CBV?$basic_string@DU?$char_traits@D@std@@V?$allocator@D@2@@std@@PAVTextureContainer@TextureManager@@@std@@QAE@XZ 00404490 f i Lib_Engine:TextureManager.obj
 0001:00003490       ??1DXSUSER_SLOT@@QAE@XZ    00404490 f i Lib_Engine:DxSkinPieceContainer.obj
 0001:00003490       ??1STracingData@@QAE@XZ    00404490 f i Lib_Network:s_CServer.obj
 0001:000034a0       ?StringVPrintfWorkerA@@YGJPADIPBD0@Z 004044a0 f i Lib_Network:s_CServer.obj
 0001:00003500       ??1logic_error@std@@UAE@XZ 00404500 f i Lib_Network:s_CServer.obj
 0001:00003560       ?what@logic_error@std@@UBEPBDXZ 00404560 f i Lib_Network:s_CServer.obj
 0001:00003560       ?what@runtime_error@std@@UBEPBDXZ 00404560 f i Lib_Engine:Rijndael.obj
 0001:00003570       ??_Glogic_error@std@@UAEPAXI@Z 00404570 f i Lib_Network:s_CServer.obj
 0001:00003570       ??_Elogic_error@std@@UAEPAXI@Z 00404570 f i Lib_Network:s_CServer.obj
 0001:00003590       ??_Glength_error@std@@UAEPAXI@Z 00404590 f i Lib_Network:s_CServer.obj
 0001:00003590       ??_Elength_error@std@@UAEPAXI@Z 00404590 f i Lib_Network:s_CServer.obj
 0001:000035b0       ??1length_error@std@@UAE@XZ 004045b0 f i Lib_Network:s_CServer.obj
 0001:00003600       ?StartIOCPList@CServer@@QAEHXZ 00404600 f   Lib_Network:s_CServer.obj
 0001:000036e0       ?StartMsgManager@CServer@@QAEHXZ 004046e0 f   Lib_Network:s_CServer.obj
 0001:00003780       ?StartIOCP@CServer@@QAEHXZ 00404780 f   Lib_Network:s_CServer.obj
 0001:000037e0       ?StartWorkThread@CServer@@QAEHXZ 004047e0 f   Lib_Network:s_CServer.obj
 0001:00003a40       ?StartUpdateThread@CServer@@QAEHXZ 00404a40 f   Lib_Network:s_CServer.obj
 0001:00003b40       ?StartDatabaseThread@CServer@@QAEHXZ 00404b40 f   Lib_Network:s_CServer.obj
 0001:00003bb0       ?StopListenThread@CServer@@QAEHXZ 00404bb0 f   Lib_Network:s_CServer.obj
 0001:00003bf0       ?StopIOCPList@CServer@@QAEHXZ 00404bf0 f   Lib_Network:s_CServer.obj
 0001:00003c70       ?StopWorkThread@CServer@@QAEHXZ 00404c70 f   Lib_Network:s_CServer.obj
 0001:00003cc0       ?StopIOCP@CServer@@QAEHXZ  00404cc0 f   Lib_Network:s_CServer.obj
 0001:00003d00       ?ReleaseOperationData@CServer@@QAEXPAUPER_IO_OPERATION_DATA@@@Z 00404d00 f   Lib_Network:s_CServer.obj
 0001:00003d30       ?GetFreeOverIO@CServer@@QAEPAUPER_IO_OPERATION_DATA@@H@Z 00404d30 f   Lib_Network:s_CServer.obj
 0001:00003d50       ??0logic_error@std@@QAE@ABV01@@Z 00404d50 f i Lib_Network:s_CServer.obj
 0001:00003db0       ??0length_error@std@@QAE@ABV01@@Z 00404db0 f i Lib_Network:s_CServer.obj
 0001:00003dd0       ?StringCchPrintfA@@YAJPADIPBDZZ 00404dd0 f i Lib_Network:s_CServer.obj
 0001:00003e00       ?StringCatWorkerA@@YGJPADIPBD@Z 00404e00 f i Lib_Network:s_CServer.obj
 0001:00003e60       ?StartCfg@CServer@@QAEHXZ  00404e60 f   Lib_Network:s_CServer.obj
 0001:000042b0       ?StartListenThread@CServer@@QAEHXZ 004052b0 f   Lib_Network:s_CServer.obj
 0001:000045f0       ?_Tidy@?$vector@USTracingData@@V?$allocator@USTracingData@@@std@@@std@@IAEXXZ 004055f0 f i Lib_Network:s_CServer.obj
 0001:00004640       ??1?$vector@USTracingData@@V?$allocator@USTracingData@@@std@@@std@@QAE@XZ 00405640 f i Lib_Network:s_CServer.obj
 0001:00004650       ??0CServer@@QAE@PAUHWND__@@000@Z 00405650 f   Lib_Network:s_CServer.obj
 0001:00004800       ??1CServer@@UAE@XZ         00405800 f   Lib_Network:s_CServer.obj
 0001:000048f0       ??_ECServer@@UAEPAXI@Z     004058f0 f i Lib_Network:s_CServer.obj
 0001:000048f0       ??_GCServer@@UAEPAXI@Z     004058f0 f i Lib_Network:s_CServer.obj
 0001:00004910       ?ReleaseInstance@CConsoleMessage@@SAXXZ 00405910 f   Lib_Network:s_CConsoleMessage.obj
 0001:00004930       ?SetControl@CConsoleMessage@@QAEXPAUHWND__@@00@Z 00405930 f   Lib_Network:s_CConsoleMessage.obj
 0001:00004990       ??0CConsoleMessage@@AAE@H@Z 00405990 f   Lib_Network:s_CConsoleMessage.obj
 0001:00004b00       ??_ECConsoleMessage@@G3AEPAXI@Z 00405b00 f i Lib_Network:s_CConsoleMessage.obj
 0001:00004b10       ??1CConsoleMessage@@EAE@XZ 00405b10 f   Lib_Network:s_CConsoleMessage.obj
 0001:00004bf0       ?GetInstance@CConsoleMessage@@SAPAV1@XZ 00405bf0 f   Lib_Network:s_CConsoleMessage.obj
 0001:00004c60       ??_GCConsoleMessage@@EAEPAXI@Z 00405c60 f i Lib_Network:s_CConsoleMessage.obj
 0001:00004c60       ??_ECConsoleMessage@@EAEPAXI@Z 00405c60 f i Lib_Network:s_CConsoleMessage.obj
 0001:00004c80       ?WriteDatabase@CConsoleMessage@@QAAXPBDZZ 00405c80 f   Lib_Network:s_CConsoleMessage.obj
 0001:00004cf0       ?Write@CConsoleMessage@@UAAXPBDZZ 00405cf0 f   Lib_Network:s_CConsoleMessage.obj
 0001:00004cf0       ?WriteFile@CConsoleMessage@@QAAXPBDZZ 00405cf0 f   Lib_Network:s_CConsoleMessage.obj
 0001:00004d60       ?WriteConsoleA@CConsoleMessage@@QAAXPBDZZ 00405d60 f   Lib_Network:s_CConsoleMessage.obj
 0001:00004dd0       ?Write@CConsoleMessage@@UAAXHPBDZZ 00405dd0 f   Lib_Network:s_CConsoleMessage.obj
 0001:00004e40       ?WriteInfo@CConsoleMessage@@UAAXPBDZZ 00405e40 f   Lib_Network:s_CConsoleMessage.obj
 0001:00004eb0       ?WriteInfo@CConsoleMessage@@UAAXHPBDZZ 00405eb0 f   Lib_Network:s_CConsoleMessage.obj
 0001:00004f20       ?WriteStats@CConsoleMessage@@UAAXPBDZZ 00405f20 f   Lib_Network:s_CConsoleMessage.obj
 0001:00004f90       ?WriteStats@CConsoleMessage@@UAAXHPBDZZ 00405f90 f   Lib_Network:s_CConsoleMessage.obj
 0001:00005000       ?UpdateEditControl@CConsoleMessage@@QAEXPAD@Z 00406000 f   Lib_Network:s_CConsoleMessage.obj
 0001:00005140       ?UpdateEditControlInfo@CConsoleMessage@@QAEXPAD@Z 00406140 f   Lib_Network:s_CConsoleMessage.obj
 0001:00005280       ?UpdateEditControlStats@CConsoleMessage@@QAEXPAD@Z 00406280 f   Lib_Network:s_CConsoleMessage.obj
 0001:000053c0       ?UpdateEditControl@CConsoleMessage@@QAEXPADH@Z 004063c0 f   Lib_Network:s_CConsoleMessage.obj
 0001:00005400       ?Write@CConsoleMessage@@UAAXHHPBDZZ 00406400 f   Lib_Network:s_CConsoleMessage.obj
 0001:00005550       ?CloseClient@CClientSession@@QAEHK@Z 00406550 f   Lib_Network:s_CClientSession.obj
 0001:00005590       ?SetSvrInfo@CClientSession@@QAEXKPAUG_SERVER_INFO@@@Z 00406590 f   Lib_Network:s_CClientSession.obj
 0001:000055c0       ?SetSvrCurInfo@CClientSession@@QAEXKPAUG_SERVER_CUR_INFO@@@Z 004065c0 f   Lib_Network:s_CClientSession.obj
 0001:000055f0       ?FindServer@CClientSession@@QAEKHHHH@Z 004065f0 f   Lib_Network:s_CClientSession.obj
 0001:00005670       ?GetSvrGrp@CClientSession@@QAEHK@Z 00406670 f   Lib_Network:s_CClientSession.obj
 0001:00005690       ?GetSvrNum@CClientSession@@QAEHK@Z 00406690 f   Lib_Network:s_CClientSession.obj
 0001:000056b0       ?GetSvrField@CClientSession@@QAEHK@Z 004066b0 f   Lib_Network:s_CClientSession.obj
 0001:000056d0       ?GetSvrType@CClientSession@@QAEHK@Z 004066d0 f   Lib_Network:s_CClientSession.obj
 0001:000056f0       ?GetSvrCrtClient@CClientSession@@QAEHK@Z 004066f0 f   Lib_Network:s_CClientSession.obj
 0001:00005710       ?GetSvrMaxClient@CClientSession@@QAEHK@Z 00406710 f   Lib_Network:s_CClientSession.obj
 0001:00005730       ?GetSvrInfo@CClientSession@@QAE?AUG_SERVER_INFO@@K@Z 00406730 f   Lib_Network:s_CClientSession.obj
 0001:00005760       ?IsGameServer@CClientSession@@QAE_NK@Z 00406760 f   Lib_Network:s_CClientSession.obj
 0001:00005780       ??3CObject@@SGXPAX@Z       00406780 f i Lib_Network:s_CClientSession.obj
 0001:00005790       ??0CClientSession@@QAE@HPAVCOverlapped@@0PAX@Z 00406790 f   Lib_Network:s_CClientSession.obj
 0001:00005840       ?FindServer@CClientSession@@QAEKPBDH@Z 00406840 f   Lib_Network:s_CClientSession.obj
 0001:00005920       ?UserEraseServer@CClientSession@@QAEXHH@Z 00406920 f   Lib_Network:s_CClientSession.obj
 0001:00005a10       ?UserEraseAll@CClientSession@@QAEXXZ 00406a10 f   Lib_Network:s_CClientSession.obj
 0001:00005ad0       ?PrintUsrList@CClientSession@@QAEXXZ 00406ad0 f   Lib_Network:s_CClientSession.obj
 0001:00005ba0       ??1CClientSession@@UAE@XZ  00406ba0 f   Lib_Network:s_CClientSession.obj
 0001:00005c40       ??_ECClientSession@@UAEPAXI@Z 00406c40 f i Lib_Network:s_CClientSession.obj
 0001:00005c40       ??_GCClientSession@@UAEPAXI@Z 00406c40 f i Lib_Network:s_CClientSession.obj
 0001:00005c60       ?GetItemMaxNum@GLDBMan@@UAE_JHHHAAV?$vector@UVIEWLOGITEMEXCHANGEMAX@@V?$allocator@UVIEWLOGITEMEXCHANGEMAX@@@std@@@std@@@Z 00406c60 f i Lib_Network:s_COdbcManager.obj
 0001:00005c70       ?CreateClub@GLDBMan@@UAEHV?$CStringT@DV?$StrTraitMFC_DLL@DV?$ChTraitsCRT@D@ATL@@@@@ATL@@K@Z 00406c70 f i Lib_Network:s_COdbcManager.obj
 0001:00005c70       ?SetPurchaseItem@GLDBMan@@UAEHV?$CStringT@DV?$StrTraitMFC_DLL@DV?$ChTraitsCRT@D@ATL@@@@@ATL@@H@Z 00406c70 f i Lib_Network:s_COdbcManager.obj
 0001:00005c70       ?GetPurchaseItem@GLDBMan@@UAEHV?$CStringT@DV?$StrTraitMFC_DLL@DV?$ChTraitsCRT@D@ATL@@@@@ATL@@AAV?$vector@USHOPPURCHASE@@V?$allocator@USHOPPURCHASE@@@std@@@std@@@Z 00406c70 f i Lib_Network:s_COdbcManager.obj
 0001:00005c70       ?SetItemShop@GLDBMan@@UAEHV?$CStringT@DV?$StrTraitMFC_DLL@DV?$ChTraitsCRT@D@ATL@@@@@ATL@@K@Z 00406c70 f i Lib_Network:s_COdbcManager.obj
 0001:00005c80       ?GetChaExp@GLDBMan@@UAE_JH@Z 00406c80 f i Lib_Network:s_COdbcManager.obj
 0001:00005c80       ?GetChatBlockTime@GLDBMan@@UAE_JH@Z 00406c80 f i Lib_Network:s_COdbcManager.obj
 0001:00005c80       ?GetClubIncomeMoney@GLDBMan@@UAE_JK@Z 00406c80 f i Lib_Network:s_COdbcManager.obj
 0001:00005c80       ?GetClubMoney@GLDBMan@@UAE_JK@Z 00406c80 f i Lib_Network:s_COdbcManager.obj
 0001:00005c90       ?LogAppeal@GLDBMan@@UAEHHHV?$CStringT@DV?$StrTraitMFC_DLL@DV?$ChTraitsCRT@D@ATL@@@@@ATL@@@Z 00406c90 f i Lib_Network:s_COdbcManager.obj
 0001:00005ca0       ?SaveChaPos@GLDBMan@@UAEHKKKMMMKMMMKMMM@Z 00406ca0 f i Lib_Network:s_COdbcManager.obj
 0001:00005cb0       ?CreatePet@GLDBMan@@UAEHHPBDHHHHHHH@Z 00406cb0 f i Lib_Network:s_COdbcManager.obj
 0001:00005cc0       ?SetPetSkill@GLDBMan@@UAEHHHHHHHHH@Z 00406cc0 f i Lib_Network:s_COdbcManager.obj
 0001:00005cd0       ?SetChaGenderChange@GLDBMan@@UAEHKHHHHH@Z 00406cd0 f i Lib_Network:s_COdbcManager.obj
 0001:00005cd0       ?LogHackProgram@GLDBMan@@UAEHHHHHHPBD@Z 00406cd0 f i Lib_Network:s_COdbcManager.obj
 0001:00005cd0       ?EndClubBattle@GLDBMan@@UAEHKKHHH_N@Z 00406cd0 f i Lib_Network:s_COdbcManager.obj
 0001:00005cd0       ?UpdatePetSkin@GLDBMan@@UAEHHKHHHH@Z 00406cd0 f i Lib_Network:s_COdbcManager.obj
 0001:00005ce0       ?SaveClubBattle@GLDBMan@@UAEHKKHH@Z 00406ce0 f i Lib_Network:s_COdbcManager.obj
 0001:00005ce0       ?SetChaStorageDate@GLDBMan@@UAEHHH_J@Z 00406ce0 f i Lib_Network:s_COdbcManager.obj
 0001:00005ce0       ?WriteClubMarkImage@GLDBMan@@UAEHKKPAEH@Z 00406ce0 f i Lib_Network:s_COdbcManager.obj
 0001:00005ce0       ?LogPartyMatch@GLDBMan@@UAEHHHGG@Z 00406ce0 f i Lib_Network:s_COdbcManager.obj
 0001:00005ce0       ?LogSMS@GLDBMan@@UAEHHHPBD0@Z 00406ce0 f i Lib_Network:s_COdbcManager.obj
 0001:00005ce0       ?SetClubBattle@GLDBMan@@UAEHKKKH@Z 00406ce0 f i Lib_Network:s_COdbcManager.obj
 0001:00005ce0       ?ExciteUserPassCheck@GLDBMan@@UAEHPBD00H@Z 00406ce0 f i Lib_Network:s_COdbcManager.obj
 0001:00005cf0       ?CreateVehicle@GLDBMan@@UAEHHPBDHHH@Z 00406cf0 f i Lib_Network:s_COdbcManager.obj
 0001:00005cf0       ?SetLastCallPos@GLDBMan@@UAEHHKUD3DXVECTOR3@@@Z 00406cf0 f i Lib_Network:s_COdbcManager.obj
 0001:00005cf0       ?GetPoints@GLDBMan@@UAEHHKKPAH0@Z 00406cf0 f i Lib_Network:s_COdbcManager.obj
 0001:00005d00       ?InsertAttendItem@GLDBMan@@UAEHV?$CStringT@DV?$StrTraitMFC_DLL@DV?$ChTraitsCRT@D@ATL@@@@@ATL@@0HH@Z 00406d00 f i Lib_Network:s_COdbcManager.obj
 0001:00005d20       ?GetVehicle@GLDBMan@@UAEHPAUGLVEHICLE@@HH@Z 00406d20 f i Lib_Network:s_COdbcManager.obj
 0001:00005d20       ?RenamePet@GLDBMan@@UAEHHHPBD@Z 00406d20 f i Lib_Network:s_COdbcManager.obj
 0001:00005d20       ?GetVehicleInven@GLDBMan@@UAEHPAUGLVEHICLE@@HH@Z 00406d20 f i Lib_Network:s_COdbcManager.obj
 0001:00005d20       ?SetChaExp@GLDBMan@@UAEHH_J@Z 00406d20 f i Lib_Network:s_COdbcManager.obj
 0001:00005d20       ?EquipmentLockEnable@GLDBMan@@UAEHKPAD0@Z 00406d20 f i Lib_Network:s_COdbcManager.obj
 0001:00005d20       ?GetPetInven@GLDBMan@@UAEHHPAUGLPET@@K@Z 00406d20 f i Lib_Network:s_COdbcManager.obj
 0001:00005d20       ?UpdateUserLastInfoAdd@GLDBMan@@UAEHK_J@Z 00406d20 f i Lib_Network:s_COdbcManager.obj
 0001:00005d20       ?SetClubAuthorityTime@GLDBMan@@UAEHK_J@Z 00406d20 f i Lib_Network:s_COdbcManager.obj
 0001:00005d20       ?DaumUserPassCheck@GLDBMan@@UAEHPBD0H@Z 00406d20 f i Lib_Network:s_COdbcManager.obj
 0001:00005d20       ?SetPremiumTime@GLDBMan@@UAEHH_J@Z 00406d20 f i Lib_Network:s_COdbcManager.obj
 0001:00005d20       ?GetPetSkill@GLDBMan@@UAEHHPAUGLPET@@K@Z 00406d20 f i Lib_Network:s_COdbcManager.obj
 0001:00005d20       ?SetChaFriend@GLDBMan@@UAEHHHH@Z 00406d20 f i Lib_Network:s_COdbcManager.obj
 0001:00005d20       ?InsertUserAttend@GLDBMan@@UAEHHHH@Z 00406d20 f i Lib_Network:s_COdbcManager.obj
 0001:00005d20       ?SetVehicleBattery@GLDBMan@@UAEHHHH@Z 00406d20 f i Lib_Network:s_COdbcManager.obj
 0001:00005d20       ?EquipmentLockInput@GLDBMan@@UAEHKPAD0@Z 00406d20 f i Lib_Network:s_COdbcManager.obj
 0001:00005d20       ?SetClubMoney@GLDBMan@@UAEHK_J@Z 00406d20 f i Lib_Network:s_COdbcManager.obj
 0001:00005d20       ?SetPetColor@GLDBMan@@UAEHHHH@Z 00406d20 f i Lib_Network:s_COdbcManager.obj
 0001:00005d20       ?SetPetInven@GLDBMan@@UAEHHHAAVCByteStream@@@Z 00406d20 f i Lib_Network:s_COdbcManager.obj
 0001:00005d20       ?WriteClubStorage@GLDBMan@@UAEHKPAEH@Z 00406d20 f i Lib_Network:s_COdbcManager.obj
 0001:00005d20       ?SetVehicleColor@GLDBMan@@UAEHHHAAVCByteStream@@@Z 00406d20 f i Lib_Network:s_COdbcManager.obj
 0001:00005d20       ?SetChatBlockTime@GLDBMan@@UAEHH_J@Z 00406d20 f i Lib_Network:s_COdbcManager.obj
 0001:00005d20       ?SetClubAllianceSec@GLDBMan@@UAEHK_J@Z 00406d20 f i Lib_Network:s_COdbcManager.obj
 0001:00005d20       ?SetClubRegion@GLDBMan@@UAEHKKM@Z 00406d20 f i Lib_Network:s_COdbcManager.obj
 0001:00005d20       ?SetPetDualSkill@GLDBMan@@UAEHHH_N@Z 00406d20 f i Lib_Network:s_COdbcManager.obj
 0001:00005d20       ?GetPet@GLDBMan@@UAEHPAUGLPET@@KK@Z 00406d20 f i Lib_Network:s_COdbcManager.obj
 0001:00005d20       ?SetPetFull@GLDBMan@@UAEHHHH@Z 00406d20 f i Lib_Network:s_COdbcManager.obj
 0001:00005d20       ?SetClubDissolutionTime@GLDBMan@@UAEHK_J@Z 00406d20 f i Lib_Network:s_COdbcManager.obj
 0001:00005d20       ?TerraUserPassCheck@GLDBMan@@UAEHPBD0H@Z 00406d20 f i Lib_Network:s_COdbcManager.obj
 0001:00005d20       ?SetClubMasterFlags@GLDBMan@@UAEHKKK@Z 00406d20 f i Lib_Network:s_COdbcManager.obj
 0001:00005d20       ?SetPetStyle@GLDBMan@@UAEHHHH@Z 00406d20 f i Lib_Network:s_COdbcManager.obj
 0001:00005d20       ?EquipmentLockRecover@GLDBMan@@UAEHKPADAAV?$basic_string@DU?$char_traits@D@std@@V?$allocator@D@2@@std@@@Z 00406d20 f i Lib_Network:s_COdbcManager.obj
 0001:00005d20       ?UpdateUserMoneyAdd@GLDBMan@@UAEHK_J@Z 00406d20 f i Lib_Network:s_COdbcManager.obj
 0001:00005d20       ?SetVehicleBooster@GLDBMan@@UAEHHH_N@Z 00406d20 f i Lib_Network:s_COdbcManager.obj
 0001:00005d20       ?GetVehicleColor@GLDBMan@@UAEHPAUGLVEHICLE@@HH@Z 00406d20 f i Lib_Network:s_COdbcManager.obj
 0001:00005d20       ?SetClubIncomeMoney@GLDBMan@@UAEHK_J@Z 00406d20 f i Lib_Network:s_COdbcManager.obj
 0001:00005d20       ?SetVehicleInven@GLDBMan@@UAEHHHAAVCByteStream@@@Z 00406d20 f i Lib_Network:s_COdbcManager.obj
 0001:00005d20       ?SetClubAllianceDis@GLDBMan@@UAEHK_J@Z 00406d20 f i Lib_Network:s_COdbcManager.obj
 0001:00005d20       ?EquipmentLockRecoverChange@GLDBMan@@UAEHKPAD0@Z 00406d20 f i Lib_Network:s_COdbcManager.obj
 0001:00005d30       ?ReadClubMarkImage@GLDBMan@@UAEHKAAVCByteStream@@@Z 00406d30 f i Lib_Network:s_COdbcManager.obj
 0001:00005d30       ?DelClubRegion@GLDBMan@@UAEHKK@Z 00406d30 f i Lib_Network:s_COdbcManager.obj
 0001:00005d30       ?SetClubAlliance@GLDBMan@@UAEHKK@Z 00406d30 f i Lib_Network:s_COdbcManager.obj
 0001:00005d30       ?AddChaFriend@GLDBMan@@UAEHHH@Z 00406d30 f i Lib_Network:s_COdbcManager.obj
 0001:00005d30       ?LogUserAttend@GLDBMan@@UAEHHAAV?$vector@UUSER_ATTEND_INFO@@V?$allocator@UUSER_ATTEND_INFO@@@std@@@std@@@Z 00406d30 f i Lib_Network:s_COdbcManager.obj
 0001:00005d30       ?SetChaInvenNum@GLDBMan@@UAEHHG@Z 00406d30 f i Lib_Network:s_COdbcManager.obj
 0001:00005d30       ?GetPetFull@GLDBMan@@UAEHHK@Z 00406d30 f i Lib_Network:s_COdbcManager.obj
 0001:00005d30       ?SetClubDeputy@GLDBMan@@UAEHKK@Z 00406d30 f i Lib_Network:s_COdbcManager.obj
 0001:00005d30       ?SetClubAuthority@GLDBMan@@UAEHKK@Z 00406d30 f i Lib_Network:s_COdbcManager.obj
 0001:00005d30       ?RenameCharacter@GLDBMan@@UAEHKPAD@Z 00406d30 f i Lib_Network:s_COdbcManager.obj
 0001:00005d30       ?ExchangePet@GLDBMan@@UAEHHH@Z 00406d30 f i Lib_Network:s_COdbcManager.obj
 0001:00005d30       ?RestorePet@GLDBMan@@UAEHKH@Z 00406d30 f i Lib_Network:s_COdbcManager.obj
 0001:00005d30       ?GetVehicleBattery@GLDBMan@@UAEHHH@Z 00406d30 f i Lib_Network:s_COdbcManager.obj
 0001:00005d30       ?DelClubAlliance@GLDBMan@@UAEHKK@Z 00406d30 f i Lib_Network:s_COdbcManager.obj
 0001:00005d30       ?EquipmentLockRecoverDelete@GLDBMan@@UAEHKPAD@Z 00406d30 f i Lib_Network:s_COdbcManager.obj
 0001:00005d30       ?SetChaPhoneNumber@GLDBMan@@UAEHHPBD@Z 00406d30 f i Lib_Network:s_COdbcManager.obj
 0001:00005d30       ?DeleteClub@GLDBMan@@UAEHKK@Z 00406d30 f i Lib_Network:s_COdbcManager.obj
 0001:00005d30       ?DeletePet@GLDBMan@@UAEHHH@Z 00406d30 f i Lib_Network:s_COdbcManager.obj
 0001:00005d30       ?SetClubNotice@GLDBMan@@UAEHKPBD@Z 00406d30 f i Lib_Network:s_COdbcManager.obj
 0001:00005d30       ?GetRestorePetList@GLDBMan@@UAEHHAAV?$vector@UPET_RELIST@@V?$allocator@UPET_RELIST@@@std@@@std@@@Z 00406d30 f i Lib_Network:s_COdbcManager.obj
 0001:00005d30       ?SetChaHairColor@GLDBMan@@UAEHKH@Z 00406d30 f i Lib_Network:s_COdbcManager.obj
 0001:00005d30       ?InsertMsg@CSessionServer@@UAEHHPAX@Z 00406d30 f i Lib_Network:s_CSessionServer.obj
 0001:00005d30       ?GetClubMember@GLDBMan@@UAEHKAAV?$vector@UGLCLUBMEMBER@@V?$allocator@UGLCLUBMEMBER@@@std@@@std@@@Z 00406d30 f i Lib_Network:s_COdbcManager.obj
 0001:00005d30       ?ReadClubStorage@GLDBMan@@UAEHKAAVCByteStream@@@Z 00406d30 f i Lib_Network:s_COdbcManager.obj
 0001:00005d30       ?SetChaHairStyle@GLDBMan@@UAEHKH@Z 00406d30 f i Lib_Network:s_COdbcManager.obj
 0001:00005d30       ?SetClubRank@GLDBMan@@UAEHKK@Z 00406d30 f i Lib_Network:s_COdbcManager.obj
 0001:00005d30       ?GetClubBattleInfo@GLDBMan@@UAEHKAAV?$vector@UGLCLUBBATTLE@@V?$allocator@UGLCLUBBATTLE@@@std@@@std@@@Z 00406d30 f i Lib_Network:s_COdbcManager.obj
 0001:00005d30       ?DelChaFriend@GLDBMan@@UAEHHH@Z 00406d30 f i Lib_Network:s_COdbcManager.obj
 0001:00005d30       ?AddClubMember@GLDBMan@@UAEHKK@Z 00406d30 f i Lib_Network:s_COdbcManager.obj
 0001:00005d30       ?SetChaFaceStyle@GLDBMan@@UAEHKH@Z 00406d30 f i Lib_Network:s_COdbcManager.obj
 0001:00005d30       ?DeleteVehicle@GLDBMan@@UAEHHH@Z 00406d30 f i Lib_Network:s_COdbcManager.obj
 0001:00005d40       ?SetServiceProvider@COdbcManager@@QAEXH@Z 00406d40 f   Lib_Network:s_COdbcManager.obj
 0001:00005d50       ?ReleaseInstance@COdbcManager@@SAXXZ 00406d50 f   Lib_Network:s_COdbcManager.obj
 0001:00005d70       ?OpenUserDB@COdbcManager@@QAEHPAD000HH@Z 00406d70 f   Lib_Network:s_COdbcManager.obj
 0001:00005e20       ?OpenLogDB@COdbcManager@@QAEHPAD000HH@Z 00406e20 f   Lib_Network:s_COdbcManager.obj
 0001:00005ed0       ?OpenTerraDB@COdbcManager@@QAEHPAD000HH@Z 00406ed0 f   Lib_Network:s_COdbcManager.obj
 0001:00005f80       ?OpenGspDB@COdbcManager@@QAEHPAD000HH@Z 00406f80 f   Lib_Network:s_COdbcManager.obj
 0001:00006030       ?OpenThaiDB@COdbcManager@@QAEHPAD000HH@Z 00407030 f   Lib_Network:s_COdbcManager.obj
 0001:000060e0       ?Print@COdbcManager@@QAEXABV?$CStringT@DV?$StrTraitMFC_DLL@DV?$ChTraitsCRT@D@ATL@@@@@ATL@@@Z 004070e0 f   Lib_Network:s_COdbcManager.obj
 0001:00006110       ?GetErrorString@COdbcManager@@QAE?AV?$CStringT@DV?$StrTraitMFC_DLL@DV?$ChTraitsCRT@D@ATL@@@@@ATL@@PAX@Z 00407110 f   Lib_Network:s_COdbcManager.obj
 0001:00006250       ?AddJob@COdbcManager@@UAEXPAVCDbAction@@@Z 00407250 f   Lib_Network:s_COdbcManager.obj
 0001:00006270       ?AddLogJob@COdbcManager@@UAEXPAVCDbAction@@@Z 00407270 f   Lib_Network:s_COdbcManager.obj
 0001:00006290       ?AddUserJob@COdbcManager@@UAEXPAVCDbAction@@@Z 00407290 f   Lib_Network:s_COdbcManager.obj
 0001:000062b0       ?AddWebJob@COdbcManager@@UAEXPAVCDbAction@@@Z 004072b0 f   Lib_Network:s_COdbcManager.obj
 0001:000062d0       ?VerifyTimeValid@COdbcManager@@QAEXV?$basic_string@DU?$char_traits@D@std@@V?$allocator@D@2@@std@@0AAUtagTIMESTAMP_STRUCT@@@Z 004072d0 f   Lib_Network:s_COdbcManager.obj
 0001:000063a0       ??0COdbcManager@@AAE@XZ    004073a0 f   Lib_Network:s_COdbcManager.obj
 0001:00006420       ??_ECOdbcManager@@G3AEPAXI@Z 00407420 f i Lib_Network:s_COdbcManager.obj
 0001:00006430       ??1COdbcManager@@EAE@XZ    00407430 f   Lib_Network:s_COdbcManager.obj
 0001:000065a0       ?GetInstance@COdbcManager@@SAPAV1@XZ 004075a0 f   Lib_Network:s_COdbcManager.obj
 0001:00006610       ??_ECOdbcManager@@EAEPAXI@Z 00407610 f i Lib_Network:s_COdbcManager.obj
 0001:00006610       ??_GCOdbcManager@@EAEPAXI@Z 00407610 f i Lib_Network:s_COdbcManager.obj
 0001:00006630       ?ReleaseInstance@CCfg@@SAXXZ 00407630 f   Lib_Network:s_CCfg.obj
 0001:00006650       ?SetDefault@CCfg@@QAEXXZ   00407650 f   Lib_Network:s_CCfg.obj
 0001:00006730       ?GetServerVersion@CCfg@@QAEHXZ 00407730 f   Lib_Network:s_CCfg.obj
 0001:00006740       ?GetPatchVersion@CCfg@@QAEHXZ 00407740 f   Lib_Network:s_CCfg.obj
 0001:00006750       ?GetServicePort@CCfg@@QAEHXZ 00407750 f   Lib_Network:s_CCfg.obj
 0001:00006760       ?GetServerGroup@CCfg@@QAEHXZ 00407760 f   Lib_Network:s_CCfg.obj
 0001:00006770       ?GetServerNumber@CCfg@@QAEHXZ 00407770 f   Lib_Network:s_CCfg.obj
 0001:00006770       ?IsStereo@DxSoundMan@@QAEHXZ 00407770 f   Lib_Engine:DxSoundMan.obj
 0001:00006780       ?GetServerType@CCfg@@QAEHXZ 00407780 f   Lib_Network:s_CCfg.obj
 0001:00006780       ?GetSfxVolume@DxSoundMan@@QAEJXZ 00407780 f   Lib_Engine:DxSoundMan.obj
 0001:00006790       ?GetServerMaxClient@CCfg@@QAEHXZ 00407790 f   Lib_Network:s_CCfg.obj
 0001:000067a0       ?GetServerChannel@CCfg@@QAEHXZ 004077a0 f   Lib_Network:s_CCfg.obj
 0001:000067b0       ?GetServerChannelNumber@CCfg@@QAEHXZ 004077b0 f   Lib_Network:s_CCfg.obj
 0001:000067c0       ?GetServerChannelMaxClient@CCfg@@QAEHXZ 004077c0 f   Lib_Network:s_CCfg.obj
 0001:000067d0       ?GetServiceProvider@CCfg@@QAEHXZ 004077d0 f   Lib_Network:s_CCfg.obj
 0001:000067e0       ?GetMaxThread@CCfg@@QAEHXZ 004077e0 f   Lib_Network:s_CCfg.obj
 0001:000067f0       ?GetServerIP@CCfg@@QAEPBDXZ 004077f0 f   Lib_Network:s_CCfg.obj
 0001:00006800       ?IsTestServer@CCfg@@QAE_NXZ 00407800 f   Lib_Network:s_CCfg.obj
 0001:00006810       ?AdultCheck@CCfg@@QAE_NXZ  00407810 f   Lib_Network:s_CCfg.obj
 0001:00006820       ?IsPKServer@CCfg@@QAE_NXZ  00407820 f   Lib_Network:s_CCfg.obj
 0001:00006830       ?IsUserEventThread@CCfg@@QAEHXZ 00407830 f   Lib_Network:s_CCfg.obj
 0001:00006840       ?GetLangSet@CCfg@@QAEHXZ   00407840 f   Lib_Network:s_CCfg.obj
 0001:00006850       ?GetUserOdbcName@CCfg@@QAEPADXZ 00407850 f   Lib_Network:s_CCfg.obj
 0001:00006860       ?GetUserOdbcUser@CCfg@@QAEPADXZ 00407860 f   Lib_Network:s_CCfg.obj
 0001:00006870       ?GetUserOdbcPass@CCfg@@QAEPADXZ 00407870 f   Lib_Network:s_CCfg.obj
 0001:00006880       ?GetUserOdbcDatabase@CCfg@@QAEPADXZ 00407880 f   Lib_Network:s_CCfg.obj
 0001:00006890       ?GetUserOdbcResponseTime@CCfg@@QAEHXZ 00407890 f   Lib_Network:s_CCfg.obj
 0001:000068a0       ?GetUserOdbcPoolSize@CCfg@@QAEHXZ 004078a0 f   Lib_Network:s_CCfg.obj
 0001:000068b0       ?GetLogOdbcName@CCfg@@QAEPADXZ 004078b0 f   Lib_Network:s_CCfg.obj
 0001:000068c0       ?GetLogOdbcUser@CCfg@@QAEPADXZ 004078c0 f   Lib_Network:s_CCfg.obj
 0001:000068d0       ?GetLogOdbcPass@CCfg@@QAEPADXZ 004078d0 f   Lib_Network:s_CCfg.obj
 0001:000068e0       ?GetLogOdbcDatabase@CCfg@@QAEPADXZ 004078e0 f   Lib_Network:s_CCfg.obj
 0001:000068f0       ?GetLogOdbcResponseTime@CCfg@@QAEHXZ 004078f0 f   Lib_Network:s_CCfg.obj
 0001:00006900       ?GetLogOdbcPoolSize@CCfg@@QAEHXZ 00407900 f   Lib_Network:s_CCfg.obj
 0001:00006910       ?GetTerraOdbcName@CCfg@@QAEPADXZ 00407910 f   Lib_Network:s_CCfg.obj
 0001:00006920       ?GetTerraOdbcUser@CCfg@@QAEPADXZ 00407920 f   Lib_Network:s_CCfg.obj
 0001:00006930       ?GetTerraOdbcPass@CCfg@@QAEPADXZ 00407930 f   Lib_Network:s_CCfg.obj
 0001:00006940       ?GetTerraOdbcDatabase@CCfg@@QAEPADXZ 00407940 f   Lib_Network:s_CCfg.obj
 0001:00006950       ?GetTerraOdbcResponseTime@CCfg@@QAEHXZ 00407950 f   Lib_Network:s_CCfg.obj
 0001:00006960       ?GetTerraOdbcPoolSize@CCfg@@QAEHXZ 00407960 f   Lib_Network:s_CCfg.obj
 0001:00006970       ?GetGspOdbcName@CCfg@@QAEPADXZ 00407970 f   Lib_Network:s_CCfg.obj
 0001:00006980       ?GetGspOdbcUser@CCfg@@QAEPADXZ 00407980 f   Lib_Network:s_CCfg.obj
 0001:00006990       ?GetGspOdbcPass@CCfg@@QAEPADXZ 00407990 f   Lib_Network:s_CCfg.obj
 0001:000069a0       ?GetGspOdbcDatabase@CCfg@@QAEPADXZ 004079a0 f   Lib_Network:s_CCfg.obj
 0001:000069b0       ?GetGspOdbcResponseTime@CCfg@@QAEHXZ 004079b0 f   Lib_Network:s_CCfg.obj
 0001:000069c0       ?GetGspOdbcPoolSize@CCfg@@QAEHXZ 004079c0 f   Lib_Network:s_CCfg.obj
 0001:000069d0       ?IsPKLessServer@CCfg@@QAE_NXZ 004079d0 f   Lib_Network:s_CCfg.obj
 0001:000069e0       ?GetIPClientMax@CCfg@@QAEGXZ 004079e0 f   Lib_Network:s_CCfg.obj
 0001:000069f0       ?GetServerName@CCfg@@QAEPBDXZ 004079f0 f   Lib_Network:s_CCfg.obj
 0001:00006a00       ??0CCfg@@AAE@XZ            00407a00 f   Lib_Network:s_CCfg.obj
 0001:00006ab0       ??_GCCfg@@EAEPAXI@Z        00407ab0 f i Lib_Network:s_CCfg.obj
 0001:00006ab0       ??_ECCfg@@EAEPAXI@Z        00407ab0 f i Lib_Network:s_CCfg.obj
 0001:00006ad0       ?GetInstance@CCfg@@SAPAV1@XZ 00407ad0 f   Lib_Network:s_CCfg.obj
 0001:00006b00       ?Process@CCfg@@QAEHPAD@Z   00407b00 f   Lib_Network:s_CCfg.obj
 0001:00008b20       ?Load@CCfg@@QAEHPBD@Z      00409b20 f   Lib_Network:s_CCfg.obj
 0001:00008c80       ?SetServer@CDbExecuter@@QAEXPAVCServer@@@Z 00409c80 f   Lib_Network:s_CDbAction.obj
 0001:00008c90       ?_Xlen@?$deque@PAVCDbAction@@V?$allocator@PAVCDbAction@@@std@@@std@@IBEXXZ 00409c90 f i Lib_Network:s_CDbAction.obj
 0001:00008d10       ?_Tidy@?$deque@PAVCDbAction@@V?$allocator@PAVCDbAction@@@std@@@std@@IAEXXZ 00409d10 f i Lib_Network:s_CDbAction.obj
 0001:00008d10       ?_Tidy@?$deque@PAUCEMULMSG@?A0x033da951@@V?$allocator@PAUCEMULMSG@?A0x033da951@@@std@@@std@@IAEXXZ 00409d10 f i Lib_Client:DxGlobalStage.obj
 0001:00008d10       ?_Tidy@?$deque@HV?$allocator@H@std@@@std@@IAEXXZ 00409d10 f i Lib_Network:s_CClientManager.obj
 0001:00008d80       ?_Growmap@?$deque@PAVCDbAction@@V?$allocator@PAVCDbAction@@@std@@@std@@IAEXI@Z 00409d80 f i Lib_Network:s_CDbAction.obj
 0001:00008ee0       ?push_back@?$deque@PAVCDbAction@@V?$allocator@PAVCDbAction@@@std@@@std@@QAEXABQAVCDbAction@@@Z 00409ee0 f i Lib_Network:s_CDbAction.obj
 0001:00008f60       ??1CLogDbExecuter@@EAE@XZ  00409f60 f i Lib_Network:s_CDbAction.obj
 0001:00008f80       ??_GCLogDbExecuter@@EAEPAXI@Z 00409f80 f i Lib_Network:s_CDbAction.obj
 0001:00008f80       ??_ECLogDbExecuter@@EAEPAXI@Z 00409f80 f i Lib_Network:s_CDbAction.obj
 0001:00008fa0       ??1CUserDbExecuter@@EAE@XZ 00409fa0 f i Lib_Network:s_CDbAction.obj
 0001:00008fc0       ??_GCUserDbExecuter@@EAEPAXI@Z 00409fc0 f i Lib_Network:s_CDbAction.obj
 0001:00008fc0       ??_ECUserDbExecuter@@EAEPAXI@Z 00409fc0 f i Lib_Network:s_CDbAction.obj
 0001:00008fe0       ??1CWebDbExecuter@@EAE@XZ  00409fe0 f i Lib_Network:s_CDbAction.obj
 0001:00009000       ??_GCWebDbExecuter@@EAEPAXI@Z 0040a000 f i Lib_Network:s_CDbAction.obj
 0001:00009000       ??_ECWebDbExecuter@@EAEPAXI@Z 0040a000 f i Lib_Network:s_CDbAction.obj
 0001:00009020       ?ExecuteJob@CDbExecuter@@QAEXXZ 0040a020 f   Lib_Network:s_CDbAction.obj
 0001:000090c0       ?ExecuteJobLast@CDbExecuter@@QAEXXZ 0040a0c0 f   Lib_Network:s_CDbAction.obj
 0001:00009150       ??1CDbExecuter@@EAE@XZ     0040a150 f i Lib_Network:s_CDbAction.obj
 0001:00009170       ??_ECDbExecuter@@EAEPAXI@Z 0040a170 f i Lib_Network:s_CDbAction.obj
 0001:00009170       ??_GCDbExecuter@@EAEPAXI@Z 0040a170 f i Lib_Network:s_CDbAction.obj
 0001:00009190       ?GetInstance@CLogDbExecuter@@SAPAV1@XZ 0040a190 f   Lib_Network:s_CDbAction.obj
 0001:00009220       ?AddJob@CUserDbExecuter@@QAEXPAVCDbAction@@@Z 0040a220 f   Lib_Network:s_CDbAction.obj
 0001:00009220       ?AddJob@CWebDbExecuter@@QAEXPAVCDbAction@@@Z 0040a220 f   Lib_Network:s_CDbAction.obj
 0001:00009220       ?AddJob@CLogDbExecuter@@QAEXPAVCDbAction@@@Z 0040a220 f   Lib_Network:s_CDbAction.obj
 0001:00009220       ?AddJob@CDbExecuter@@QAEXPAVCDbAction@@@Z 0040a220 f   Lib_Network:s_CDbAction.obj
 0001:00009240       ?GetInstance@CUserDbExecuter@@SAPAV1@XZ 0040a240 f   Lib_Network:s_CDbAction.obj
 0001:000092d0       ?GetInstance@CWebDbExecuter@@SAPAV1@XZ 0040a2d0 f   Lib_Network:s_CDbAction.obj
 0001:00009360       ?GetInstance@CDbExecuter@@SAPAV1@XZ 0040a360 f   Lib_Network:s_CDbAction.obj
 0001:000093f0       ??_Eout_of_range@std@@UAEPAXI@Z 0040a3f0 f i Lib_Network:s_CClientManager.obj
 0001:000093f0       ??_Gout_of_range@std@@UAEPAXI@Z 0040a3f0 f i Lib_Network:s_CClientManager.obj
 0001:00009410       ??1out_of_range@std@@UAE@XZ 0040a410 f i Lib_Network:s_CClientManager.obj
 0001:00009420       ??_ECNetUser@@UAEPAXI@Z    0040a420 f i Lib_Network:s_CClientManager.obj
 0001:00009480       ?IsOnline@CClientManager@@QAE_NK@Z 0040a480 f   Lib_Network:s_CClientManager.obj
 0001:000094a0       ?GetMaxClient@CClientManager@@QAEHXZ 0040a4a0 f   Lib_Network:s_CClientManager.obj
 0001:000094b0       ?SetNetMode@CClientManager@@QAEXKH@Z 0040a4b0 f   Lib_Network:s_CClientManager.obj
 0001:000094e0       ?GetClientIP@CClientManager@@QAEPADK@Z 0040a4e0 f   Lib_Network:s_CClientManager.obj
 0001:00009500       ?addRcvMsg@CClientManager@@QAEHKPAXK@Z 0040a500 f   Lib_Network:s_CClientManager.obj
 0001:00009540       ?getRcvMsg@CClientManager@@QAEPAXK_N@Z 0040a540 f   Lib_Network:s_CClientManager.obj
 0001:00009570       ?GetSocket@CClientManager@@QAEIK@Z 0040a570 f   Lib_Network:s_CClientManager.obj
 0001:00009590       ?GetSlotType@CClientManager@@QAEKK@Z 0040a590 f   Lib_Network:s_CClientManager.obj
 0001:000095b0       ?ResetHeartBeat@CClientManager@@QAEXK@Z 0040a5b0 f   Lib_Network:s_CClientManager.obj
 0001:000095d0       ?SetHeartBeat@CClientManager@@QAEXK@Z 0040a5d0 f   Lib_Network:s_CClientManager.obj
 0001:000095f0       ?CheckHeartBeat@CClientManager@@QAE_NK@Z 0040a5f0 f   Lib_Network:s_CClientManager.obj
 0001:00009610       ?resetPacketCount@CClientManager@@QAEXXZ 0040a610 f   Lib_Network:s_CClientManager.obj
 0001:00009640       ?IPSetClientMax@CClientManager@@QAEXG@Z 0040a640 f   Lib_Network:s_CClientManager.obj
 0001:00009690       ?IPGetDenyNum@CClientManager@@QAE_KXZ 0040a690 f   Lib_Network:s_CClientManager.obj
 0001:000096a0       ?_Xlen@?$vector@HV?$allocator@H@std@@@std@@IBEXXZ 0040a6a0 f i Lib_Network:s_CClientManager.obj
 0001:00009720       ?_Max@?$_Tree@V?$_Tset_traits@KU?$less@K@std@@V?$allocator@K@2@$0A@@std@@@std@@KAPAU_Node@?$_Tree_nod@V?$_Tset_traits@KU?$less@K@std@@V?$allocator@K@2@$0A@@std@@@2@PAU342@@Z 0040a720 f i Lib_Network:s_CClientManager.obj
 0001:00009740       ?_Min@?$_Tree@V?$_Tset_traits@KU?$less@K@std@@V?$allocator@K@2@$0A@@std@@@std@@KAPAU_Node@?$_Tree_nod@V?$_Tset_traits@KU?$less@K@std@@V?$allocator@K@2@$0A@@std@@@2@PAU342@@Z 0040a740 f i Lib_Network:s_CClientManager.obj
 0001:00009760       ?_Rrotate@?$_Tree@V?$_Tset_traits@KU?$less@K@std@@V?$allocator@K@2@$0A@@std@@@std@@IAEXPAU_Node@?$_Tree_nod@V?$_Tset_traits@KU?$less@K@std@@V?$allocator@K@2@$0A@@std@@@2@@Z 0040a760 f i Lib_Network:s_CClientManager.obj
 0001:000097c0       ?_Max@?$_Tree@V?$_Tmap_traits@V?$basic_string@DU?$char_traits@D@std@@V?$allocator@D@2@@std@@V?$set@KU?$less@K@std@@V?$allocator@K@2@@2@U?$less@V?$basic_string@DU?$char_traits@D@std@@V?$allocator@D@2@@std@@@2@V?$allocator@U?$pair@$$CBV?$basic_string@DU?$char_traits@D@std@@V?$allocator@D@2@@std@@V?$set@KU?$less@K@std@@V?$allocator@K@2@@2@@std@@@2@$0A@@std@@@std@@KAPAU_Node@?$_Tree_nod@V?$_Tmap_traits@V?$basic_string@DU?$char_traits@D@std@@V?$allocator@D@2@@std@@V?$set@KU?$less@K@std@@V?$allocator@K@2@@2@U?$less@V?$basic_string@DU?$char_traits@D@std@@V?$allocator@D@2@@std@@@2@V?$allocator@U?$pair@$$CBV?$basic_string@DU?$char_traits@D@std@@V?$allocator@D@2@@std@@V?$set@KU?$less@K@std@@V?$allocator@K@2@@2@@std@@@2@$0A@@std@@@2@PAU342@@Z 0040a7c0 f i Lib_Network:s_CClientManager.obj
 0001:000097e0       ?_Min@?$_Tree@V?$_Tmap_traits@V?$basic_string@DU?$char_traits@D@std@@V?$allocator@D@2@@std@@V?$set@KU?$less@K@std@@V?$allocator@K@2@@2@U?$less@V?$basic_string@DU?$char_traits@D@std@@V?$allocator@D@2@@std@@@2@V?$allocator@U?$pair@$$CBV?$basic_string@DU?$char_traits@D@std@@V?$allocator@D@2@@std@@V?$set@KU?$less@K@std@@V?$allocator@K@2@@2@@std@@@2@$0A@@std@@@std@@KAPAU_Node@?$_Tree_nod@V?$_Tmap_traits@V?$basic_string@DU?$char_traits@D@std@@V?$allocator@D@2@@std@@V?$set@KU?$less@K@std@@V?$allocator@K@2@@2@U?$less@V?$basic_string@DU?$char_traits@D@std@@V?$allocator@D@2@@std@@@2@V?$allocator@U?$pair@$$CBV?$basic_string@DU?$char_traits@D@std@@V?$allocator@D@2@@std@@V?$set@KU?$less@K@std@@V?$allocator@K@2@@2@@std@@@2@$0A@@std@@@2@PAU342@@Z 0040a7e0 f i Lib_Network:s_CClientManager.obj
 0001:00009800       ?_Rrotate@?$_Tree@V?$_Tmap_traits@V?$basic_string@DU?$char_traits@D@std@@V?$allocator@D@2@@std@@V?$set@KU?$less@K@std@@V?$allocator@K@2@@2@U?$less@V?$basic_string@DU?$char_traits@D@std@@V?$allocator@D@2@@std@@@2@V?$allocator@U?$pair@$$CBV?$basic_string@DU?$char_traits@D@std@@V?$allocator@D@2@@std@@V?$set@KU?$less@K@std@@V?$allocator@K@2@@2@@std@@@2@$0A@@std@@@std@@IAEXPAU_Node@?$_Tree_nod@V?$_Tmap_traits@V?$basic_string@DU?$char_traits@D@std@@V?$allocator@D@2@@std@@V?$set@KU?$less@K@std@@V?$allocator@K@2@@2@U?$less@V?$basic_string@DU?$char_traits@D@std@@V?$allocator@D@2@@std@@@2@V?$allocator@U?$pair@$$CBV?$basic_string@DU?$char_traits@D@std@@V?$allocator@D@2@@std@@V?$set@KU?$less@K@std@@V?$allocator@K@2@@2@@std@@@2@$0A@@std@@@2@@Z 0040a800 f i Lib_Network:s_CClientManager.obj
 0001:00009860       ??R?$less@V?$basic_string@DU?$char_traits@D@std@@V?$allocator@D@2@@std@@@std@@QBE_NABV?$basic_string@DU?$char_traits@D@std@@V?$allocator@D@2@@1@0@Z 0040a860 f i Lib_Network:s_CClientManager.obj
 0001:00009880       ?_Max@?$_Tree@V?$_Tset_traits@V?$basic_string@DU?$char_traits@D@std@@V?$allocator@D@2@@std@@U?$less@V?$basic_string@DU?$char_traits@D@std@@V?$allocator@D@2@@std@@@2@V?$allocator@V?$basic_string@DU?$char_traits@D@std@@V?$allocator@D@2@@std@@@2@$0A@@std@@@std@@KAPAU_Node@?$_Tree_nod@V?$_Tset_traits@V?$basic_string@DU?$char_traits@D@std@@V?$allocator@D@2@@std@@U?$less@V?$basic_string@DU?$char_traits@D@std@@V?$allocator@D@2@@std@@@2@V?$allocator@V?$basic_string@DU?$char_traits@D@std@@V?$allocator@D@2@@std@@@2@$0A@@std@@@2@PAU342@@Z 0040a880 f i Lib_Network:s_CClientManager.obj
 0001:000098a0       ?_Min@?$_Tree@V?$_Tset_traits@V?$basic_string@DU?$char_traits@D@std@@V?$allocator@D@2@@std@@U?$less@V?$basic_string@DU?$char_traits@D@std@@V?$allocator@D@2@@std@@@2@V?$allocator@V?$basic_string@DU?$char_traits@D@std@@V?$allocator@D@2@@std@@@2@$0A@@std@@@std@@KAPAU_Node@?$_Tree_nod@V?$_Tset_traits@V?$basic_string@DU?$char_traits@D@std@@V?$allocator@D@2@@std@@U?$less@V?$basic_string@DU?$char_traits@D@std@@V?$allocator@D@2@@std@@@2@V?$allocator@V?$basic_string@DU?$char_traits@D@std@@V?$allocator@D@2@@std@@@2@$0A@@std@@@2@PAU342@@Z 0040a8a0 f i Lib_Network:s_CClientManager.obj
 0001:000098c0       ?_Rrotate@?$_Tree@V?$_Tset_traits@V?$basic_string@DU?$char_traits@D@std@@V?$allocator@D@2@@std@@U?$less@V?$basic_string@DU?$char_traits@D@std@@V?$allocator@D@2@@std@@@2@V?$allocator@V?$basic_string@DU?$char_traits@D@std@@V?$allocator@D@2@@std@@@2@$0A@@std@@@std@@IAEXPAU_Node@?$_Tree_nod@V?$_Tset_traits@V?$basic_string@DU?$char_traits@D@std@@V?$allocator@D@2@@std@@U?$less@V?$basic_string@DU?$char_traits@D@std@@V?$allocator@D@2@@std@@@2@V?$allocator@V?$basic_string@DU?$char_traits@D@std@@V?$allocator@D@2@@std@@@2@$0A@@std@@@2@@Z 0040a8c0 f i Lib_Network:s_CClientManager.obj
 0001:00009920       ?_Xlen@?$deque@HV?$allocator@H@std@@@std@@IBEXXZ 0040a920 f i Lib_Network:s_CClientManager.obj
 0001:000099a0       ?_Inc@const_iterator@?$_Tree@V?$_Tmap_traits@V?$basic_string@DU?$char_traits@D@std@@V?$allocator@D@2@@std@@V?$set@KU?$less@K@std@@V?$allocator@K@2@@2@U?$less@V?$basic_string@DU?$char_traits@D@std@@V?$allocator@D@2@@std@@@2@V?$allocator@U?$pair@$$CBV?$basic_string@DU?$char_traits@D@std@@V?$allocator@D@2@@std@@V?$set@KU?$less@K@std@@V?$allocator@K@2@@2@@std@@@2@$0A@@std@@@std@@QAEXXZ 0040a9a0 f i Lib_Network:s_CClientManager.obj
 0001:00009a00       ?_Dec@const_iterator@?$_Tree@V?$_Tmap_traits@V?$basic_string@DU?$char_traits@D@std@@V?$allocator@D@2@@std@@V?$set@KU?$less@K@std@@V?$allocator@K@2@@2@U?$less@V?$basic_string@DU?$char_traits@D@std@@V?$allocator@D@2@@std@@@2@V?$allocator@U?$pair@$$CBV?$basic_string@DU?$char_traits@D@std@@V?$allocator@D@2@@std@@V?$set@KU?$less@K@std@@V?$allocator@K@2@@2@@std@@@2@$0A@@std@@@std@@QAEXXZ 0040aa00 f i Lib_Network:s_CClientManager.obj
 0001:00009a60       ?_Dec@const_iterator@?$_Tree@V?$_Tset_traits@KU?$less@K@std@@V?$allocator@K@2@$0A@@std@@@std@@QAEXXZ 0040aa60 f i Lib_Network:s_CClientManager.obj
 0001:00009ac0       ?_Inc@const_iterator@?$_Tree@V?$_Tset_traits@KU?$less@K@std@@V?$allocator@K@2@$0A@@std@@@std@@QAEXXZ 0040aac0 f i Lib_Network:s_CClientManager.obj
 0001:00009b20       ?_Dec@const_iterator@?$_Tree@V?$_Tset_traits@V?$basic_string@DU?$char_traits@D@std@@V?$allocator@D@2@@std@@U?$less@V?$basic_string@DU?$char_traits@D@std@@V?$allocator@D@2@@std@@@2@V?$allocator@V?$basic_string@DU?$char_traits@D@std@@V?$allocator@D@2@@std@@@2@$0A@@std@@@std@@QAEXXZ 0040ab20 f i Lib_Network:s_CClientManager.obj
 0001:00009b80       ?_Inc@const_iterator@?$_Tree@V?$_Tset_traits@V?$basic_string@DU?$char_traits@D@std@@V?$allocator@D@2@@std@@U?$less@V?$basic_string@DU?$char_traits@D@std@@V?$allocator@D@2@@std@@@2@V?$allocator@V?$basic_string@DU?$char_traits@D@std@@V?$allocator@D@2@@std@@@2@$0A@@std@@@std@@QAEXXZ 0040ab80 f i Lib_Network:s_CClientManager.obj
 0001:00009be0       ?GetCurrentClientNumber@CClientManager@@QAEHXZ 0040abe0 f   Lib_Network:s_CClientManager.obj
 0001:00009bf0       ?IPGetCount@CClientManager@@QAEKXZ 0040abf0 f   Lib_Network:s_CClientManager.obj
 0001:00009c00       ?IPGetExcludedCount@CClientManager@@QAEKXZ 0040ac00 f   Lib_Network:s_CClientManager.obj
 0001:00009c00       ?GetMapVolume@DxSoundMan@@QAEJXZ 0040ac00 f   Lib_Engine:DxSoundMan.obj
 0001:00009c10       ?_Lrotate@?$_Tree@V?$_Tset_traits@KU?$less@K@std@@V?$allocator@K@2@$0A@@std@@@std@@IAEXPAU_Node@?$_Tree_nod@V?$_Tset_traits@KU?$less@K@std@@V?$allocator@K@2@$0A@@std@@@2@@Z 0040ac10 f i Lib_Network:s_CClientManager.obj
 0001:00009c70       ?_Lrotate@?$_Tree@V?$_Tmap_traits@V?$basic_string@DU?$char_traits@D@std@@V?$allocator@D@2@@std@@V?$set@KU?$less@K@std@@V?$allocator@K@2@@2@U?$less@V?$basic_string@DU?$char_traits@D@std@@V?$allocator@D@2@@std@@@2@V?$allocator@U?$pair@$$CBV?$basic_string@DU?$char_traits@D@std@@V?$allocator@D@2@@std@@V?$set@KU?$less@K@std@@V?$allocator@K@2@@2@@std@@@2@$0A@@std@@@std@@IAEXPAU_Node@?$_Tree_nod@V?$_Tmap_traits@V?$basic_string@DU?$char_traits@D@std@@V?$allocator@D@2@@std@@V?$set@KU?$less@K@std@@V?$allocator@K@2@@2@U?$less@V?$basic_string@DU?$char_traits@D@std@@V?$allocator@D@2@@std@@@2@V?$allocator@U?$pair@$$CBV?$basic_string@DU?$char_traits@D@std@@V?$allocator@D@2@@std@@V?$set@KU?$less@K@std@@V?$allocator@K@2@@2@@std@@@2@$0A@@std@@@2@@Z 0040ac70 f i Lib_Network:s_CClientManager.obj
 0001:00009cd0       ?_Lrotate@?$_Tree@V?$_Tset_traits@V?$basic_string@DU?$char_traits@D@std@@V?$allocator@D@2@@std@@U?$less@V?$basic_string@DU?$char_traits@D@std@@V?$allocator@D@2@@std@@@2@V?$allocator@V?$basic_string@DU?$char_traits@D@std@@V?$allocator@D@2@@std@@@2@$0A@@std@@@std@@IAEXPAU_Node@?$_Tree_nod@V?$_Tset_traits@V?$basic_string@DU?$char_traits@D@std@@V?$allocator@D@2@@std@@U?$less@V?$basic_string@DU?$char_traits@D@std@@V?$allocator@D@2@@std@@@2@V?$allocator@V?$basic_string@DU?$char_traits@D@std@@V?$allocator@D@2@@std@@@2@$0A@@std@@@2@@Z 0040acd0 f i Lib_Network:s_CClientManager.obj
 0001:00009d30       ?_Lbound@?$_Tree@V?$_Tmap_traits@V?$basic_string@DU?$char_traits@D@std@@V?$allocator@D@2@@std@@V?$set@KU?$less@K@std@@V?$allocator@K@2@@2@U?$less@V?$basic_string@DU?$char_traits@D@std@@V?$allocator@D@2@@std@@@2@V?$allocator@U?$pair@$$CBV?$basic_string@DU?$char_traits@D@std@@V?$allocator@D@2@@std@@V?$set@KU?$less@K@std@@V?$allocator@K@2@@2@@std@@@2@$0A@@std@@@std@@IBEPAU_Node@?$_Tree_nod@V?$_Tmap_traits@V?$basic_string@DU?$char_traits@D@std@@V?$allocator@D@2@@std@@V?$set@KU?$less@K@std@@V?$allocator@K@2@@2@U?$less@V?$basic_string@DU?$char_traits@D@std@@V?$allocator@D@2@@std@@@2@V?$allocator@U?$pair@$$CBV?$basic_string@DU?$char_traits@D@std@@V?$allocator@D@2@@std@@V?$set@KU?$less@K@std@@V?$allocator@K@2@@2@@std@@@2@$0A@@std@@@2@ABV?$basic_string@DU?$char_traits@D@std@@V?$allocator@D@2@@2@@Z 0040ad30 f i Lib_Network:s_CClientManager.obj
 0001:00009d80       ?_Lbound@?$_Tree@V?$_Tset_traits@V?$basic_string@DU?$char_traits@D@std@@V?$allocator@D@2@@std@@U?$less@V?$basic_string@DU?$char_traits@D@std@@V?$allocator@D@2@@std@@@2@V?$allocator@V?$basic_string@DU?$char_traits@D@std@@V?$allocator@D@2@@std@@@2@$0A@@std@@@std@@IBEPAU_Node@?$_Tree_nod@V?$_Tset_traits@V?$basic_string@DU?$char_traits@D@std@@V?$allocator@D@2@@std@@U?$less@V?$basic_string@DU?$char_traits@D@std@@V?$allocator@D@2@@std@@@2@V?$allocator@V?$basic_string@DU?$char_traits@D@std@@V?$allocator@D@2@@std@@@2@$0A@@std@@@2@ABV?$basic_string@DU?$char_traits@D@std@@V?$allocator@D@2@@2@@Z 0040ad80 f i Lib_Network:s_CClientManager.obj
 0001:00009dd0       ?_Erase@?$_Tree@V?$_Tset_traits@KU?$less@K@std@@V?$allocator@K@2@$0A@@std@@@std@@IAEXPAU_Node@?$_Tree_nod@V?$_Tset_traits@KU?$less@K@std@@V?$allocator@K@2@$0A@@std@@@2@@Z 0040add0 f i Lib_Network:s_CClientManager.obj
 0001:00009e10       ?_Erase@?$_Tree@V?$_Tmap_traits@HHU?$less@H@std@@V?$allocator@U?$pair@$$CBHH@std@@@2@$0A@@std@@@std@@IAEXPAU_Node@?$_Tree_nod@V?$_Tmap_traits@HHU?$less@H@std@@V?$allocator@U?$pair@$$CBHH@std@@@2@$0A@@std@@@2@@Z 0040ae10 f i Lib_Network:s_CClientManager.obj
 0001:00009e50       ??$copy_backward@PAHPAH@std@@YAPAHPAH00@Z 0040ae50 f i Lib_Network:s_CClientManager.obj
 0001:00009e80       ?_Buynode@?$_Tree@V?$_Tset_traits@KU?$less@K@std@@V?$allocator@K@2@$0A@@std@@@std@@IAEPAU_Node@?$_Tree_nod@V?$_Tset_traits@KU?$less@K@std@@V?$allocator@K@2@$0A@@std@@@2@XZ 0040ae80 f i Lib_Network:s_CClientManager.obj
 0001:00009ec0       ?_Buynode@?$_Tree@V?$_Tset_traits@KU?$less@K@std@@V?$allocator@K@2@$0A@@std@@@std@@IAEPAU_Node@?$_Tree_nod@V?$_Tset_traits@KU?$less@K@std@@V?$allocator@K@2@$0A@@std@@@2@PAU342@00ABKD@Z 0040aec0 f i Lib_Network:s_CClientManager.obj
 0001:00009f00       ?_Buynode@?$_Tree@V?$_Tset_traits@V?$basic_string@DU?$char_traits@D@std@@V?$allocator@D@2@@std@@U?$less@V?$basic_string@DU?$char_traits@D@std@@V?$allocator@D@2@@std@@@2@V?$allocator@V?$basic_string@DU?$char_traits@D@std@@V?$allocator@D@2@@std@@@2@$0A@@std@@@std@@IAEPAU_Node@?$_Tree_nod@V?$_Tset_traits@V?$basic_string@DU?$char_traits@D@std@@V?$allocator@D@2@@std@@U?$less@V?$basic_string@DU?$char_traits@D@std@@V?$allocator@D@2@@std@@@2@V?$allocator@V?$basic_string@DU?$char_traits@D@std@@V?$allocator@D@2@@std@@@2@$0A@@std@@@2@PAU342@00ABV?$basic_string@DU?$char_traits@D@std@@V?$allocator@D@2@@2@D@Z 0040af00 f i Lib_Network:s_CClientManager.obj
 0001:00009fa0       ?_Buynode@?$_Tree@V?$_Tmap_traits@U?$pair@GG@std@@PAUSINVENITEM@@U?$less@U?$pair@GG@std@@@2@V?$allocator@U?$pair@$$CBU?$pair@GG@std@@PAUSINVENITEM@@@std@@@2@$0A@@std@@@std@@IAEPAU_Node@?$_Tree_nod@V?$_Tmap_traits@U?$pair@GG@std@@PAUSINVENITEM@@U?$less@U?$pair@GG@std@@@2@V?$allocator@U?$pair@$$CBU?$pair@GG@std@@PAUSINVENITEM@@@std@@@2@$0A@@std@@@2@PAU342@00ABU?$pair@$$CBU?$pair@GG@std@@PAUSINVENITEM@@@2@D@Z 0040afa0 f i Lib_Client:GLInventory.obj
 0001:00009fa0       ?_Buynode@?$_Tree@V?$_Tmap_traits@MPAVDXLIGHT@@U?$less@M@std@@V?$allocator@U?$pair@$$CBMPAVDXLIGHT@@@std@@@3@$00@std@@@std@@IAEPAU_Node@?$_Tree_nod@V?$_Tmap_traits@MPAVDXLIGHT@@U?$less@M@std@@V?$allocator@U?$pair@$$CBMPAVDXLIGHT@@@std@@@3@$00@std@@@2@PAU342@00ABU?$pair@$$CBMPAVDXLIGHT@@@2@D@Z 0040afa0 f i Lib_Engine:DxLightMan.obj
 0001:00009fa0       ?_Buynode@?$_Tree@V?$_Tmap_traits@HHU?$less@H@std@@V?$allocator@U?$pair@$$CBHH@std@@@2@$0A@@std@@@std@@IAEPAU_Node@?$_Tree_nod@V?$_Tmap_traits@HHU?$less@H@std@@V?$allocator@U?$pair@$$CBHH@std@@@2@$0A@@std@@@2@PAU342@00ABU?$pair@$$CBHH@2@D@Z 0040afa0 f i Lib_Network:s_CClientManager.obj
 0001:00009fe0       ?_Buynode@?$_Tree@V?$_Tmap_traits@V?$basic_string@DU?$char_traits@D@std@@V?$allocator@D@2@@std@@V?$set@KU?$less@K@std@@V?$allocator@K@2@@2@U?$less@V?$basic_string@DU?$char_traits@D@std@@V?$allocator@D@2@@std@@@2@V?$allocator@U?$pair@$$CBV?$basic_string@DU?$char_traits@D@std@@V?$allocator@D@2@@std@@V?$set@KU?$less@K@std@@V?$allocator@K@2@@2@@std@@@2@$0A@@std@@@std@@IAEPAU_Node@?$_Tree_nod@V?$_Tmap_traits@V?$basic_string@DU?$char_traits@D@std@@V?$allocator@D@2@@std@@V?$set@KU?$less@K@std@@V?$allocator@K@2@@2@U?$less@V?$basic_string@DU?$char_traits@D@std@@V?$allocator@D@2@@std@@@2@V?$allocator@U?$pair@$$CBV?$basic_string@DU?$char_traits@D@std@@V?$allocator@D@2@@std@@V?$set@KU?$less@K@std@@V?$allocator@K@2@@2@@std@@@2@$0A@@std@@@2@XZ 0040afe0 f i Lib_Network:s_CClientManager.obj
 0001:0000a020       ?_Buynode@?$_Tree@V?$_Tset_traits@V?$basic_string@DU?$char_traits@D@std@@V?$allocator@D@2@@std@@U?$less@V?$basic_string@DU?$char_traits@D@std@@V?$allocator@D@2@@std@@@2@V?$allocator@V?$basic_string@DU?$char_traits@D@std@@V?$allocator@D@2@@std@@@2@$0A@@std@@@std@@IAEPAU_Node@?$_Tree_nod@V?$_Tset_traits@V?$basic_string@DU?$char_traits@D@std@@V?$allocator@D@2@@std@@U?$less@V?$basic_string@DU?$char_traits@D@std@@V?$allocator@D@2@@std@@@2@V?$allocator@V?$basic_string@DU?$char_traits@D@std@@V?$allocator@D@2@@std@@@2@$0A@@std@@@2@XZ 0040b020 f i Lib_Network:s_CClientManager.obj
 0001:0000a060       ??$_Ucopy@PAH@?$vector@HV?$allocator@H@std@@@std@@IAEPAHPAH00@Z 0040b060 f i Lib_Network:s_CClientManager.obj
 0001:0000a090       ?erase@?$_Tree@V?$_Tset_traits@KU?$less@K@std@@V?$allocator@K@2@$0A@@std@@@std@@QAE?AViterator@12@V312@@Z 0040b090 f i Lib_Network:s_CClientManager.obj
 0001:0000a360       ??0out_of_range@std@@QAE@ABV01@@Z 0040b360 f i Lib_Network:s_CClientManager.obj
 0001:0000a380       ?find@?$_Tree@V?$_Tset_traits@KU?$less@K@std@@V?$allocator@K@2@$0A@@std@@@std@@QAE?AViterator@12@ABK@Z 0040b380 f i Lib_Network:s_CClientManager.obj
 0001:0000a3f0       ?find@?$_Tree@V?$_Tmap_traits@V?$basic_string@DU?$char_traits@D@std@@V?$allocator@D@2@@std@@V?$set@KU?$less@K@std@@V?$allocator@K@2@@2@U?$less@V?$basic_string@DU?$char_traits@D@std@@V?$allocator@D@2@@std@@@2@V?$allocator@U?$pair@$$CBV?$basic_string@DU?$char_traits@D@std@@V?$allocator@D@2@@std@@V?$set@KU?$less@K@std@@V?$allocator@K@2@@2@@std@@@2@$0A@@std@@@std@@QAE?AViterator@12@ABV?$basic_string@DU?$char_traits@D@std@@V?$allocator@D@2@@2@@Z 0040b3f0 f i Lib_Network:s_CClientManager.obj
 0001:0000a450       ?find@?$_Tree@V?$_Tset_traits@V?$basic_string@DU?$char_traits@D@std@@V?$allocator@D@2@@std@@U?$less@V?$basic_string@DU?$char_traits@D@std@@V?$allocator@D@2@@std@@@2@V?$allocator@V?$basic_string@DU?$char_traits@D@std@@V?$allocator@D@2@@std@@@2@$0A@@std@@@std@@QAE?AViterator@12@ABV?$basic_string@DU?$char_traits@D@std@@V?$allocator@D@2@@2@@Z 0040b450 f i Lib_Network:s_CClientManager.obj
 0001:0000a4b0       ??1?$deque@HV?$allocator@H@std@@@std@@QAE@XZ 0040b4b0 f i Lib_Network:s_CClientManager.obj
 0001:0000a4c0       ?erase@?$_Tree@V?$_Tmap_traits@HHU?$less@H@std@@V?$allocator@U?$pair@$$CBHH@std@@@2@$0A@@std@@@std@@QAE?AViterator@12@V312@@Z 0040b4c0 f i Lib_Network:s_CClientManager.obj
 0001:0000a790       ?find@?$_Tree@V?$_Tmap_traits@HHU?$less@H@std@@V?$allocator@U?$pair@$$CBHH@std@@@2@$0A@@std@@@std@@QAE?AViterator@12@ABH@Z 0040b790 f i Lib_Network:s_CClientManager.obj
 0001:0000a800       ?_Ufill@?$vector@HV?$allocator@H@std@@@std@@IAEPAHPAHIABH@Z 0040b800 f i Lib_Network:s_CClientManager.obj
 0001:0000a830       ?_Insert@?$_Tree@V?$_Tset_traits@KU?$less@K@std@@V?$allocator@K@2@$0A@@std@@@std@@IAE?AViterator@12@_NPAU_Node@?$_Tree_nod@V?$_Tset_traits@KU?$less@K@std@@V?$allocator@K@2@$0A@@std@@@2@ABK@Z 0040b830 f i Lib_Network:s_CClientManager.obj
 0001:0000a9f0       ?_Insert@?$_Tree@V?$_Tset_traits@V?$basic_string@DU?$char_traits@D@std@@V?$allocator@D@2@@std@@U?$less@V?$basic_string@DU?$char_traits@D@std@@V?$allocator@D@2@@std@@@2@V?$allocator@V?$basic_string@DU?$char_traits@D@std@@V?$allocator@D@2@@std@@@2@$0A@@std@@@std@@IAE?AViterator@12@_NPAU_Node@?$_Tree_nod@V?$_Tset_traits@V?$basic_string@DU?$char_traits@D@std@@V?$allocator@D@2@@std@@U?$less@V?$basic_string@DU?$char_traits@D@std@@V?$allocator@D@2@@std@@@2@V?$allocator@V?$basic_string@DU?$char_traits@D@std@@V?$allocator@D@2@@std@@@2@$0A@@std@@@2@ABV?$basic_string@DU?$char_traits@D@std@@V?$allocator@D@2@@2@@Z 0040b9f0 f i Lib_Network:s_CClientManager.obj
 0001:0000abb0       ?_Growmap@?$deque@HV?$allocator@H@std@@@std@@IAEXI@Z 0040bbb0 f i Lib_Network:s_CClientManager.obj
 0001:0000ad10       ?equal_range@?$_Tree@V?$_Tmap_traits@HHU?$less@H@std@@V?$allocator@U?$pair@$$CBHH@std@@@2@$0A@@std@@@std@@QBE?AU?$pair@Vconst_iterator@?$_Tree@V?$_Tmap_traits@HHU?$less@H@std@@V?$allocator@U?$pair@$$CBHH@std@@@2@$0A@@std@@@std@@V123@@2@ABH@Z 0040bd10 f i Lib_Network:s_CClientManager.obj
 0001:0000ad80       ?_Insert@?$_Tree@V?$_Tmap_traits@HHU?$less@H@std@@V?$allocator@U?$pair@$$CBHH@std@@@2@$0A@@std@@@std@@IAE?AViterator@12@_NPAU_Node@?$_Tree_nod@V?$_Tmap_traits@HHU?$less@H@std@@V?$allocator@U?$pair@$$CBHH@std@@@2@$0A@@std@@@2@ABU?$pair@$$CBHH@2@@Z 0040bd80 f i Lib_Network:s_CClientManager.obj
 0001:0000af40       ?_Insert_n@?$vector@HV?$allocator@H@std@@@std@@IAEXViterator@12@IABH@Z 0040bf40 f i Lib_Network:s_CClientManager.obj
 0001:0000b130       ?erase@?$_Tree@V?$_Tset_traits@KU?$less@K@std@@V?$allocator@K@2@$0A@@std@@@std@@QAE?AViterator@12@V312@0@Z 0040c130 f i Lib_Network:s_CClientManager.obj
 0001:0000b1f0       ?_Copy@?$_Tree@V?$_Tset_traits@KU?$less@K@std@@V?$allocator@K@2@$0A@@std@@@std@@IAEPAU_Node@?$_Tree_nod@V?$_Tset_traits@KU?$less@K@std@@V?$allocator@K@2@$0A@@std@@@2@PAU342@0@Z 0040c1f0 f i Lib_Network:s_CClientManager.obj
 0001:0000b2a0       ?erase@?$_Tree@V?$_Tmap_traits@HHU?$less@H@std@@V?$allocator@U?$pair@$$CBHH@std@@@2@$0A@@std@@@std@@QAE?AViterator@12@V312@0@Z 0040c2a0 f i Lib_Network:s_CClientManager.obj
 0001:0000b360       ?IPExcluded@CClientManager@@QAEHV?$basic_string@DU?$char_traits@D@std@@V?$allocator@D@2@@std@@@Z 0040c360 f   Lib_Network:s_CClientManager.obj
 0001:0000b400       ?insert@?$_Tree@V?$_Tset_traits@KU?$less@K@std@@V?$allocator@K@2@$0A@@std@@@std@@QAE?AU?$pair@Viterator@?$_Tree@V?$_Tset_traits@KU?$less@K@std@@V?$allocator@K@2@$0A@@std@@@std@@_N@2@ABK@Z 0040c400 f i Lib_Network:s_CClientManager.obj
 0001:0000b4c0       ?insert@?$_Tree@V?$_Tset_traits@V?$basic_string@DU?$char_traits@D@std@@V?$allocator@D@2@@std@@U?$less@V?$basic_string@DU?$char_traits@D@std@@V?$allocator@D@2@@std@@@2@V?$allocator@V?$basic_string@DU?$char_traits@D@std@@V?$allocator@D@2@@std@@@2@$0A@@std@@@std@@QAE?AU?$pair@Viterator@?$_Tree@V?$_Tset_traits@V?$basic_string@DU?$char_traits@D@std@@V?$allocator@D@2@@std@@U?$less@V?$basic_string@DU?$char_traits@D@std@@V?$allocator@D@2@@std@@@2@V?$allocator@V?$basic_string@DU?$char_traits@D@std@@V?$allocator@D@2@@std@@@2@$0A@@std@@@std@@_N@2@ABV?$basic_string@DU?$char_traits@D@std@@V?$allocator@D@2@@2@@Z 0040c4c0 f i Lib_Network:s_CClientManager.obj
 0001:0000b5a0       ?erase@?$_Tree@V?$_Tset_traits@V?$basic_string@DU?$char_traits@D@std@@V?$allocator@D@2@@std@@U?$less@V?$basic_string@DU?$char_traits@D@std@@V?$allocator@D@2@@std@@@2@V?$allocator@V?$basic_string@DU?$char_traits@D@std@@V?$allocator@D@2@@std@@@2@$0A@@std@@@std@@QAE?AViterator@12@V312@@Z 0040c5a0 f i Lib_Network:s_CClientManager.obj
 0001:0000b880       ?push_back@?$deque@HV?$allocator@H@std@@@std@@QAEXABH@Z 0040c880 f i Lib_Network:s_CClientManager.obj
 0001:0000b900       ?insert@?$_Tree@V?$_Tmap_traits@HHU?$less@H@std@@V?$allocator@U?$pair@$$CBHH@std@@@2@$0A@@std@@@std@@QAE?AU?$pair@Viterator@?$_Tree@V?$_Tmap_traits@HHU?$less@H@std@@V?$allocator@U?$pair@$$CBHH@std@@@2@$0A@@std@@@std@@_N@2@ABU?$pair@$$CBHH@2@@Z 0040c900 f i Lib_Network:s_CClientManager.obj
 0001:0000b9c0       ?_Copy@?$_Tree@V?$_Tset_traits@KU?$less@K@std@@V?$allocator@K@2@$0A@@std@@@std@@IAEXABV12@@Z 0040c9c0 f i Lib_Network:s_CClientManager.obj
 0001:0000ba50       ?_Erase@?$_Tree@V?$_Tset_traits@V?$basic_string@DU?$char_traits@D@std@@V?$allocator@D@2@@std@@U?$less@V?$basic_string@DU?$char_traits@D@std@@V?$allocator@D@2@@std@@@2@V?$allocator@V?$basic_string@DU?$char_traits@D@std@@V?$allocator@D@2@@std@@@2@$0A@@std@@@std@@IAEXPAU_Node@?$_Tree_nod@V?$_Tset_traits@V?$basic_string@DU?$char_traits@D@std@@V?$allocator@D@2@@std@@U?$less@V?$basic_string@DU?$char_traits@D@std@@V?$allocator@D@2@@std@@@2@V?$allocator@V?$basic_string@DU?$char_traits@D@std@@V?$allocator@D@2@@std@@@2@$0A@@std@@@2@@Z 0040ca50 f i Lib_Network:s_CClientManager.obj
 0001:0000ba90       ?insert@?$_Tree@V?$_Tmap_traits@HHU?$less@H@std@@V?$allocator@U?$pair@$$CBHH@std@@@2@$0A@@std@@@std@@QAE?AViterator@12@V312@ABU?$pair@$$CBHH@2@@Z 0040ca90 f i Lib_Network:s_CClientManager.obj
 0001:0000bc00       ?ResetPreSleepCID@CClientManager@@QAEXXZ 0040cc00 f   Lib_Network:s_CClientManager.obj
 0001:0000bd80       ?IPRemoveExcluded@CClientManager@@QAEXV?$basic_string@DU?$char_traits@D@std@@V?$allocator@D@2@@std@@@Z 0040cd80 f   Lib_Network:s_CClientManager.obj
 0001:0000be50       ?reserve@?$vector@HV?$allocator@H@std@@@std@@QAEXI@Z 0040ce50 f i Lib_Network:s_CClientManager.obj
 0001:0000bf20       ?push_back@?$vector@HV?$allocator@H@std@@@std@@QAEXABH@Z 0040cf20 f i Lib_Network:s_CClientManager.obj
 0001:0000bf70       ??0?$_Tree@V?$_Tset_traits@KU?$less@K@std@@V?$allocator@K@2@$0A@@std@@@std@@QAE@ABV01@@Z 0040cf70 f i Lib_Network:s_CClientManager.obj
 0001:0000c000       ??A?$map@HHU?$less@H@std@@V?$allocator@U?$pair@$$CBHH@std@@@2@@std@@QAEAAHABH@Z 0040d000 f i Lib_Network:s_CClientManager.obj
 0001:0000c080       ?_Tidy@?$vector@V?$CStringT@DV?$StrTraitMFC_DLL@DV?$ChTraitsCRT@D@ATL@@@@@ATL@@V?$allocator@V?$CStringT@DV?$StrTraitMFC_DLL@DV?$ChTraitsCRT@D@ATL@@@@@ATL@@@std@@@std@@IAEXXZ 0040d080 f i Lib_Network:s_CClientManager.obj
 0001:0000c0d0       ?erase@?$_Tree@V?$_Tset_traits@V?$basic_string@DU?$char_traits@D@std@@V?$allocator@D@2@@std@@U?$less@V?$basic_string@DU?$char_traits@D@std@@V?$allocator@D@2@@std@@@2@V?$allocator@V?$basic_string@DU?$char_traits@D@std@@V?$allocator@D@2@@std@@@2@$0A@@std@@@std@@QAE?AViterator@12@V312@0@Z 0040d0d0 f i Lib_Network:s_CClientManager.obj
 0001:0000c190       ??1?$map@HHU?$less@H@std@@V?$allocator@U?$pair@$$CBHH@std@@@2@@std@@QAE@XZ 0040d190 f i Lib_Network:s_CClientManager.obj
 0001:0000c1c0       ?GetFreeClientID@CClientManager@@QAEHH@Z 0040d1c0 f   Lib_Network:s_CClientManager.obj
 0001:0000c290       ??1?$set@KU?$less@K@std@@V?$allocator@K@2@@std@@QAE@XZ 0040d290 f i Lib_Network:s_CClientManager.obj
 0001:0000c290       ?_Tidy@?$_Tree@V?$_Tset_traits@KU?$less@K@std@@V?$allocator@K@2@$0A@@std@@@std@@IAEXXZ 0040d290 f i Lib_Network:s_CClientManager.obj
 0001:0000c2c0       ??1?$pair@V?$basic_string@DU?$char_traits@D@std@@V?$allocator@D@2@@std@@V?$set@KU?$less@K@std@@V?$allocator@K@2@@2@@std@@QAE@XZ 0040d2c0 f i Lib_Network:s_CClientManager.obj
 0001:0000c2c0       ??1?$pair@$$CBV?$basic_string@DU?$char_traits@D@std@@V?$allocator@D@2@@std@@V?$set@KU?$less@K@std@@V?$allocator@K@2@@2@@std@@QAE@XZ 0040d2c0 f i Lib_Network:s_CClientManager.obj
 0001:0000c340       ?IPGetTotalClient@CClientManager@@QAEKXZ 0040d340 f   Lib_Network:s_CClientManager.obj
 0001:0000c3c0       ??0?$set@KU?$less@K@std@@V?$allocator@K@2@@std@@QAE@XZ 0040d3c0 f i Lib_Network:s_CClientManager.obj
 0001:0000c3f0       ??1?$vector@V?$CStringT@DV?$StrTraitMFC_DLL@DV?$ChTraitsCRT@D@ATL@@@@@ATL@@V?$allocator@V?$CStringT@DV?$StrTraitMFC_DLL@DV?$ChTraitsCRT@D@ATL@@@@@ATL@@@std@@@std@@QAE@XZ 0040d3f0 f i Lib_Network:s_CClientManager.obj
 0001:0000c400       ??0?$pair@$$CBV?$basic_string@DU?$char_traits@D@std@@V?$allocator@D@2@@std@@V?$set@KU?$less@K@std@@V?$allocator@K@2@@2@@std@@QAE@ABU01@@Z 0040d400 f i Lib_Network:s_CClientManager.obj
 0001:0000c400       ??$?0V?$basic_string@DU?$char_traits@D@std@@V?$allocator@D@2@@std@@V?$set@KU?$less@K@std@@V?$allocator@K@2@@1@@?$pair@$$CBV?$basic_string@DU?$char_traits@D@std@@V?$allocator@D@2@@std@@V?$set@KU?$less@K@std@@V?$allocator@K@2@@2@@std@@QAE@ABU?$pair@V?$basic_string@DU?$char_traits@D@std@@V?$allocator@D@2@@std@@V?$set@KU?$less@K@std@@V?$allocator@K@2@@2@@1@@Z 0040d400 f i Lib_Network:s_CClientManager.obj
 0001:0000c460       ??1_Node@?$_Tree_nod@V?$_Tmap_traits@V?$basic_string@DU?$char_traits@D@std@@V?$allocator@D@2@@std@@V?$set@KU?$less@K@std@@V?$allocator@K@2@@2@U?$less@V?$basic_string@DU?$char_traits@D@std@@V?$allocator@D@2@@std@@@2@V?$allocator@U?$pair@$$CBV?$basic_string@DU?$char_traits@D@std@@V?$allocator@D@2@@std@@V?$set@KU?$less@K@std@@V?$allocator@K@2@@2@@std@@@2@$0A@@std@@@std@@QAE@XZ 0040d460 f i Lib_Network:s_CClientManager.obj
 0001:0000c470       ?IPAllowConnect@CClientManager@@QAEHV?$basic_string@DU?$char_traits@D@std@@V?$allocator@D@2@@std@@@Z 0040d470 f   Lib_Network:s_CClientManager.obj
 0001:0000c5d0       ??$make_pair@V?$basic_string@DU?$char_traits@D@std@@V?$allocator@D@2@@std@@V?$set@KU?$less@K@std@@V?$allocator@K@2@@2@@std@@YA?AU?$pair@V?$basic_string@DU?$char_traits@D@std@@V?$allocator@D@2@@std@@V?$set@KU?$less@K@std@@V?$allocator@K@2@@2@@0@V?$basic_string@DU?$char_traits@D@std@@V?$allocator@D@2@@0@V?$set@KU?$less@K@std@@V?$allocator@K@2@@0@@Z 0040d5d0 f i Lib_Network:s_CClientManager.obj
 0001:0000c670       ??1?$set@V?$basic_string@DU?$char_traits@D@std@@V?$allocator@D@2@@std@@U?$less@V?$basic_string@DU?$char_traits@D@std@@V?$allocator@D@2@@std@@@2@V?$allocator@V?$basic_string@DU?$char_traits@D@std@@V?$allocator@D@2@@std@@@2@@std@@QAE@XZ 0040d670 f i Lib_Network:s_CClientManager.obj
 0001:0000c6a0       ?IPAllowConnect@CClientManager@@QAEHI@Z 0040d6a0 f   Lib_Network:s_CClientManager.obj
 0001:0000c750       ?_Buynode@?$_Tree@V?$_Tmap_traits@V?$basic_string@DU?$char_traits@D@std@@V?$allocator@D@2@@std@@V?$set@KU?$less@K@std@@V?$allocator@K@2@@2@U?$less@V?$basic_string@DU?$char_traits@D@std@@V?$allocator@D@2@@std@@@2@V?$allocator@U?$pair@$$CBV?$basic_string@DU?$char_traits@D@std@@V?$allocator@D@2@@std@@V?$set@KU?$less@K@std@@V?$allocator@K@2@@2@@std@@@2@$0A@@std@@@std@@IAEPAU_Node@?$_Tree_nod@V?$_Tmap_traits@V?$basic_string@DU?$char_traits@D@std@@V?$allocator@D@2@@std@@V?$set@KU?$less@K@std@@V?$allocator@K@2@@2@U?$less@V?$basic_string@DU?$char_traits@D@std@@V?$allocator@D@2@@std@@@2@V?$allocator@U?$pair@$$CBV?$basic_string@DU?$char_traits@D@std@@V?$allocator@D@2@@std@@V?$set@KU?$less@K@std@@V?$allocator@K@2@@2@@std@@@2@$0A@@std@@@2@PAU342@00ABU?$pair@$$CBV?$basic_string@DU?$char_traits@D@std@@V?$allocator@D@2@@std@@V?$set@KU?$less@K@std@@V?$allocator@K@2@@2@@2@D@Z 0040d750 f i Lib_Network:s_CClientManager.obj
 0001:0000c7f0       ?_Insert@?$_Tree@V?$_Tmap_traits@V?$basic_string@DU?$char_traits@D@std@@V?$allocator@D@2@@std@@V?$set@KU?$less@K@std@@V?$allocator@K@2@@2@U?$less@V?$basic_string@DU?$char_traits@D@std@@V?$allocator@D@2@@std@@@2@V?$allocator@U?$pair@$$CBV?$basic_string@DU?$char_traits@D@std@@V?$allocator@D@2@@std@@V?$set@KU?$less@K@std@@V?$allocator@K@2@@2@@std@@@2@$0A@@std@@@std@@IAE?AViterator@12@_NPAU_Node@?$_Tree_nod@V?$_Tmap_traits@V?$basic_string@DU?$char_traits@D@std@@V?$allocator@D@2@@std@@V?$set@KU?$less@K@std@@V?$allocator@K@2@@2@U?$less@V?$basic_string@DU?$char_traits@D@std@@V?$allocator@D@2@@std@@@2@V?$allocator@U?$pair@$$CBV?$basic_string@DU?$char_traits@D@std@@V?$allocator@D@2@@std@@V?$set@KU?$less@K@std@@V?$allocator@K@2@@2@@std@@@2@$0A@@std@@@2@ABU?$pair@$$CBV?$basic_string@DU?$char_traits@D@std@@V?$allocator@D@2@@std@@V?$set@KU?$less@K@std@@V?$allocator@K@2@@2@@2@@Z 0040d7f0 f i Lib_Network:s_CClientManager.obj
 0001:0000c9b0       ?insert@?$_Tree@V?$_Tmap_traits@V?$basic_string@DU?$char_traits@D@std@@V?$allocator@D@2@@std@@V?$set@KU?$less@K@std@@V?$allocator@K@2@@2@U?$less@V?$basic_string@DU?$char_traits@D@std@@V?$allocator@D@2@@std@@@2@V?$allocator@U?$pair@$$CBV?$basic_string@DU?$char_traits@D@std@@V?$allocator@D@2@@std@@V?$set@KU?$less@K@std@@V?$allocator@K@2@@2@@std@@@2@$0A@@std@@@std@@QAE?AU?$pair@Viterator@?$_Tree@V?$_Tmap_traits@V?$basic_string@DU?$char_traits@D@std@@V?$allocator@D@2@@std@@V?$set@KU?$less@K@std@@V?$allocator@K@2@@2@U?$less@V?$basic_string@DU?$char_traits@D@std@@V?$allocator@D@2@@std@@@2@V?$allocator@U?$pair@$$CBV?$basic_string@DU?$char_traits@D@std@@V?$allocator@D@2@@std@@V?$set@KU?$less@K@std@@V?$allocator@K@2@@2@@std@@@2@$0A@@std@@@std@@_N@2@ABU?$pair@$$CBV?$basic_string@DU?$char_traits@D@std@@V?$allocator@D@2@@std@@V?$set@KU?$less@K@std@@V?$allocator@K@2@@2@@2@@Z 0040d9b0 f i Lib_Network:s_CClientManager.obj
 0001:0000ca90       ?erase@?$_Tree@V?$_Tmap_traits@V?$basic_string@DU?$char_traits@D@std@@V?$allocator@D@2@@std@@V?$set@KU?$less@K@std@@V?$allocator@K@2@@2@U?$less@V?$basic_string@DU?$char_traits@D@std@@V?$allocator@D@2@@std@@@2@V?$allocator@U?$pair@$$CBV?$basic_string@DU?$char_traits@D@std@@V?$allocator@D@2@@std@@V?$set@KU?$less@K@std@@V?$allocator@K@2@@2@@std@@@2@$0A@@std@@@std@@QAE?AViterator@12@V312@@Z 0040da90 f i Lib_Network:s_CClientManager.obj
 0001:0000cd70       ?_Erase@?$_Tree@V?$_Tmap_traits@V?$basic_string@DU?$char_traits@D@std@@V?$allocator@D@2@@std@@V?$set@KU?$less@K@std@@V?$allocator@K@2@@2@U?$less@V?$basic_string@DU?$char_traits@D@std@@V?$allocator@D@2@@std@@@2@V?$allocator@U?$pair@$$CBV?$basic_string@DU?$char_traits@D@std@@V?$allocator@D@2@@std@@V?$set@KU?$less@K@std@@V?$allocator@K@2@@2@@std@@@2@$0A@@std@@@std@@IAEXPAU_Node@?$_Tree_nod@V?$_Tmap_traits@V?$basic_string@DU?$char_traits@D@std@@V?$allocator@D@2@@std@@V?$set@KU?$less@K@std@@V?$allocator@K@2@@2@U?$less@V?$basic_string@DU?$char_traits@D@std@@V?$allocator@D@2@@std@@@2@V?$allocator@U?$pair@$$CBV?$basic_string@DU?$char_traits@D@std@@V?$allocator@D@2@@std@@V?$set@KU?$less@K@std@@V?$allocator@K@2@@2@@std@@@2@$0A@@std@@@2@@Z 0040dd70 f i Lib_Network:s_CClientManager.obj
 0001:0000cdb0       ?IPAddClient@CClientManager@@QAEXV?$basic_string@DU?$char_traits@D@std@@V?$allocator@D@2@@std@@K@Z 0040ddb0 f   Lib_Network:s_CClientManager.obj
 0001:0000cf30       ?IPRemove@CClientManager@@QAEXV?$basic_string@DU?$char_traits@D@std@@V?$allocator@D@2@@std@@@Z 0040df30 f   Lib_Network:s_CClientManager.obj
 0001:0000d000       ?IPDoCheck@CClientManager@@QAEXV?$basic_string@DU?$char_traits@D@std@@V?$allocator@D@2@@std@@@Z 0040e000 f   Lib_Network:s_CClientManager.obj
 0001:0000d0b0       ?IPAddExcluded@CClientManager@@QAEXV?$basic_string@DU?$char_traits@D@std@@V?$allocator@D@2@@std@@@Z 0040e0b0 f   Lib_Network:s_CClientManager.obj
 0001:0000d1b0       ?erase@?$_Tree@V?$_Tmap_traits@V?$basic_string@DU?$char_traits@D@std@@V?$allocator@D@2@@std@@V?$set@KU?$less@K@std@@V?$allocator@K@2@@2@U?$less@V?$basic_string@DU?$char_traits@D@std@@V?$allocator@D@2@@std@@@2@V?$allocator@U?$pair@$$CBV?$basic_string@DU?$char_traits@D@std@@V?$allocator@D@2@@std@@V?$set@KU?$less@K@std@@V?$allocator@K@2@@2@@std@@@2@$0A@@std@@@std@@QAE?AViterator@12@V312@0@Z 0040e1b0 f i Lib_Network:s_CClientManager.obj
 0001:0000d270       ?SetAcceptedClient@CClientManager@@QAEHKI@Z 0040e270 f   Lib_Network:s_CClientManager.obj
 0001:0000d330       ?IPRemoveClient@CClientManager@@QAEXV?$basic_string@DU?$char_traits@D@std@@V?$allocator@D@2@@std@@K@Z 0040e330 f   Lib_Network:s_CClientManager.obj
 0001:0000d420       ?IPClear@CClientManager@@QAEXXZ 0040e420 f   Lib_Network:s_CClientManager.obj
 0001:0000d480       ?CloseClient@CClientManager@@QAEHK_N@Z 0040e480 f   Lib_Network:s_CClientManager.obj
 0001:0000d510       ?SendClient2@CClientManager@@QAEHKPAUPER_IO_OPERATION_DATA@@K@Z 0040e510 f   Lib_Network:s_CClientManager.obj
 0001:0000d5f0       ??1?$map@V?$basic_string@DU?$char_traits@D@std@@V?$allocator@D@2@@std@@V?$set@KU?$less@K@std@@V?$allocator@K@2@@2@U?$less@V?$basic_string@DU?$char_traits@D@std@@V?$allocator@D@2@@std@@@2@V?$allocator@U?$pair@$$CBV?$basic_string@DU?$char_traits@D@std@@V?$allocator@D@2@@std@@V?$set@KU?$less@K@std@@V?$allocator@K@2@@2@@std@@@2@@std@@QAE@XZ 0040e5f0 f i Lib_Network:s_CClientManager.obj
 0001:0000d620       ??1CClientManager@@UAE@XZ  0040e620 f   Lib_Network:s_CClientManager.obj
 0001:0000d7c0       ?SendClient2@CClientManager@@QAEHKPAX@Z 0040e7c0 f   Lib_Network:s_CClientManager.obj
 0001:0000d850       ??0CClientManager@@QAE@HPAVCOverlapped@@0PAX@Z 0040e850 f   Lib_Network:s_CClientManager.obj
 0001:0000db00       ??_GCClientManager@@UAEPAXI@Z 0040eb00 f i Lib_Network:s_CClientManager.obj
 0001:0000db00       ??_ECClientManager@@UAEPAXI@Z 0040eb00 f i Lib_Network:s_CClientManager.obj
 0001:0000db20       ??0NET_IPFILTER_BLOCK_ADD_SESSION@@QAE@XZ 0040eb20 f i Lib_Network:s_CIPFilter.obj
 0001:0000db50       ??0NET_IPFILTER_BLOCK_DEL_SESSION@@QAE@XZ 0040eb50 f i Lib_Network:s_CIPFilter.obj
 0001:0000db80       ??0NET_IPFILTER_KNOWN_ADD_SESSION@@QAE@XZ 0040eb80 f i Lib_Network:s_CIPFilter.obj
 0001:0000dbb0       ??0NET_IPFILTER_KNOWN_DEL_SESSION@@QAE@XZ 0040ebb0 f i Lib_Network:s_CIPFilter.obj
 0001:0000dbe0       ?SetServer@CIPFilter@@QAEXPAVCServer@@@Z 0040ebe0 f   Lib_Network:s_CIPFilter.obj
 0001:0000dc00       ?SetConsole@CIPFilter@@QAEXPAVCConsoleMessage@@@Z 0040ec00 f   Lib_Network:s_CIPFilter.obj
 0001:0000dc20       ?IsIPKnown@CIPFilter@@QAEHV?$basic_string@DU?$char_traits@D@std@@V?$allocator@D@2@@std@@@Z 0040ec20 f   Lib_Network:s_CIPFilter.obj
 0001:0000dce0       ?IsBlocked@CIPFilter@@QAEHV?$basic_string@DU?$char_traits@D@std@@V?$allocator@D@2@@std@@@Z 0040ece0 f   Lib_Network:s_CIPFilter.obj
 0001:0000dda0       ?ListSave@CIPFilter@@QAEXXZ 0040eda0 f   Lib_Network:s_CIPFilter.obj
 0001:0000e080       ?IsIPBlocked@CIPFilter@@QAEHV?$basic_string@DU?$char_traits@D@std@@V?$allocator@D@2@@std@@@Z 0040f080 f   Lib_Network:s_CIPFilter.obj
 0001:0000e140       ?AddIPBlock@CIPFilter@@QAEXV?$basic_string@DU?$char_traits@D@std@@V?$allocator@D@2@@std@@_N@Z 0040f140 f   Lib_Network:s_CIPFilter.obj
 0001:0000e370       ?AddIPKnown@CIPFilter@@QAEXV?$basic_string@DU?$char_traits@D@std@@V?$allocator@D@2@@std@@_N@Z 0040f370 f   Lib_Network:s_CIPFilter.obj
 0001:0000e520       ?RemoveIPBlock@CIPFilter@@QAEXV?$basic_string@DU?$char_traits@D@std@@V?$allocator@D@2@@std@@_N@Z 0040f520 f   Lib_Network:s_CIPFilter.obj
 0001:0000e6d0       ?RemoveIPKnown@CIPFilter@@QAEXV?$basic_string@DU?$char_traits@D@std@@V?$allocator@D@2@@std@@_N@Z 0040f6d0 f   Lib_Network:s_CIPFilter.obj
 0001:0000e880       ?DoListSave@CIPFilter@@QAEXXZ 0040f880 f   Lib_Network:s_CIPFilter.obj
 0001:0000e910       ?IsIPBlocked@CIPFilter@@QAEHI@Z 0040f910 f   Lib_Network:s_CIPFilter.obj
 0001:0000e9a0       ?ListLoad@CIPFilter@@QAEXXZ 0040f9a0 f   Lib_Network:s_CIPFilter.obj
 0001:0000ec20       ??1CIPFilter@@QAE@XZ       0040fc20 f   Lib_Network:s_CIPFilter.obj
 0001:0000ed10       ??0CIPFilter@@QAE@XZ       0040fd10 f   Lib_Network:s_CIPFilter.obj
 0001:0000ee00       ?GetInstance@CIPFilter@@SAPAV1@XZ 0040fe00 f   Lib_Network:s_CIPFilter.obj
 0001:0000ee70       ?ReleaseInstance@CIPFilter@@SAXXZ 0040fe70 f   Lib_Network:s_CIPFilter.obj
 0001:0000eea0       ??0NET_SERVER_CHANNEL_FULL_INFO@@QAE@XZ 0040fea0 f i Lib_Network:s_CSessionServerMsg.obj
 0001:0000eec0       ??0NET_CHAT_CTRL@@QAE@XZ   0040fec0 f i Lib_Network:s_CSessionServerMsg.obj
 0001:0000ef10       ?MsgServerHeartbeatAnswer@CSessionServer@@QAEXPAUMSG_LIST@@@Z 0040ff10 f   Lib_Network:s_CSessionServerMsg.obj
 0001:0000ef40       ?FindServer@CSessionServer@@QAEHHHHH@Z 0040ff40 f   Lib_Network:s_CSessionServerMsg.obj
 0001:0000f060       ?MsgSndServerStateChange@CSessionServer@@QAEHHH@Z 00410060 f   Lib_Network:s_CSessionServerMsg.obj
 0001:0000f0b0       ?MsgSndCurSvrInfo@CSessionServer@@QAEXK@Z 004100b0 f   Lib_Network:s_CSessionServerMsg.obj
 0001:0000f180       ?MsgSndAllSvrInfo@CSessionServer@@QAEXPAUMSG_LIST@@@Z 00410180 f   Lib_Network:s_CSessionServerMsg.obj
 0001:0000f2d0       ?MsgSndCurSvrInfoToAll@CSessionServer@@QAEXXZ 004102d0 f   Lib_Network:s_CSessionServerMsg.obj
 0001:0000f350       ?SetChannelInfo@CSessionServer@@QAEXPAUNET_SERVER_CHANNEL_INFO@@@Z 00410350 f   Lib_Network:s_CSessionServerMsg.obj
 0001:0000f460       ?MsgReqSvrFullInfo@CSessionServer@@QAEXK@Z 00410460 f   Lib_Network:s_CSessionServerMsg.obj
 0001:0000f490       ?MsgSvrCmdProcess@CSessionServer@@QAEXPAUMSG_LIST@@@Z 00410490 f   Lib_Network:s_CSessionServerMsg.obj
 0001:0000f5a0       ?MsgSndChatCtrlGlobal@CSessionServer@@QAEXPAUMSG_LIST@@@Z 004105a0 f   Lib_Network:s_CSessionServerMsg.obj
 0001:0000f670       ?MsgSndChatCtrlGlobal2@CSessionServer@@QAEXPAUMSG_LIST@@@Z 00410670 f   Lib_Network:s_CSessionServerMsg.obj
 0001:0000f740       ?SetSvrInfo@CSessionServer@@QAEXKPAUG_SERVER_INFO@@@Z 00410740 f   Lib_Network:s_CSessionServerMsg.obj
 0001:0000f830       ?MsgSndEncryptKey@CSessionServer@@QAEXK@Z 00410830 f   Lib_Network:s_CSessionServerMsg.obj
 0001:0000f8a0       ?MsgServerChannelInfo@CSessionServer@@QAEXPAUMSG_LIST@@@Z 004108a0 f   Lib_Network:s_CSessionServerMsg.obj
 0001:0000f8c0       ?MsgReqAllSvrFullInfo@CSessionServer@@QAEXXZ 004108c0 f   Lib_Network:s_CSessionServerMsg.obj
 0001:0000f930       ?MsgReqAllSvrCurInfo@CSessionServer@@QAEXXZ 00410930 f   Lib_Network:s_CSessionServerMsg.obj
 0001:0000f9a0       ??0SITEMLINK@@QAE@XZ       004109a0 f i Lib_Network:s_CSessionServerMsg.obj
 0001:0000fa60       ??4SITEMLINK@@QAEAAU0@ABU0@@Z 00410a60 f i Lib_Network:s_CSessionServerMsg.obj
 0001:0000fb80       ??0NET_CHAT@@QAE@XZ        00410b80 f i Lib_Network:s_CSessionServerMsg.obj
 0001:0000fc00       ?MsgChatProcess@CSessionServer@@QAEXPAUMSG_LIST@@@Z 00410c00 f   Lib_Network:s_CSessionServerMsg.obj
 0001:0000fc50       ?MsgSndChatGlobal@CSessionServer@@QAEXPAD@Z 00410c50 f   Lib_Network:s_CSessionServerMsg.obj
 0001:0000fd00       ?MsgServerInfo@CSessionServer@@QAEXPAUMSG_LIST@@@Z 00410d00 f   Lib_Network:s_CSessionServerMsg.obj
 0001:0000fe10       ?MsgEncryptKey@CSessionServer@@QAEXPAUMSG_LIST@@@Z 00410e10 f   Lib_Network:s_CSessionServerMsg.obj
 0001:0000fea0       ?MsgProcess@CSessionServer@@QAEHPAUMSG_LIST@@@Z 00410ea0 f   Lib_Network:s_CSessionServerMsg.obj
 0001:00010030       ??1CDbAction@@UAE@XZ       00411030 f i Lib_Network:s_CDbActionUser.obj
 0001:00010030       ??1CAddLogServerState@@UAE@XZ 00411030 f i Lib_Network:s_CDbActionUser.obj
 0001:00010030       ??1CUserLogoutSvr@@UAE@XZ  00411030 f i Lib_Network:s_CDbActionUser.obj
 0001:00010040       ??_GCUserLogoutSvr@@UAEPAXI@Z 00411040 f i Lib_Network:s_CDbActionUser.obj
 0001:00010040       ??_GCDbAction@@UAEPAXI@Z   00411040 f i Lib_Network:s_CDbActionUser.obj
 0001:00010040       ??_ECUserLogoutSvr@@UAEPAXI@Z 00411040 f i Lib_Network:s_CDbActionUser.obj
 0001:00010040       ??_ECDbAction@@UAEPAXI@Z   00411040 f i Lib_Network:s_CDbActionUser.obj
 0001:00010040       ??_ECAddLogServerState@@UAEPAXI@Z 00411040 f i Lib_Network:s_CDbActionUser.obj
 0001:00010040       ??_GCAddLogServerState@@UAEPAXI@Z 00411040 f i Lib_Network:s_CDbActionUser.obj
 0001:00010060       ??0CAddLogServerState@@QAE@HHHH@Z 00411060 f   Lib_Network:s_CDbActionUser.obj
 0001:000100b0       ?Execute@CAddLogServerState@@UAEHPAVCServer@@@Z 004110b0 f   Lib_Network:s_CDbActionUser.obj
 0001:000100d0       ??0CUserLogoutSvr@@QAE@HH@Z 004110d0 f   Lib_Network:s_CDbActionUser.obj
 0001:00010110       ?Execute@CUserLogoutSvr@@UAEHPAVCServer@@@Z 00411110 f   Lib_Network:s_CDbActionUser.obj
 0001:00010130       ?AddTail@CSMsgList@@QAEPAUMSG_LIST@@XZ 00411130 f   Lib_Network:s_CSMsgList.obj
 0001:00010190       ?RemoveHead@CSMsgList@@QAEXXZ 00411190 f   Lib_Network:s_CSMsgList.obj
 0001:00010200       ?AddMsg@CSMsgList@@QAEXKPAXH@Z 00411200 f   Lib_Network:s_CSMsgList.obj
 0001:00010270       ?GetCount@CSMsgList@@QAEHXZ 00411270 f   Lib_Network:s_CSMsgList.obj
 0001:00010280       ??1CSMsgManager@@UAE@XZ    00411280 f   Lib_Network:s_CSMsgList.obj
 0001:00010300       ?MsgQueueFlip@CSMsgManager@@QAEXXZ 00411300 f   Lib_Network:s_CSMsgList.obj
 0001:00010330       ?MsgQueueInsert@CSMsgManager@@QAEXHPAXH@Z 00411330 f   Lib_Network:s_CSMsgList.obj
 0001:00010380       ?GetMsg@CSMsgManager@@QAEPAUMSG_LIST@@XZ 00411380 f   Lib_Network:s_CSMsgList.obj
 0001:000103a0       ??0CSMsgList@@QAE@H@Z      004113a0 f   Lib_Network:s_CSMsgList.obj
 0001:00010430       ??1CSMsgList@@UAE@XZ       00411430 f   Lib_Network:s_CSMsgList.obj
 0001:00010490       ??0CSMsgManager@@QAE@H@Z   00411490 f   Lib_Network:s_CSMsgList.obj
 0001:00010540       ??_ECSMsgManager@@UAEPAXI@Z 00411540 f i Lib_Network:s_CSMsgList.obj
 0001:00010540       ??_GCSMsgManager@@UAEPAXI@Z 00411540 f i Lib_Network:s_CSMsgList.obj
 0001:00010560       ??_ECSMsgList@@UAEPAXI@Z   00411560 f i Lib_Network:s_CSMsgList.obj
 0001:00010560       ??_GCSMsgList@@UAEPAXI@Z   00411560 f i Lib_Network:s_CSMsgList.obj
 0001:00010580       ??0CTime@ATL@@QAE@HHHHHHH@Z 00411580 f i Lib_Network:s_COdbcUser.obj
 0001:00010600       ??0strstreambuf@std@@QAE@H@Z 00411600 f i Lib_Network:s_COdbcUser.obj
 0001:00010660       ?Format@CTime@ATL@@QBE?AV?$CStringT@DV?$StrTraitMFC_DLL@DV?$ChTraitsCRT@D@ATL@@@@@2@PBD@Z 00411660 f i Lib_Network:s_COdbcUser.obj
 0001:000106d0       ??_Estrstreambuf@std@@UAEPAXI@Z 004116d0 f i Lib_Network:s_COdbcUser.obj
 0001:000106d0       ??_Gstrstreambuf@std@@UAEPAXI@Z 004116d0 f i Lib_Network:s_COdbcUser.obj
 0001:000106f0       ??0strstream@std@@QAE@XZ   004116f0 f i Lib_Network:s_COdbcUser.obj
 0001:00010790       ??_Dstrstream@std@@QAEXXZ  00411790 f i Lib_Network:s_COdbcUser.obj
 0001:000107b0       ?GetChatBlockTime@COdbcManager@@UAE_JH@Z 004117b0 f   Lib_Network:s_COdbcUser.obj
 0001:00010ab0       ?SetChatBlockTime@COdbcManager@@UAEHH_J@Z 00411ab0 f   Lib_Network:s_COdbcUser.obj
 0001:00010c70       ?SetPremiumTime@COdbcManager@@UAEHH_J@Z 00411c70 f   Lib_Network:s_COdbcUser.obj
 0001:00010e30       ?UserLogoutSvr@COdbcManager@@QAEHHH@Z 00411e30 f   Lib_Network:s_COdbcUser.obj
 0001:00010f10       ?UserChaNumIncrease@COdbcManager@@UAEHH@Z 00411f10 f   Lib_Network:s_COdbcUser.obj
 0001:00011010       ?AllUserLogout@COdbcManager@@QAEHXZ 00412010 f   Lib_Network:s_COdbcUser.obj
 0001:000110f0       ??_Estrstream@std@@UAEPAXI@Z 004120f0 f i Lib_Network:s_COdbcUser.obj
 0001:000110f0       ??_Gstrstream@std@@UAEPAXI@Z 004120f0 f i Lib_Network:s_COdbcUser.obj
 0001:00011120       ?AddTail@?$TCList@UPER_IO_OPERATION_DATA@@@MEM_POOLER@@QAEXPAU?$NODE@UPER_IO_OPERATION_DATA@@@2@@Z 00412120 f i Lib_Network:s_COverlapped.obj
 0001:00011170       ?Release@?$TCList@UPER_IO_OPERATION_DATA@@@MEM_POOLER@@QAEXPAU?$NODE@UPER_IO_OPERATION_DATA@@@2@@Z 00412170 f i Lib_Network:s_COverlapped.obj
 0001:000111f0       ??0?$NODE@UPER_IO_OPERATION_DATA@@@MEM_POOLER@@QAE@XZ 004121f0 f i Lib_Network:s_COverlapped.obj
 0001:00011240       ?Release@COverlapped@@QAEXPAUPER_IO_OPERATION_DATA@@@Z 00412240 f   Lib_Network:s_COverlapped.obj
 0001:00011270       ?GetUseCount@COverlapped@@QAEHXZ 00412270 f   Lib_Network:s_COverlapped.obj
 0001:00011280       ?GetUnUseCount@COverlapped@@QAEHXZ 00412280 f   Lib_Network:s_COverlapped.obj
 0001:00011290       ??1?$TCList@UPER_IO_OPERATION_DATA@@@MEM_POOLER@@QAE@XZ 00412290 f i Lib_Network:s_COverlapped.obj
 0001:000112d0       ?AddHead@?$TCList@UPER_IO_OPERATION_DATA@@@MEM_POOLER@@QAEXXZ 004122d0 f i Lib_Network:s_COverlapped.obj
 0001:00011340       ??0COverlapped@@QAE@H@Z    00412340 f   Lib_Network:s_COverlapped.obj
 0001:00011450       ??1COverlapped@@UAE@XZ     00412450 f   Lib_Network:s_COverlapped.obj
 0001:00011480       ??_ECOverlapped@@UAEPAXI@Z 00412480 f i Lib_Network:s_COverlapped.obj
 0001:00011480       ??_GCOverlapped@@UAEPAXI@Z 00412480 f i Lib_Network:s_COverlapped.obj
 0001:000114a0       ?GetFreeOverIO@COverlapped@@QAEPAUPER_IO_OPERATION_DATA@@H@Z 004124a0 f   Lib_Network:s_COverlapped.obj
 0001:00011520       ?GetProcessorNumber@CSystemInfo@SERVER_UTIL@@QAEKXZ 00412520 f   Lib_Network:s_CSystemInfo.obj
 0001:00011540       ?DetermineTimeStamp@CSystemInfo@SERVER_UTIL@@QAEKXZ 00412540 f   Lib_Network:s_CSystemInfo.obj
 0001:00011550       ?GetCpuSpeed@CSystemInfo@SERVER_UTIL@@QAEKXZ 00412550 f   Lib_Network:s_CSystemInfo.obj
 0001:00011600       ?GetAppPath@CSystemInfo@SERVER_UTIL@@QAE?AV?$CStringT@DV?$StrTraitMFC_DLL@DV?$ChTraitsCRT@D@ATL@@@@@ATL@@XZ 00412600 f   Lib_Network:s_CSystemInfo.obj
 0001:00011800       ?GetProcessorName@CSystemInfo@SERVER_UTIL@@QAEXPAD@Z 00412800 f   Lib_Network:s_CSystemInfo.obj
 0001:00011940       ?GetOSName@CSystemInfo@SERVER_UTIL@@QAEXPAD@Z 00412940 f   Lib_Network:s_CSystemInfo.obj
 0001:000119c0       ??0CLock@@QAE@XZ           004129c0 f   Lib_Network:s_CLock.obj
 0001:000119e0       ??1CLock@@UAE@XZ           004129e0 f   Lib_Network:s_CLock.obj
 0001:00011a00       ?LockOn@CLock@@QAEXXZ      00412a00 f   Lib_Network:s_CLock.obj
 0001:00011a10       ?LockOff@CLock@@QAEXXZ     00412a10 f   Lib_Network:s_CLock.obj
 0001:00011a20       ??_ECLock@@UAEPAXI@Z       00412a20 f i Lib_Network:s_CLock.obj
 0001:00011a20       ??_GCLock@@UAEPAXI@Z       00412a20 f i Lib_Network:s_CLock.obj
 0001:00011a50       ?NET_InitializeSocket@@YAHXZ 00412a50 f   Lib_Network:s_NetGlobal.obj
 0001:00011a80       ?NET_CloseSocket@@YAXXZ    00412a80 f   Lib_Network:s_NetGlobal.obj
 0001:00011a90       ??1CMinLzo@@AAE@XZ         00412a90 f   Lib_Network:MinLzo.obj
 0001:00011ac0       ?init@CMinLzo@@QAEHXZ      00412ac0 f   Lib_Network:MinLzo.obj
 0001:00011b50       ?lzoDeCompress@CMinLzo@@QAEHPAEH0AAH@Z 00412b50 f   Lib_Network:MinLzo.obj
 0001:00011bf0       ?GetInstance@CMinLzo@@SAAAV1@XZ 00412bf0 f   Lib_Network:MinLzo.obj
 0001:00011c60       ??0CAddressChecker@SERVER_UTIL@@AAE@H@Z 00412c60 f   Lib_Network:s_CAddressChecker.obj
 0001:00011cd0       ?GetInstance@CAddressChecker@SERVER_UTIL@@SAPAV12@XZ 00412cd0 f   Lib_Network:s_CAddressChecker.obj
 0001:00011d40       ?deleteBlockAddressAll@CAddressChecker@SERVER_UTIL@@IAEHXZ 00412d40 f   Lib_Network:s_CAddressChecker.obj
 0001:00011e10       ?deleteKnownAddressAll@CAddressChecker@SERVER_UTIL@@IAEHXZ 00412e10 f   Lib_Network:s_CAddressChecker.obj
 0001:00011ee0       ?deleteAll@CAddressChecker@SERVER_UTIL@@IAEHXZ 00412ee0 f   Lib_Network:s_CAddressChecker.obj
 0001:00011fa0       ??1CAddressChecker@SERVER_UTIL@@AAE@XZ 00412fa0 f   Lib_Network:s_CAddressChecker.obj
 0001:00012020       ?ReleaseInstance@CAddressChecker@SERVER_UTIL@@SAXXZ 00413020 f   Lib_Network:s_CAddressChecker.obj
 0001:00012050       ??0CWhiteRock@@AAE@XZ      00413050 f   Lib_Network:s_CWhiteRock.obj
 0001:00012100       ??1CWhiteRock@@AAE@XZ      00413100 f   Lib_Network:s_CWhiteRock.obj
 0001:000121b0       ?GetInstance@CWhiteRock@@SAPAV1@XZ 004131b0 f   Lib_Network:s_CWhiteRock.obj
 0001:00012220       ?ReleaseInstance@CWhiteRock@@SAXXZ 00413220 f   Lib_Network:s_CWhiteRock.obj
 0001:00012250       ??$fill@PAV?$basic_string@DU?$char_traits@D@std@@V?$allocator@D@2@@std@@V12@@std@@YAXPAV?$basic_string@DU?$char_traits@D@std@@V?$allocator@D@2@@0@0ABV10@@Z 00413250 f i Lib_Network:s_CLogSystem.obj
 0001:00012280       ??$_Copy_backward_opt@PAV?$basic_string@DU?$char_traits@D@std@@V?$allocator@D@2@@std@@PAV12@@std@@YAPAV?$basic_string@DU?$char_traits@D@std@@V?$allocator@D@2@@0@PAV10@00U_Nonscalar_ptr_iterator_tag@0@@Z 00413280 f i Lib_Network:s_CLogSystem.obj
 0001:000122c0       ?_Xlen@?$vector@V?$basic_string@DU?$char_traits@D@std@@V?$allocator@D@2@@std@@V?$allocator@V?$basic_string@DU?$char_traits@D@std@@V?$allocator@D@2@@std@@@2@@std@@IBEXXZ 004132c0 f i Lib_Network:s_CLogSystem.obj
 0001:00012340       ??$_Uninit_copy@PAV?$basic_string@DU?$char_traits@D@std@@V?$allocator@D@2@@std@@PAV12@V?$allocator@V?$basic_string@DU?$char_traits@D@std@@V?$allocator@D@2@@std@@@2@@std@@YAPAV?$basic_string@DU?$char_traits@D@std@@V?$allocator@D@2@@0@PAV10@00AAV?$allocator@V?$basic_string@DU?$char_traits@D@std@@V?$allocator@D@2@@std@@@0@U_Nonscalar_ptr_iterator_tag@0@@Z 00413340 f i Lib_Network:s_CLogSystem.obj
 0001:000123d0       ?StartLog@CLogSystem@SERVER_UTIL@@QAEXXZ 004133d0 f   Lib_Network:s_CLogSystem.obj
 0001:00012620       ??$_Uninit_fill_n@PAV?$basic_string@DU?$char_traits@D@std@@V?$allocator@D@2@@std@@IV12@V?$allocator@V?$basic_string@DU?$char_traits@D@std@@V?$allocator@D@2@@std@@@2@@std@@YAXPAV?$basic_string@DU?$char_traits@D@std@@V?$allocator@D@2@@0@IABV10@AAV?$allocator@V?$basic_string@DU?$char_traits@D@std@@V?$allocator@D@2@@std@@@0@U_Nonscalar_ptr_iterator_tag@0@@Z 00413620 f i Lib_Network:s_CLogSystem.obj
 0001:000126b0       ?_Ufill@?$vector@V?$basic_string@DU?$char_traits@D@std@@V?$allocator@D@2@@std@@V?$allocator@V?$basic_string@DU?$char_traits@D@std@@V?$allocator@D@2@@std@@@2@@std@@IAEPAV?$basic_string@DU?$char_traits@D@std@@V?$allocator@D@2@@2@PAV32@IABV32@@Z 004136b0 f i Lib_Network:s_CLogSystem.obj
 0001:000126e0       ?_Destroy@?$vector@V?$basic_string@DU?$char_traits@D@std@@V?$allocator@D@2@@std@@V?$allocator@V?$basic_string@DU?$char_traits@D@std@@V?$allocator@D@2@@std@@@2@@std@@IAEXPAV?$basic_string@DU?$char_traits@D@std@@V?$allocator@D@2@@2@0@Z 004136e0 f i Lib_Network:s_CLogSystem.obj
 0001:00012710       ?_Insert_n@?$vector@V?$basic_string@DU?$char_traits@D@std@@V?$allocator@D@2@@std@@V?$allocator@V?$basic_string@DU?$char_traits@D@std@@V?$allocator@D@2@@std@@@2@@std@@IAEXViterator@12@IABV?$basic_string@DU?$char_traits@D@std@@V?$allocator@D@2@@2@@Z 00413710 f i Lib_Network:s_CLogSystem.obj
 0001:00012a30       ?insert@?$vector@V?$basic_string@DU?$char_traits@D@std@@V?$allocator@D@2@@std@@V?$allocator@V?$basic_string@DU?$char_traits@D@std@@V?$allocator@D@2@@std@@@2@@std@@QAE?AViterator@12@V312@ABV?$basic_string@DU?$char_traits@D@std@@V?$allocator@D@2@@2@@Z 00413a30 f i Lib_Network:s_CLogSystem.obj
 0001:00012aa0       ?_Tidy@?$vector@V?$basic_string@DU?$char_traits@D@std@@V?$allocator@D@2@@std@@V?$allocator@V?$basic_string@DU?$char_traits@D@std@@V?$allocator@D@2@@std@@@2@@std@@IAEXXZ 00413aa0 f i Lib_Network:s_CLogSystem.obj
 0001:00012af0       ??1?$vector@V?$basic_string@DU?$char_traits@D@std@@V?$allocator@D@2@@std@@V?$allocator@V?$basic_string@DU?$char_traits@D@std@@V?$allocator@D@2@@std@@@2@@std@@QAE@XZ 00413af0 f i Lib_Network:s_CLogSystem.obj
 0001:00012b00       ?push_back@?$vector@V?$basic_string@DU?$char_traits@D@std@@V?$allocator@D@2@@std@@V?$allocator@V?$basic_string@DU?$char_traits@D@std@@V?$allocator@D@2@@std@@@2@@std@@QAEXABV?$basic_string@DU?$char_traits@D@std@@V?$allocator@D@2@@2@@Z 00413b00 f i Lib_Network:s_CLogSystem.obj
 0001:00012b90       ??0CLogSystem@SERVER_UTIL@@QAE@PAD@Z 00413b90 f   Lib_Network:s_CLogSystem.obj
 0001:00012c70       ?WriteFileFinal@CLogSystem@SERVER_UTIL@@IAEXXZ 00413c70 f   Lib_Network:s_CLogSystem.obj
 0001:00012d60       ?WriteNow@CLogSystem@SERVER_UTIL@@IAEXXZ 00413d60 f   Lib_Network:s_CLogSystem.obj
 0001:00012e80       ??1CLogSystem@SERVER_UTIL@@QAE@XZ 00413e80 f   Lib_Network:s_CLogSystem.obj
 0001:00012ed0       ?Write@CLogSystem@SERVER_UTIL@@QAAXPADZZ 00413ed0 f   Lib_Network:s_CLogSystem.obj
 0001:00013080       ?CreateNewConnection@COdbcSupervisor@@IAEPAUODBC_STMT@@XZ 00414080 f   Lib_Network:s_COdbcSupervisor.obj
 0001:000131a0       ?GetConnection@COdbcSupervisor@@QAEPAUODBC_STMT@@XZ 004141a0 f   Lib_Network:s_COdbcSupervisor.obj
 0001:000131c0       ?FreeConnection@COdbcSupervisor@@QAEXPAUODBC_STMT@@@Z 004141c0 f   Lib_Network:s_COdbcSupervisor.obj
 0001:00013210       ?Print@COdbcSupervisor@@QAEXV?$CStringT@DV?$StrTraitMFC_DLL@DV?$ChTraitsCRT@D@ATL@@@@@ATL@@@Z 00414210 f   Lib_Network:s_COdbcSupervisor.obj
 0001:00013270       ?Print@COdbcSupervisor@@QAEXPBD@Z 00414270 f   Lib_Network:s_COdbcSupervisor.obj
 0001:00013290       ?GetErrorString@COdbcSupervisor@@QAE?AV?$CStringT@DV?$StrTraitMFC_DLL@DV?$ChTraitsCRT@D@ATL@@@@@ATL@@PAX@Z 00414290 f   Lib_Network:s_COdbcSupervisor.obj
 0001:000133d0       ?SetOdbcName@COdbcSupervisor@@QAEXPBD@Z 004143d0 f   Lib_Network:s_COdbcSupervisor.obj
 0001:00013410       ?SetUserID@COdbcSupervisor@@QAEXPBD@Z 00414410 f   Lib_Network:s_COdbcSupervisor.obj
 0001:00013450       ?SetUserPass@COdbcSupervisor@@QAEXPBD@Z 00414450 f   Lib_Network:s_COdbcSupervisor.obj
 0001:00013490       ?SetDBName@COdbcSupervisor@@QAEXPBD@Z 00414490 f   Lib_Network:s_COdbcSupervisor.obj
 0001:000134d0       ?OpenDB@COdbcSupervisor@@QAEHXZ 004144d0 f   Lib_Network:s_COdbcSupervisor.obj
 0001:000134f0       ?ExecuteSQL@COdbcSupervisor@@QAEHPBD@Z 004144f0 f   Lib_Network:s_COdbcSupervisor.obj
 0001:00013580       ?ExecuteSp@COdbcSupervisor@@QAEHPBD@Z 00414580 f   Lib_Network:s_COdbcSupervisor.obj
 0001:00013610       ?ExecuteSpInt@COdbcSupervisor@@QAEHPBD@Z 00414610 f   Lib_Network:s_COdbcSupervisor.obj
 0001:00013720       ?WriteImage@COdbcSupervisor@@QAEHPBDHPAEH@Z 00414720 f   Lib_Network:s_COdbcSupervisor.obj
 0001:00013830       ?WriteImage@COdbcSupervisor@@QAEHAAVstrstream@std@@HPAEH@Z 00414830 f   Lib_Network:s_COdbcSupervisor.obj
 0001:00013950       ??1?$TCList@UODBC_STMT@@@MEM_POOLER@@QAE@XZ 00414950 f i Lib_Network:s_COdbcSupervisor.obj
 0001:00013990       ??1COdbcSupervisor@@QAE@XZ 00414990 f   Lib_Network:s_COdbcSupervisor.obj
 0001:000139c0       ??0COdbcSupervisor@@QAE@PBD000HH@Z 004149c0 f   Lib_Network:s_COdbcSupervisor.obj
 0001:00013aa0       ?ClearBuffer@CByteStream@@QAEXXZ 00414aa0 f i Lib_Network:s_COdbcSupervisor.obj
 0001:00013ae0       ?ReadImagePet@COdbcSupervisor@@QAEHPBDHHAAVCByteStream@@@Z 00414ae0 f   Lib_Network:s_COdbcSupervisor.obj
 0001:00013cc0       ?ReadImageVehicle@COdbcSupervisor@@QAEHPBDHHAAVCByteStream@@@Z 00414cc0 f   Lib_Network:s_COdbcSupervisor.obj
 0001:00013ea0       ?EquipmentLockEnable@COdbcManager@@UAEHKPAD0@Z 00414ea0 f   Lib_Network:s_COdbcGameChaEquipmentLock.obj
 0001:00014010       ?EquipmentLockInput@COdbcManager@@UAEHKPAD0@Z 00415010 f   Lib_Network:s_COdbcGameChaEquipmentLock.obj
 0001:00014180       ?EquipmentLockRecover@COdbcManager@@UAEHKPADAAV?$basic_string@DU?$char_traits@D@std@@V?$allocator@D@2@@std@@@Z 00415180 f   Lib_Network:s_COdbcGameChaEquipmentLock.obj
 0001:00014470       ?EquipmentLockRecoverChange@COdbcManager@@UAEHKPAD0@Z 00415470 f   Lib_Network:s_COdbcGameChaEquipmentLock.obj
 0001:000145e0       ?EquipmentLockRecoverDelete@COdbcManager@@UAEHKPAD@Z 004155e0 f   Lib_Network:s_COdbcGameChaEquipmentLock.obj
 0001:000146e0       ?LogPartyMatch@COdbcManager@@UAEHHHGG@Z 004156e0 f   Lib_Network:s_COdbcGame.obj
 0001:00014750       ?SetChaExp@COdbcManager@@UAEHH_J@Z 00415750 f   Lib_Network:s_COdbcGame.obj
 0001:000147d0       ?GetChaExp@COdbcManager@@UAE_JH@Z 004157d0 f   Lib_Network:s_COdbcGame.obj
 0001:00014a00       ?SetLastCallPos@COdbcManager@@UAEHHKUD3DXVECTOR3@@@Z 00415a00 f   Lib_Network:s_COdbcGame.obj
 0001:00014a80       ?_Rrotate@?$_Tree@V?$_Tmap_traits@KUPLAYER_RANKING@@U?$less@K@std@@V?$allocator@U?$pair@$$CBKUPLAYER_RANKING@@@std@@@3@$0A@@std@@@std@@IAEXPAU_Node@?$_Tree_nod@V?$_Tmap_traits@KUPLAYER_RANKING@@U?$less@K@std@@V?$allocator@U?$pair@$$CBKUPLAYER_RANKING@@@std@@@3@$0A@@std@@@2@@Z 00415a80 f i Lib_Network:s_COdbcGame.obj
 0001:00014ae0       ?_Lrotate@?$_Tree@V?$_Tmap_traits@KUPLAYER_RANKING@@U?$less@K@std@@V?$allocator@U?$pair@$$CBKUPLAYER_RANKING@@@std@@@3@$0A@@std@@@std@@IAEXPAU_Node@?$_Tree_nod@V?$_Tmap_traits@KUPLAYER_RANKING@@U?$less@K@std@@V?$allocator@U?$pair@$$CBKUPLAYER_RANKING@@@std@@@3@$0A@@std@@@2@@Z 00415ae0 f i Lib_Network:s_COdbcGame.obj
 0001:00014b40       ?_Dec@const_iterator@?$_Tree@V?$_Tmap_traits@KUPLAYER_RANKING@@U?$less@K@std@@V?$allocator@U?$pair@$$CBKUPLAYER_RANKING@@@std@@@3@$0A@@std@@@std@@QAEXXZ 00415b40 f i Lib_Network:s_COdbcGame.obj
 0001:00014ba0       ?_Inc@const_iterator@?$_Tree@V?$_Tmap_traits@KUPLAYER_RANKING@@U?$less@K@std@@V?$allocator@U?$pair@$$CBKUPLAYER_RANKING@@@std@@@3@$0A@@std@@@std@@QAEXXZ 00415ba0 f i Lib_Network:s_COdbcGame.obj
 0001:00014c00       ??4PLAYER_RANKING@@QAEAAU0@ABU0@@Z 00415c00 f i Lib_Network:s_COdbcGame.obj
 0001:00014c70       ?_Buynode@?$_Tree@V?$_Tmap_traits@KUPLAYER_RANKING@@U?$less@K@std@@V?$allocator@U?$pair@$$CBKUPLAYER_RANKING@@@std@@@3@$0A@@std@@@std@@IAEPAU_Node@?$_Tree_nod@V?$_Tmap_traits@KUPLAYER_RANKING@@U?$less@K@std@@V?$allocator@U?$pair@$$CBKUPLAYER_RANKING@@@std@@@3@$0A@@std@@@2@PAU342@00ABU?$pair@$$CBKUPLAYER_RANKING@@@2@D@Z 00415c70 f i Lib_Network:s_COdbcGame.obj
 0001:00014cc0       ?_Insert@?$_Tree@V?$_Tmap_traits@KUPLAYER_RANKING@@U?$less@K@std@@V?$allocator@U?$pair@$$CBKUPLAYER_RANKING@@@std@@@3@$0A@@std@@@std@@IAE?AViterator@12@_NPAU_Node@?$_Tree_nod@V?$_Tmap_traits@KUPLAYER_RANKING@@U?$less@K@std@@V?$allocator@U?$pair@$$CBKUPLAYER_RANKING@@@std@@@3@$0A@@std@@@2@ABU?$pair@$$CBKUPLAYER_RANKING@@@2@@Z 00415cc0 f i Lib_Network:s_COdbcGame.obj
 0001:00014e80       ?insert@?$_Tree@V?$_Tmap_traits@KUPLAYER_RANKING@@U?$less@K@std@@V?$allocator@U?$pair@$$CBKUPLAYER_RANKING@@@std@@@3@$0A@@std@@@std@@QAE?AU?$pair@Viterator@?$_Tree@V?$_Tmap_traits@KUPLAYER_RANKING@@U?$less@K@std@@V?$allocator@U?$pair@$$CBKUPLAYER_RANKING@@@std@@@3@$0A@@std@@@std@@_N@2@ABU?$pair@$$CBKUPLAYER_RANKING@@@2@@Z 00415e80 f i Lib_Network:s_COdbcGame.obj
 0001:00014f40       ?insert@?$_Tree@V?$_Tmap_traits@KUPLAYER_RANKING@@U?$less@K@std@@V?$allocator@U?$pair@$$CBKUPLAYER_RANKING@@@std@@@3@$0A@@std@@@std@@QAE?AViterator@12@V312@ABU?$pair@$$CBKUPLAYER_RANKING@@@2@@Z 00415f40 f i Lib_Network:s_COdbcGame.obj
 0001:000150b0       ??A?$map@KUPLAYER_RANKING@@U?$less@K@std@@V?$allocator@U?$pair@$$CBKUPLAYER_RANKING@@@std@@@3@@std@@QAEAAUPLAYER_RANKING@@ABK@Z 004160b0 f i Lib_Network:s_COdbcGame.obj
 0001:00015180       ?GetPlayerRanking@COdbcManager@@UAEHAAV?$map@KUPLAYER_RANKING@@U?$less@K@std@@V?$allocator@U?$pair@$$CBKUPLAYER_RANKING@@@std@@@3@@std@@@Z 00416180 f   Lib_Network:s_COdbcGame.obj
 0001:00015500       ??1basestream@@UAE@XZ      00416500 f i Lib_Network:s_COdbcGameInven.obj
 0001:00015520       ?SetFileType@basestream@@UAEXPBDK@Z 00416520 f i Lib_Network:s_COdbcGameInven.obj
 0001:00015530       ?GetFileType@basestream@@UAEXPADHAAK@Z 00416530 f i Lib_Network:s_COdbcGameInven.obj
 0001:00015530       ?Send@CSessionServer@@QAEXKPAUPER_IO_OPERATION_DATA@@K@Z 00416530 f i Lib_Network:s_CSessionServer.obj
 0001:00015540       ?AddUserJob@GLDBMan@@UAEXPAVCDbAction@@@Z 00416540 f i Lib_Network:s_COdbcManager.obj
 0001:00015540       ?AddJob@GLDBMan@@UAEXPAVCDbAction@@@Z 00416540 f i Lib_Network:s_COdbcManager.obj
 0001:00015540       ?AddLogJob@GLDBMan@@UAEXPAVCDbAction@@@Z 00416540 f i Lib_Network:s_COdbcManager.obj
 0001:00015540       ?SetEncodeType@basestream@@UAEXW4EMBYTECRYPT@@@Z 00416540 f i Lib_Network:s_COdbcGameInven.obj
 0001:00015540       ?AddWebJob@GLDBMan@@UAEXPAVCDbAction@@@Z 00416540 f i Lib_Network:s_COdbcManager.obj
 0001:00015550       ?IsOpen@basestream@@UAEHXZ 00416550 f i Lib_Network:s_COdbcGameInven.obj
 0001:00015560       ?WriteFileType@basestream@@MAEXXZ 00416560 f i Lib_Network:s_COdbcGameInven.obj
 0001:00015560       ??3@YAXPAX0@Z              00416560 f i Lib_Network:s_CClientManager.obj
 0001:00015560       ??1CSystemInfo@SERVER_UTIL@@QAE@XZ 00416560 f i Lib_Network:s_CSystemInfo.obj
 0001:00015560       ??1CBit@SERVER_UTIL@@QAE@XZ 00416560 f i Lib_Network:s_CBit.obj
 0001:00015560       ?CloseFile@basestream@@UAEXXZ 00416560 f i Lib_Network:s_COdbcGameInven.obj
 0001:00015560       ?ReadFileType@basestream@@MAEXXZ 00416560 f i Lib_Network:s_COdbcGameInven.obj
 0001:00015570       ?GetFileName@basestream@@UAEPBDXZ 00416570 f i Lib_Network:s_COdbcGameInven.obj
 0001:00015580       ?GetDefaltOffSet@basestream@@UAEKXZ 00416580 f i Lib_Network:s_COdbcGameInven.obj
 0001:00015580       ?ReadBlockSize@basestream@@UAEKXZ 00416580 f i Lib_Network:s_COdbcGameInven.obj
 0001:00015590       ??6basestream@@UAEHG@Z     00416590 f i Lib_Network:s_COdbcGameInven.obj
 0001:00015590       ?BeginBlock@basestream@@UAEHW4EMSFILE_BLOCK@@@Z 00416590 f i Lib_Network:s_COdbcGameInven.obj
 0001:00015590       ??6basestream@@UAEH_N@Z    00416590 f i Lib_Network:s_COdbcGameInven.obj
 0001:00015590       ??6basestream@@UAEHK@Z     00416590 f i Lib_Network:s_COdbcGameInven.obj
 0001:00015590       ??6basestream@@UAEHM@Z     00416590 f i Lib_Network:s_COdbcGameInven.obj
 0001:00015590       ??6basestream@@UAEHE@Z     00416590 f i Lib_Network:s_COdbcGameInven.obj
 0001:00015590       ??6basestream@@UAEHF@Z     00416590 f i Lib_Network:s_COdbcGameInven.obj
 0001:00015590       ?EndBlock@basestream@@UAEHW4EMSFILE_BLOCK@@@Z 00416590 f i Lib_Network:s_COdbcGameInven.obj
 0001:00015590       ??6basestream@@UAEHI@Z     00416590 f i Lib_Network:s_COdbcGameInven.obj
 0001:00015590       ??6basestream@@UAEHAAW4_D3DBLEND@@@Z 00416590 f i Lib_Network:s_COdbcGameInven.obj
 0001:00015590       ??6basestream@@UAEHABV?$basic_string@DU?$char_traits@D@std@@V?$allocator@D@2@@std@@@Z 00416590 f i Lib_Network:s_COdbcGameInven.obj
 0001:00015590       ??6basestream@@UAEHD@Z     00416590 f i Lib_Network:s_COdbcGameInven.obj
 0001:00015590       ??6basestream@@UAEHAAU_D3DCOLORVALUE@@@Z 00416590 f i Lib_Network:s_COdbcGameInven.obj
 0001:00015590       ??6basestream@@UAEHH@Z     00416590 f i Lib_Network:s_COdbcGameInven.obj
 0001:000155a0       ?read@basestream@@MAEIPAXK@Z 004165a0 f i Lib_Network:s_COdbcGameInven.obj
 0001:000155a0       ?write@basestream@@MAEIPBXK@Z 004165a0 f i Lib_Network:s_COdbcGameInven.obj
 0001:000155b0       ?DumpToDisk@basestream@@UAEXV?$basic_string@DU?$char_traits@D@std@@V?$allocator@D@2@@std@@0@Z 004165b0 f i Lib_Network:s_COdbcGameInven.obj
 0001:00015600       ?DumpToDisk_Increment@basestream@@UAEXV?$basic_string@DU?$char_traits@D@std@@V?$allocator@D@2@@std@@@Z 00416600 f i Lib_Network:s_COdbcGameInven.obj
 0001:00015610       ??6basestream@@UAEHN@Z     00416610 f i Lib_Network:s_COdbcGameInven.obj
 0001:00015610       ?WriteBuffer@basestream@@UAEHPBXK@Z 00416610 f i Lib_Network:s_COdbcGameInven.obj
 0001:00015620       ??6basestream@@UAEHU_D3DVECTOR@@@Z 00416620 f i Lib_Network:s_COdbcGameInven.obj
 0001:00015630       ??_Gbasestream@@UAEPAXI@Z  00416630 f i Lib_Network:s_COdbcGameInven.obj
 0001:00015630       ??_Ebasestream@@UAEPAXI@Z  00416630 f i Lib_Network:s_COdbcGameInven.obj
 0001:00015650       ?SetChaStorageDate@COdbcManager@@UAEHHH_J@Z 00416650 f   Lib_Network:s_COdbcGameInven.obj
 0001:00015780       ?SetChaInvenNum@COdbcManager@@UAEHHG@Z 00416780 f   Lib_Network:s_COdbcGameInven.obj
 0001:00015800       ?CheckInven@COdbcManager@@QAE_NHK@Z 00416800 f   Lib_Network:s_COdbcGameInven.obj
 0001:00015860       ?MakeUserInven@COdbcManager@@QAEHHK@Z 00416860 f   Lib_Network:s_COdbcGameInven.obj
 0001:000158c0       ?WriteUserInven@COdbcManager@@QAEHH_JKPAEH@Z 004168c0 f   Lib_Network:s_COdbcGameInven.obj
 0001:00015b80       ?UpdateUserMoneyAdd@COdbcManager@@UAEHK_J@Z 00416b80 f   Lib_Network:s_COdbcGameInven.obj
 0001:00015c00       ?_Xlen@?$vector@EV?$allocator@E@std@@@std@@IBEXXZ 00416c00 f i Lib_Network:s_COdbcGameInven.obj
 0001:00015c80       ?UpdateUserLastInfoAdd@COdbcManager@@UAEHK_J@Z 00416c80 f   Lib_Network:s_COdbcGameInven.obj
 0001:00016010       ??0basestream@@QAE@XZ      00417010 f i Lib_Network:s_COdbcGameInven.obj
 0001:000160c0       ??0CByteStream@@QAE@XZ     004170c0 f i Lib_Network:s_COdbcGameInven.obj
 0001:00016110       ?GetfTell@CByteStream@@UAEJXZ 00417110 f i Lib_Network:s_COdbcGameInven.obj
 0001:00016120       ?SetOffSet@CByteStream@@UAEHJ@Z 00417120 f i Lib_Network:s_COdbcGameInven.obj
 0001:00016160       ??5CByteStream@@UAEHAAW4_D3DBLEND@@@Z 00417160 f i Lib_Network:s_COdbcGameInven.obj
 0001:00016160       ??5CByteStream@@UAEHAAI@Z  00417160 f i Lib_Network:s_COdbcGameInven.obj
 0001:00016160       ??5CByteStream@@UAEHAAM@Z  00417160 f i Lib_Network:s_COdbcGameInven.obj
 0001:00016160       ??5CByteStream@@UAEHAAK@Z  00417160 f i Lib_Network:s_COdbcGameInven.obj
 0001:00016160       ??5CByteStream@@UAEHAAH@Z  00417160 f i Lib_Network:s_COdbcGameInven.obj
 0001:000161a0       ??5CByteStream@@UAEHAAF@Z  004171a0 f i Lib_Network:s_COdbcGameInven.obj
 0001:000161a0       ??5CByteStream@@UAEHAAG@Z  004171a0 f i Lib_Network:s_COdbcGameInven.obj
 0001:000161e0       ??5CByteStream@@UAEHAA_J@Z 004171e0 f i Lib_Network:s_COdbcGameInven.obj
 0001:000161e0       ??5CByteStream@@UAEHAAN@Z  004171e0 f i Lib_Network:s_COdbcGameInven.obj
 0001:00016220       ??5CByteStream@@UAEHAAU_D3DVECTOR@@@Z 00417220 f i Lib_Network:s_COdbcGameInven.obj
 0001:00016260       ??5CByteStream@@UAEHAAU_D3DCOLORVALUE@@@Z 00417260 f i Lib_Network:s_COdbcGameInven.obj
 0001:000162a0       ??5CByteStream@@UAEHAAE@Z  004172a0 f i Lib_Network:s_COdbcGameInven.obj
 0001:000162a0       ??5CByteStream@@UAEHAAD@Z  004172a0 f i Lib_Network:s_COdbcGameInven.obj
 0001:000162a0       ??5CByteStream@@UAEHAA_N@Z 004172a0 f i Lib_Network:s_COdbcGameInven.obj
 0001:000162e0       ??5CByteStream@@UAEHAAV?$basic_string@DU?$char_traits@D@std@@V?$allocator@D@2@@std@@@Z 004172e0 f i Lib_Network:s_COdbcGameInven.obj
 0001:00016360       ?ReadBuffer@CByteStream@@UAEHPAXK@Z 00417360 f i Lib_Network:s_COdbcGameInven.obj
 0001:000163c0       ??1CByteStream@@UAE@XZ     004173c0 f i Lib_Network:s_COdbcGameInven.obj
 0001:00016410       ??$_Insert@PAE@?$vector@EV?$allocator@E@std@@@std@@QAEXViterator@01@PAE1Uforward_iterator_tag@1@@Z 00417410 f i Lib_Network:s_COdbcGameInven.obj
 0001:00016620       ??$_Uninit_copy@EE@std@@YAPAEPAE00AAV?$allocator@E@0@U_Scalar_ptr_iterator_tag@0@@Z 00417620 f i Lib_Network:s_COdbcGameInven.obj
 0001:00016640       ??6CByteStream@@UAEHF@Z    00417640 f i Lib_Network:s_COdbcGameInven.obj
 0001:00016640       ??6CByteStream@@UAEHG@Z    00417640 f i Lib_Network:s_COdbcGameInven.obj
 0001:00016670       ??6CByteStream@@UAEHH@Z    00417670 f i Lib_Network:s_COdbcGameInven.obj
 0001:00016670       ??6CByteStream@@UAEHI@Z    00417670 f i Lib_Network:s_COdbcGameInven.obj
 0001:00016670       ??6CByteStream@@UAEHK@Z    00417670 f i Lib_Network:s_COdbcGameInven.obj
 0001:00016670       ??6CByteStream@@UAEHM@Z    00417670 f i Lib_Network:s_COdbcGameInven.obj
 0001:000166a0       ??6CByteStream@@UAEH_J@Z   004176a0 f i Lib_Network:s_COdbcGameInven.obj
 0001:000166a0       ??6CByteStream@@UAEHN@Z    004176a0 f i Lib_Network:s_COdbcGameInven.obj
 0001:000166d0       ??6CByteStream@@UAEHU_D3DVECTOR@@@Z 004176d0 f i Lib_Network:s_COdbcGameInven.obj
 0001:00016700       ??6CByteStream@@UAEHAAU_D3DCOLORVALUE@@@Z 00417700 f i Lib_Network:s_COdbcGameInven.obj
 0001:00016730       ??6CByteStream@@UAEHAAW4_D3DBLEND@@@Z 00417730 f i Lib_Network:s_COdbcGameInven.obj
 0001:00016760       ??6CByteStream@@UAEH_N@Z   00417760 f i Lib_Network:s_COdbcGameInven.obj
 0001:00016760       ??6CByteStream@@UAEHD@Z    00417760 f i Lib_Network:s_COdbcGameInven.obj
 0001:00016760       ??6CByteStream@@UAEHE@Z    00417760 f i Lib_Network:s_COdbcGameInven.obj
 0001:00016790       ??6CByteStream@@UAEHABV?$basic_string@DU?$char_traits@D@std@@V?$allocator@D@2@@std@@@Z 00417790 f i Lib_Network:s_COdbcGameInven.obj
 0001:000167f0       ?WriteBuffer@CByteStream@@UAEHPBXK@Z 004177f0 f i Lib_Network:s_COdbcGameInven.obj
 0001:00016820       ?ReadUserInven@COdbcManager@@QAEHHKAAVCByteStream@@@Z 00417820 f   Lib_Network:s_COdbcGameInven.obj
 0001:00016ac0       ??_ECByteStream@@UAEPAXI@Z 00417ac0 f i Lib_Network:s_COdbcGameInven.obj
 0001:00016ac0       ??_GCByteStream@@UAEPAXI@Z 00417ac0 f i Lib_Network:s_COdbcGameInven.obj
 0001:00016ae0       ?ReadUserInven@COdbcManager@@UAEHPAUSCHARDATA2@@@Z 00417ae0 f   Lib_Network:s_COdbcGameInven.obj
 0001:00017030       ?InsertUserAttend@COdbcManager@@UAEHHHH@Z 00418030 f   Lib_Network:s_COdbcLogEvent.obj
 0001:00017100       ?InsertAttendItem@COdbcManager@@UAEHV?$CStringT@DV?$StrTraitMFC_DLL@DV?$ChTraitsCRT@D@ATL@@@@@ATL@@0HH@Z 00418100 f   Lib_Network:s_COdbcLogEvent.obj
 0001:000171d0       ?_Xlen@?$vector@UUSER_ATTEND_INFO@@V?$allocator@UUSER_ATTEND_INFO@@@std@@@std@@IBEXXZ 004181d0 f i Lib_Network:s_COdbcLogEvent.obj
 0001:00017250       ??$fill@PAUUSER_ATTEND_INFO@@U1@@std@@YAXPAUUSER_ATTEND_INFO@@0ABU1@@Z 00418250 f i Lib_Network:s_COdbcLogEvent.obj
 0001:00017250       ??$fill@PAUVIEWLOGITEMEXCHANGEMAX@@U1@@std@@YAXPAUVIEWLOGITEMEXCHANGEMAX@@0ABU1@@Z 00418250 f i Lib_Network:s_COdbcLogItem.obj
 0001:00017290       ??$_Copy_backward_opt@PAUVIEWLOGITEMEXCHANGEMAX@@PAU1@@std@@YAPAUVIEWLOGITEMEXCHANGEMAX@@PAU1@00U_Nonscalar_ptr_iterator_tag@0@@Z 00418290 f i Lib_Network:s_COdbcLogItem.obj
 0001:00017290       ??$_Copy_backward_opt@PAUUSER_ATTEND_INFO@@PAU1@@std@@YAPAUUSER_ATTEND_INFO@@PAU1@00U_Nonscalar_ptr_iterator_tag@0@@Z 00418290 f i Lib_Network:s_COdbcLogEvent.obj
 0001:000172d0       ??$_Uninit_fill_n@PAUVIEWLOGITEMEXCHANGEMAX@@IU1@V?$allocator@UVIEWLOGITEMEXCHANGEMAX@@@std@@@std@@YAXPAUVIEWLOGITEMEXCHANGEMAX@@IABU1@AAV?$allocator@UVIEWLOGITEMEXCHANGEMAX@@@0@U_Nonscalar_ptr_iterator_tag@0@@Z 004182d0 f i Lib_Network:s_COdbcLogItem.obj
 0001:000172d0       ??$_Uninit_fill_n@PAUUSER_ATTEND_INFO@@IU1@V?$allocator@UUSER_ATTEND_INFO@@@std@@@std@@YAXPAUUSER_ATTEND_INFO@@IABU1@AAV?$allocator@UUSER_ATTEND_INFO@@@0@U_Nonscalar_ptr_iterator_tag@0@@Z 004182d0 f i Lib_Network:s_COdbcLogEvent.obj
 0001:00017310       ?_Ufill@?$vector@UUSER_ATTEND_INFO@@V?$allocator@UUSER_ATTEND_INFO@@@std@@@std@@IAEPAUUSER_ATTEND_INFO@@PAU3@IABU3@@Z 00418310 f i Lib_Network:s_COdbcLogEvent.obj
 0001:00017310       ?_Ufill@?$vector@UVIEWLOGITEMEXCHANGEMAX@@V?$allocator@UVIEWLOGITEMEXCHANGEMAX@@@std@@@std@@IAEPAUVIEWLOGITEMEXCHANGEMAX@@PAU3@IABU3@@Z 00418310 f i Lib_Network:s_COdbcLogItem.obj
 0001:00017340       ?_Insert_n@?$vector@UUSER_ATTEND_INFO@@V?$allocator@UUSER_ATTEND_INFO@@@std@@@std@@IAEXViterator@12@IABUUSER_ATTEND_INFO@@@Z 00418340 f i Lib_Network:s_COdbcLogEvent.obj
 0001:000175b0       ?LogUserAttend@COdbcManager@@UAEHHAAV?$vector@UUSER_ATTEND_INFO@@V?$allocator@UUSER_ATTEND_INFO@@@std@@@std@@@Z 004185b0 f   Lib_Network:s_COdbcLogEvent.obj
 0001:00017920       ?AddLogServerState@COdbcManager@@QAEHHHHH@Z 00418920 f   Lib_Network:s_COdbcLog.obj
 0001:00017990       ?LogRandomItem@COdbcManager@@UAEHABUSLOGRANDOMOPTION@@@Z 00418990 f   Lib_Network:s_COdbcLog.obj
 0001:00017a30       ?LogPetAction@COdbcManager@@UAEHABUSLOGPETACTION@@@Z 00418a30 f   Lib_Network:s_COdbcLog.obj
 0001:00017aa0       ?LogVehicleAction@COdbcManager@@UAEHABUSLOGVEHICLEACTION@@@Z 00418aa0 f   Lib_Network:s_COdbcLog.obj
 0001:00017b10       ?LogAction@COdbcManager@@UAEHABUSLOGACTION@@@Z 00418b10 f   Lib_Network:s_COdbcLog.obj
 0001:00017b90       ?LogAppeal@COdbcManager@@UAEHHHV?$CStringT@DV?$StrTraitMFC_DLL@DV?$ChTraitsCRT@D@ATL@@@@@ATL@@@Z 00418b90 f   Lib_Network:s_COdbcLog.obj
 0001:00017c90       ?LogHackProgram@COdbcManager@@UAEHHHHHHPBD@Z 00418c90 f   Lib_Network:s_COdbcLog.obj
 0001:00017d90       ?CreateVehicle@COdbcManager@@UAEHHPBDHHH@Z 00418d90 f   Lib_Network:s_OdbcGameVehicle.obj
 0001:00017e70       ?SetVehicleBooster@COdbcManager@@UAEHHH_N@Z 00418e70 f   Lib_Network:s_OdbcGameVehicle.obj
 0001:00017f40       ?SetVehicleBattery@COdbcManager@@UAEHHHH@Z 00418f40 f   Lib_Network:s_OdbcGameVehicle.obj
 0001:00018020       ?GetVehicleBattery@COdbcManager@@UAEHHH@Z 00419020 f   Lib_Network:s_OdbcGameVehicle.obj
 0001:00018080       ?DeleteVehicle@COdbcManager@@UAEHHH@Z 00419080 f   Lib_Network:s_OdbcGameVehicle.obj
 0001:00018150       ?GetVehicle@COdbcManager@@UAEHPAUGLVEHICLE@@HH@Z 00419150 f   Lib_Network:s_OdbcGameVehicle.obj
 0001:000184d0       ?GetBuffer@CByteStream@@QAEXAAPAEAAK@Z 004194d0 f i Lib_Network:s_OdbcGameVehicle.obj
 0001:00018510       ?SetVehicleInven@COdbcManager@@UAEHHHAAVCByteStream@@@Z 00419510 f   Lib_Network:s_OdbcGameVehicle.obj
 0001:00018680       ?SetVehicleColor@COdbcManager@@UAEHHHAAVCByteStream@@@Z 00419680 f   Lib_Network:s_OdbcGameVehicle.obj
 0001:000187f0       ?GetVehicleInven@COdbcManager@@UAEHPAUGLVEHICLE@@HH@Z 004197f0 f   Lib_Network:s_OdbcGameVehicle.obj
 0001:000188e0       ?GetVehicleColor@COdbcManager@@UAEHPAUGLVEHICLE@@HH@Z 004198e0 f   Lib_Network:s_OdbcGameVehicle.obj
 0001:000189d0       ?DaumUserPassCheck@COdbcManager@@UAEHPBD0H@Z 004199d0 f   Lib_Network:s_COdbcUserCheck.obj
 0001:00018a30       ?TerraUserPassCheck@COdbcManager@@UAEHPBD0H@Z 00419a30 f   Lib_Network:s_COdbcUserCheck.obj
 0001:00018a90       ?ExciteUserPassCheck@COdbcManager@@UAEHPBD00H@Z 00419a90 f   Lib_Network:s_COdbcUserCheck.obj
 0001:00018b00       ?ThaiUserClassCheck@COdbcManager@@UAEHPBD@Z 00419b00 f   Lib_Network:s_COdbcUserCheck.obj
 0001:00018e10       ?MyUserClassCheck@COdbcManager@@UAEHPBD@Z 00419e10 f   Lib_Network:s_COdbcUserCheck.obj
 0001:00019180       ?LogSMS@COdbcManager@@UAEHHHPBD0@Z 0041a180 f   Lib_Network:s_COdbcSMS.obj
 0001:00019210       ?SetChaPhoneNumber@COdbcManager@@UAEHHPBD@Z 0041a210 f   Lib_Network:s_COdbcSMS.obj
 0001:00019280       ?CreatePet@COdbcManager@@UAEHHPBDHHHHHHH@Z 0041a280 f   Lib_Network:s_COdbcGamePet.obj
 0001:00019370       ?ExchangePet@COdbcManager@@UAEHHH@Z 0041a370 f   Lib_Network:s_COdbcGamePet.obj
 0001:00019450       ?SetPetColor@COdbcManager@@UAEHHHH@Z 0041a450 f   Lib_Network:s_COdbcGamePet.obj
 0001:00019520       ?SetPetStyle@COdbcManager@@UAEHHHH@Z 0041a520 f   Lib_Network:s_COdbcGamePet.obj
 0001:000195f0       ?SetPetFull@COdbcManager@@UAEHHHH@Z 0041a5f0 f   Lib_Network:s_COdbcGamePet.obj
 0001:000196d0       ?DeletePet@COdbcManager@@UAEHHH@Z 0041a6d0 f   Lib_Network:s_COdbcGamePet.obj
 0001:000197a0       ?SetPetSkill@COdbcManager@@UAEHHHHHHHHH@Z 0041a7a0 f   Lib_Network:s_COdbcGamePet.obj
 0001:00019890       ?GetPetFull@COdbcManager@@UAEHHK@Z 0041a890 f   Lib_Network:s_COdbcGamePet.obj
 0001:000198f0       ?RestorePet@COdbcManager@@UAEHKH@Z 0041a8f0 f   Lib_Network:s_COdbcGamePet.obj
 0001:000199c0       ?UpdatePetSkin@COdbcManager@@UAEHHKHHHH@Z 0041a9c0 f   Lib_Network:s_COdbcGamePet.obj
 0001:00019aa0       ?SetPetDualSkill@COdbcManager@@UAEHHH_N@Z 0041aaa0 f   Lib_Network:s_COdbcGamePet.obj
 0001:00019b70       ?size@?$vector@V?$basic_string@DU?$char_traits@D@std@@V?$allocator@D@2@@std@@V?$allocator@V?$basic_string@DU?$char_traits@D@std@@V?$allocator@D@2@@std@@@2@@std@@QBEIXZ 0041ab70 f i Lib_Network:s_CLogSystem.obj
 0001:00019b70       ?size@?$vector@UPET_RELIST@@V?$allocator@UPET_RELIST@@@std@@@std@@QBEIXZ 0041ab70 f i Lib_Network:s_COdbcGamePet.obj
 0001:00019ba0       ?_Xlen@?$vector@UPET_RELIST@@V?$allocator@UPET_RELIST@@@std@@@std@@IBEXXZ 0041aba0 f i Lib_Network:s_COdbcGamePet.obj
 0001:00019ba0       ?_Xlen@?$vector@Viterator@?$list@U?$pair@$$CBKUPETSKILL@@@std@@V?$allocator@U?$pair@$$CBKUPETSKILL@@@std@@@2@@std@@V?$allocator@Viterator@?$list@U?$pair@$$CBKUPETSKILL@@@std@@V?$allocator@U?$pair@$$CBKUPETSKILL@@@std@@@2@@std@@@3@@std@@IBEXXZ 0041aba0 f i Lib_Network:s_COdbcGamePet.obj
 0001:00019c20       ??$fill@PAViterator@?$list@U?$pair@$$CBV?$basic_string@DU?$char_traits@D@std@@V?$allocator@D@2@@std@@PAUSSoundEx@@@std@@V?$allocator@U?$pair@$$CBV?$basic_string@DU?$char_traits@D@std@@V?$allocator@D@2@@std@@PAUSSoundEx@@@std@@@2@@std@@V123@@std@@YAXPAViterator@?$list@U?$pair@$$CBV?$basic_string@DU?$char_traits@D@std@@V?$allocator@D@2@@std@@PAUSSoundEx@@@std@@V?$allocator@U?$pair@$$CBV?$basic_string@DU?$char_traits@D@std@@V?$allocator@D@2@@std@@PAUSSoundEx@@@std@@@2@@0@0ABV120@@Z 0041ac20 f i Lib_Engine:DxSoundLib.obj
 0001:00019c20       ??$fill@PAViterator@?$list@U?$pair@$$CBKUPETSKILL@@@std@@V?$allocator@U?$pair@$$CBKUPETSKILL@@@std@@@2@@std@@V123@@std@@YAXPAViterator@?$list@U?$pair@$$CBKUPETSKILL@@@std@@V?$allocator@U?$pair@$$CBKUPETSKILL@@@std@@@2@@0@0ABV120@@Z 0041ac20 f i Lib_Network:s_COdbcGamePet.obj
 0001:00019c20       ??$fill@PAHH@std@@YAXPAH0ABH@Z 0041ac20 f i Lib_Network:s_CClientManager.obj
 0001:00019c40       ??$fill@PAUPET_RELIST@@U1@@std@@YAXPAUPET_RELIST@@0ABU1@@Z 0041ac40 f i Lib_Network:s_COdbcGamePet.obj
 0001:00019c70       ?RenamePet@COdbcManager@@UAEHHHPBD@Z 0041ac70 f   Lib_Network:s_COdbcGamePet.obj
 0001:00019d90       ?GetPet@COdbcManager@@UAEHPAUGLPET@@KK@Z 0041ad90 f   Lib_Network:s_COdbcGamePet.obj
 0001:0001a470       ??$copy_backward@PAViterator@?$list@U?$pair@$$CBKUPETSKILL@@@std@@V?$allocator@U?$pair@$$CBKUPETSKILL@@@std@@@2@@std@@PAV123@@std@@YAPAViterator@?$list@U?$pair@$$CBKUPETSKILL@@@std@@V?$allocator@U?$pair@$$CBKUPETSKILL@@@std@@@2@@0@PAV120@00@Z 0041b470 f i Lib_Network:s_COdbcGamePet.obj
 0001:0001a470       ??$copy_backward@PAViterator@?$list@U?$pair@$$CBV?$basic_string@DU?$char_traits@D@std@@V?$allocator@D@2@@std@@PAUSSoundEx@@@std@@V?$allocator@U?$pair@$$CBV?$basic_string@DU?$char_traits@D@std@@V?$allocator@D@2@@std@@PAUSSoundEx@@@std@@@2@@std@@PAV123@@std@@YAPAViterator@?$list@U?$pair@$$CBV?$basic_string@DU?$char_traits@D@std@@V?$allocator@D@2@@std@@PAUSSoundEx@@@std@@V?$allocator@U?$pair@$$CBV?$basic_string@DU?$char_traits@D@std@@V?$allocator@D@2@@std@@PAUSSoundEx@@@std@@@2@@0@PAV120@00@Z 0041b470 f i Lib_Engine:DxSoundLib.obj
 0001:0001a4a0       ??$copy_backward@PAUPET_RELIST@@PAU1@@std@@YAPAUPET_RELIST@@PAU1@00@Z 0041b4a0 f i Lib_Network:s_COdbcGamePet.obj
 0001:0001a4d0       ??$_Uninit_copy@Vconst_iterator@?$vector@USONEMAPWEATHER@@V?$allocator@USONEMAPWEATHER@@@std@@@std@@PAUSONEMAPWEATHER@@V?$allocator@USONEMAPWEATHER@@@3@@std@@YAPAUSONEMAPWEATHER@@Vconst_iterator@?$vector@USONEMAPWEATHER@@V?$allocator@USONEMAPWEATHER@@@std@@@0@0PAU1@AAV?$allocator@USONEMAPWEATHER@@@0@U_Nonscalar_ptr_iterator_tag@0@@Z 0041b4d0 f i Lib_Client:GLLandMan.obj
 0001:0001a4d0       ??$_Uninit_copy@PAUPET_RELIST@@PAU1@V?$allocator@UPET_RELIST@@@std@@@std@@YAPAUPET_RELIST@@PAU1@00AAV?$allocator@UPET_RELIST@@@0@U_Nonscalar_ptr_iterator_tag@0@@Z 0041b4d0 f i Lib_Network:s_COdbcGamePet.obj
 0001:0001a500       ?_Incsize@?$list@U?$pair@$$CBKUPETSKILL@@@std@@V?$allocator@U?$pair@$$CBKUPETSKILL@@@std@@@2@@std@@IAEXI@Z 0041b500 f i Lib_Network:s_COdbcGamePet.obj
 0001:0001a5a0       ?_Buynode@?$list@U?$pair@$$CBKUPETSKILL@@@std@@V?$allocator@U?$pair@$$CBKUPETSKILL@@@std@@@2@@std@@IAEPAU_Node@?$_List_nod@U?$pair@$$CBKUPETSKILL@@@std@@V?$allocator@U?$pair@$$CBKUPETSKILL@@@std@@@2@@2@PAU342@0ABU?$pair@$$CBKUPETSKILL@@@2@@Z 0041b5a0 f i Lib_Network:s_COdbcGamePet.obj
 0001:0001a5e0       ??$_Uninit_fill_n@PAUPET_RELIST@@IU1@V?$allocator@UPET_RELIST@@@std@@@std@@YAXPAUPET_RELIST@@IABU1@AAV?$allocator@UPET_RELIST@@@0@U_Nonscalar_ptr_iterator_tag@0@@Z 0041b5e0 f i Lib_Network:s_COdbcGamePet.obj
 0001:0001a610       ?SetPetInven@COdbcManager@@UAEHHHAAVCByteStream@@@Z 0041b610 f   Lib_Network:s_COdbcGamePet.obj
 0001:0001a770       ?_Ufill@?$vector@UPET_RELIST@@V?$allocator@UPET_RELIST@@@std@@@std@@IAEPAUPET_RELIST@@PAU3@IABU3@@Z 0041b770 f i Lib_Network:s_COdbcGamePet.obj
 0001:0001a7a0       ?GetPetInven@COdbcManager@@UAEHHPAUGLPET@@K@Z 0041b7a0 f   Lib_Network:s_COdbcGamePet.obj
 0001:0001a890       ?_Insert_n@?$vector@Viterator@?$list@U?$pair@$$CBKUPETSKILL@@@std@@V?$allocator@U?$pair@$$CBKUPETSKILL@@@std@@@2@@std@@V?$allocator@Viterator@?$list@U?$pair@$$CBKUPETSKILL@@@std@@V?$allocator@U?$pair@$$CBKUPETSKILL@@@std@@@2@@std@@@3@@std@@IAEXViterator@12@IABV3?$list@U?$pair@$$CBKUPETSKILL@@@std@@V?$allocator@U?$pair@$$CBKUPETSKILL@@@std@@@2@@2@@Z 0041b890 f i Lib_Network:s_COdbcGamePet.obj
 0001:0001aad0       ?_Insert_n@?$vector@UPET_RELIST@@V?$allocator@UPET_RELIST@@@std@@@std@@IAEXViterator@12@IABUPET_RELIST@@@Z 0041bad0 f i Lib_Network:s_COdbcGamePet.obj
 0001:0001ada0       ?resize@?$vector@Viterator@?$list@U?$pair@$$CBKUPETSKILL@@@std@@V?$allocator@U?$pair@$$CBKUPETSKILL@@@std@@@2@@std@@V?$allocator@Viterator@?$list@U?$pair@$$CBKUPETSKILL@@@std@@V?$allocator@U?$pair@$$CBKUPETSKILL@@@std@@@2@@std@@@3@@std@@QAEXIViterator@?$list@U?$pair@$$CBKUPETSKILL@@@std@@V?$allocator@U?$pair@$$CBKUPETSKILL@@@std@@@2@@2@@Z 0041bda0 f i Lib_Network:s_COdbcGamePet.obj
 0001:0001ae10       ?insert@?$vector@UPET_RELIST@@V?$allocator@UPET_RELIST@@@std@@@std@@QAE?AViterator@12@V312@ABUPET_RELIST@@@Z 0041be10 f i Lib_Network:s_COdbcGamePet.obj
 0001:0001ae80       ?insert@?$_Hash@V?$_Hmap_traits@KUPETSKILL@@V?$hash_compare@KU?$less@K@std@@@stdext@@V?$allocator@U?$pair@$$CBKUPETSKILL@@@std@@@std@@$0A@@stdext@@@stdext@@QAE?AU?$pair@Viterator@?$list@U?$pair@$$CBKUPETSKILL@@@std@@V?$allocator@U?$pair@$$CBKUPETSKILL@@@std@@@2@@std@@_N@std@@ABU?$pair@$$CBKUPETSKILL@@@4@@Z 0041be80 f i Lib_Network:s_COdbcGamePet.obj
 0001:0001b0d0       ?push_back@?$vector@UPET_RELIST@@V?$allocator@UPET_RELIST@@@std@@@std@@QAEXABUPET_RELIST@@@Z 0041c0d0 f i Lib_Network:s_COdbcGamePet.obj
 0001:0001b160       ?GetPetSkill@COdbcManager@@UAEHHPAUGLPET@@K@Z 0041c160 f   Lib_Network:s_COdbcGamePet.obj
 0001:0001b450       ?GetRestorePetList@COdbcManager@@UAEHHAAV?$vector@UPET_RELIST@@V?$allocator@UPET_RELIST@@@std@@@std@@@Z 0041c450 f   Lib_Network:s_COdbcGamePet.obj
 0001:0001b760       ?GetPoints@COdbcManager@@UAEHHKKPAH0@Z 0041c760 f   Lib_Network:s_COdbcUserGetUserInfo.obj
 0001:0001b9b0       ?SaveChaPos@COdbcManager@@UAEHKKKMMMKMMMKMMM@Z 0041c9b0 f   Lib_Network:s_COdbcGameChaSave.obj
 0001:0001ba60       ?SaveCharacter@COdbcManager@@UAEHPAX@Z 0041ca60 f   Lib_Network:s_COdbcGameChaSave.obj
 0001:0001c270       ?SetChaHairColor@COdbcManager@@UAEHKH@Z 0041d270 f   Lib_Network:s_COdbcGameChaHair.obj
 0001:0001c2e0       ?SetChaHairStyle@COdbcManager@@UAEHKH@Z 0041d2e0 f   Lib_Network:s_COdbcGameChaHair.obj
 0001:0001c350       ?SetChaFaceStyle@COdbcManager@@UAEHKH@Z 0041d350 f   Lib_Network:s_COdbcGameChaHair.obj
 0001:0001c3c0       ?SetChaGenderChange@COdbcManager@@UAEHKHHHHH@Z 0041d3c0 f   Lib_Network:s_COdbcGameChaHair.obj
 0001:0001c4b0       ?RenameCharacter@COdbcManager@@UAEHKPAD@Z 0041d4b0 f   Lib_Network:s_COdbcGameChaRename.obj
 0001:0001c5b0       ??0GLCLUBINFO@@QAE@XZ      0041d5b0 f i Lib_Network:s_COdbcGameClub.obj
 0001:0001c6c0       ??0GLCLUBBATTLE@@QAE@XZ    0041d6c0 f i Lib_Network:s_COdbcGameClub.obj
 0001:0001c740       ?CreateClub@COdbcManager@@UAEHV?$CStringT@DV?$StrTraitMFC_DLL@DV?$ChTraitsCRT@D@ATL@@@@@ATL@@K@Z 0041d740 f   Lib_Network:s_COdbcGameClub.obj
 0001:0001c7e0       ?DeleteClub@COdbcManager@@UAEHKK@Z 0041d7e0 f   Lib_Network:s_COdbcGameClub.obj
 0001:0001c840       ?SetClubRank@COdbcManager@@UAEHKK@Z 0041d840 f   Lib_Network:s_COdbcGameClub.obj
 0001:0001c8a0       ?SetClubDissolutionTime@COdbcManager@@UAEHK_J@Z 0041d8a0 f   Lib_Network:s_COdbcGameClub.obj
 0001:0001c960       ?SetClubAllianceSec@COdbcManager@@UAEHK_J@Z 0041d960 f   Lib_Network:s_COdbcGameClub.obj
 0001:0001ca20       ?SetClubAllianceDis@COdbcManager@@UAEHK_J@Z 0041da20 f   Lib_Network:s_COdbcGameClub.obj
 0001:0001cae0       ?SetClubAuthorityTime@COdbcManager@@UAEHK_J@Z 0041dae0 f   Lib_Network:s_COdbcGameClub.obj
 0001:0001cba0       ?AddClubMember@COdbcManager@@UAEHKK@Z 0041dba0 f   Lib_Network:s_COdbcGameClub.obj
 0001:0001cc00       ?DeleteClubMember@COdbcManager@@UAEHK@Z 0041dc00 f   Lib_Network:s_COdbcGameClub.obj
 0001:0001cc60       ?SetClubNotice@COdbcManager@@UAEHKPBD@Z 0041dc60 f   Lib_Network:s_COdbcGameClub.obj
 0001:0001cd50       ?WriteClubMarkImage@COdbcManager@@UAEHKKPAEH@Z 0041dd50 f   Lib_Network:s_COdbcGameClub.obj
 0001:0001d040       ?SetClubIncomeMoney@COdbcManager@@UAEHK_J@Z 0041e040 f   Lib_Network:s_COdbcGameClub.obj
 0001:0001d120       ?GetClubIncomeMoney@COdbcManager@@UAE_JK@Z 0041e120 f   Lib_Network:s_COdbcGameClub.obj
 0001:0001d380       ?SetClubMoney@COdbcManager@@UAEHK_J@Z 0041e380 f   Lib_Network:s_COdbcGameClub.obj
 0001:0001d460       ?GetClubMoney@COdbcManager@@UAE_JK@Z 0041e460 f   Lib_Network:s_COdbcGameClub.obj
 0001:0001d6c0       ?WriteClubStorage@COdbcManager@@UAEHKPAEH@Z 0041e6c0 f   Lib_Network:s_COdbcGameClub.obj
 0001:0001d9b0       ?SetClubMasterFlags@COdbcManager@@UAEHKKK@Z 0041e9b0 f   Lib_Network:s_COdbcGameClub.obj
 0001:0001da30       ?SetClubDeputy@COdbcManager@@UAEHKK@Z 0041ea30 f   Lib_Network:s_COdbcGameClub.obj
 0001:0001da90       ?SetClubAuthority@COdbcManager@@UAEHKK@Z 0041ea90 f   Lib_Network:s_COdbcGameClub.obj
 0001:0001daf0       ?SetClubRegion@COdbcManager@@UAEHKKM@Z 0041eaf0 f   Lib_Network:s_COdbcGameClub.obj
 0001:0001db60       ?DelClubRegion@COdbcManager@@UAEHKK@Z 0041eb60 f   Lib_Network:s_COdbcGameClub.obj
 0001:0001dbc0       ?SetClubAlliance@COdbcManager@@UAEHKK@Z 0041ebc0 f   Lib_Network:s_COdbcGameClub.obj
 0001:0001dca0       ?DelClubAlliance@COdbcManager@@UAEHKK@Z 0041eca0 f   Lib_Network:s_COdbcGameClub.obj
 0001:0001dd80       ?SetClubBattle@COdbcManager@@UAEHKKKH@Z 0041ed80 f   Lib_Network:s_COdbcGameClub.obj
 0001:0001de60       ?EndClubBattle@COdbcManager@@UAEHKKHHH_N@Z 0041ee60 f   Lib_Network:s_COdbcGameClub.obj
 0001:0001dfc0       ?SaveClubBattle@COdbcManager@@UAEHKKHH@Z 0041efc0 f   Lib_Network:s_COdbcGameClub.obj
 0001:0001e0a0       ?ReSetAllianceBattle@COdbcManager@@UAEHK@Z 0041f0a0 f   Lib_Network:s_COdbcGameClub.obj
 0001:0001e170       ?size@?$vector@UGLCLUBMEMBER@@V?$allocator@UGLCLUBMEMBER@@@std@@@std@@QBEIXZ 0041f170 f i Lib_Network:s_COdbcGameClub.obj
 0001:0001e190       ?size@?$vector@UGLCLUBINFO@@V?$allocator@UGLCLUBINFO@@@std@@@std@@QBEIXZ 0041f190 f i Lib_Network:s_COdbcGameClub.obj
 0001:0001e1b0       ?size@?$vector@UGLGUID_DB@@V?$allocator@UGLGUID_DB@@@std@@@std@@QBEIXZ 0041f1b0 f i Lib_Network:s_COdbcGameClub.obj
 0001:0001e1d0       ?size@?$vector@UGLCLUBBATTLE@@V?$allocator@UGLCLUBBATTLE@@@std@@@std@@QBEIXZ 0041f1d0 f i Lib_Network:s_COdbcGameClub.obj
 0001:0001e1f0       ?_Xlen@?$vector@U?$pair@KK@std@@V?$allocator@U?$pair@KK@std@@@2@@std@@IBEXXZ 0041f1f0 f i Lib_Network:s_COdbcGameClub.obj
 0001:0001e1f0       ?_Xlen@?$vector@UGLCLUBBATTLE@@V?$allocator@UGLCLUBBATTLE@@@std@@@std@@IBEXXZ 0041f1f0 f i Lib_Network:s_COdbcGameClub.obj
 0001:0001e1f0       ?_Xlen@?$vector@UGLCLUBMEMBER@@V?$allocator@UGLCLUBMEMBER@@@std@@@std@@IBEXXZ 0041f1f0 f i Lib_Network:s_COdbcGameClub.obj
 0001:0001e1f0       ?_Xlen@?$vector@UGLCLUBINFO@@V?$allocator@UGLCLUBINFO@@@std@@@std@@IBEXXZ 0041f1f0 f i Lib_Network:s_COdbcGameClub.obj
 0001:0001e1f0       ?_Xlen@?$vector@UGLGUID_DB@@V?$allocator@UGLGUID_DB@@@std@@@std@@IBEXXZ 0041f1f0 f i Lib_Network:s_COdbcGameClub.obj
 0001:0001e270       ??$fill@PAUGLCLUBMEMBER@@U1@@std@@YAXPAUGLCLUBMEMBER@@0ABU1@@Z 0041f270 f i Lib_Network:s_COdbcGameClub.obj
 0001:0001e2a0       ??$fill@PAUGLCLUBINFO@@U1@@std@@YAXPAUGLCLUBINFO@@0ABU1@@Z 0041f2a0 f i Lib_Network:s_COdbcGameClub.obj
 0001:0001e2d0       ??$fill@PAUGLGUID_DB@@U1@@std@@YAXPAUGLGUID_DB@@0ABU1@@Z 0041f2d0 f i Lib_Network:s_COdbcGameClub.obj
 0001:0001e310       ??$fill@PAU?$pair@KK@std@@U12@@std@@YAXPAU?$pair@KK@0@0ABU10@@Z 0041f310 f i Lib_Network:s_COdbcGameClub.obj
 0001:0001e340       ??$fill@PAUGLCLUBBATTLE@@U1@@std@@YAXPAUGLCLUBBATTLE@@0ABU1@@Z 0041f340 f i Lib_Network:s_COdbcGameClub.obj
 0001:0001e370       ??$_Copy_backward_opt@PAUGLCLUBMEMBER@@PAU1@@std@@YAPAUGLCLUBMEMBER@@PAU1@00U_Nonscalar_ptr_iterator_tag@0@@Z 0041f370 f i Lib_Network:s_COdbcGameClub.obj
 0001:0001e3b0       ??$_Copy_backward_opt@PAUGLCLUBINFO@@PAU1@@std@@YAPAUGLCLUBINFO@@PAU1@00U_Nonscalar_ptr_iterator_tag@0@@Z 0041f3b0 f i Lib_Network:s_COdbcGameClub.obj
 0001:0001e3f0       ??$_Copy_backward_opt@PAUGLGUID_DB@@PAU1@@std@@YAPAUGLGUID_DB@@PAU1@00U_Nonscalar_ptr_iterator_tag@0@@Z 0041f3f0 f i Lib_Network:s_COdbcGameClub.obj
 0001:0001e430       ??$_Copy_backward_opt@PAUGLCLUBBATTLE@@PAU1@@std@@YAPAUGLCLUBBATTLE@@PAU1@00U_Nonscalar_ptr_iterator_tag@0@@Z 0041f430 f i Lib_Network:s_COdbcGameClub.obj
 0001:0001e470       ??$copy_backward@PAU?$pair@KK@std@@PAU12@@std@@YAPAU?$pair@KK@0@PAU10@00@Z 0041f470 f i Lib_Network:s_COdbcGameClub.obj
 0001:0001e4a0       ??$_Uninit_copy@PAUGLCLUBINFO@@PAU1@V?$allocator@UGLCLUBINFO@@@std@@@std@@YAPAUGLCLUBINFO@@PAU1@00AAV?$allocator@UGLCLUBINFO@@@0@U_Nonscalar_ptr_iterator_tag@0@@Z 0041f4a0 f i Lib_Network:s_COdbcGameClub.obj
 0001:0001e520       ??$_Uninit_copy@PAUGLGUID_DB@@PAU1@V?$allocator@UGLGUID_DB@@@std@@@std@@YAPAUGLGUID_DB@@PAU1@00AAV?$allocator@UGLGUID_DB@@@0@U_Nonscalar_ptr_iterator_tag@0@@Z 0041f520 f i Lib_Network:s_COdbcGameClub.obj
 0001:0001e560       ??$_Uninit_copy@PAU?$pair@KK@std@@PAU12@V?$allocator@U?$pair@KK@std@@@2@@std@@YAPAU?$pair@KK@0@PAU10@00AAV?$allocator@U?$pair@KK@std@@@0@U_Nonscalar_ptr_iterator_tag@0@@Z 0041f560 f i Lib_Network:s_COdbcGameClub.obj
 0001:0001e590       ??$_Uninit_copy@PAUGLCLUBBATTLE@@PAU1@V?$allocator@UGLCLUBBATTLE@@@std@@@std@@YAPAUGLCLUBBATTLE@@PAU1@00AAV?$allocator@UGLCLUBBATTLE@@@0@U_Nonscalar_ptr_iterator_tag@0@@Z 0041f590 f i Lib_Network:s_COdbcGameClub.obj
 0001:0001e610       ??$_Uninit_fill_n@PAUGLCLUBINFO@@IU1@V?$allocator@UGLCLUBINFO@@@std@@@std@@YAXPAUGLCLUBINFO@@IABU1@AAV?$allocator@UGLCLUBINFO@@@0@U_Nonscalar_ptr_iterator_tag@0@@Z 0041f610 f i Lib_Network:s_COdbcGameClub.obj
 0001:0001e690       ??$_Uninit_fill_n@PAUGLGUID_DB@@IU1@V?$allocator@UGLGUID_DB@@@std@@@std@@YAXPAUGLGUID_DB@@IABU1@AAV?$allocator@UGLGUID_DB@@@0@U_Nonscalar_ptr_iterator_tag@0@@Z 0041f690 f i Lib_Network:s_COdbcGameClub.obj
 0001:0001e6d0       ??$_Uninit_fill_n@PAU?$pair@KK@std@@IU12@V?$allocator@U?$pair@KK@std@@@2@@std@@YAXPAU?$pair@KK@0@IABU10@AAV?$allocator@U?$pair@KK@std@@@0@U_Nonscalar_ptr_iterator_tag@0@@Z 0041f6d0 f i Lib_Network:s_COdbcGameClub.obj
 0001:0001e700       ??$_Uninit_fill_n@PAUGLCLUBBATTLE@@IU1@V?$allocator@UGLCLUBBATTLE@@@std@@@std@@YAXPAUGLCLUBBATTLE@@IABU1@AAV?$allocator@UGLCLUBBATTLE@@@0@U_Nonscalar_ptr_iterator_tag@0@@Z 0041f700 f i Lib_Network:s_COdbcGameClub.obj
 0001:0001e770       ??$_Uninit_copy@PAUGLCLUBMEMBER@@PAU1@V?$allocator@UGLCLUBMEMBER@@@std@@@std@@YAPAUGLCLUBMEMBER@@PAU1@00AAV?$allocator@UGLCLUBMEMBER@@@0@U_Nonscalar_ptr_iterator_tag@0@@Z 0041f770 f i Lib_Network:s_COdbcGameClub.obj
 0001:0001e7f0       ??$_Uninit_fill_n@PAUGLCLUBMEMBER@@IU1@V?$allocator@UGLCLUBMEMBER@@@std@@@std@@YAXPAUGLCLUBMEMBER@@IABU1@AAV?$allocator@UGLCLUBMEMBER@@@0@U_Nonscalar_ptr_iterator_tag@0@@Z 0041f7f0 f i Lib_Network:s_COdbcGameClub.obj
 0001:0001e870       ?_Ufill@?$vector@UGLCLUBINFO@@V?$allocator@UGLCLUBINFO@@@std@@@std@@IAEPAUGLCLUBINFO@@PAU3@IABU3@@Z 0041f870 f i Lib_Network:s_COdbcGameClub.obj
 0001:0001e8a0       ?_Ufill@?$vector@UGLGUID_DB@@V?$allocator@UGLGUID_DB@@@std@@@std@@IAEPAUGLGUID_DB@@PAU3@IABU3@@Z 0041f8a0 f i Lib_Network:s_COdbcGameClub.obj
 0001:0001e8d0       ?_Ufill@?$vector@U?$pair@KK@std@@V?$allocator@U?$pair@KK@std@@@2@@std@@IAEPAU?$pair@KK@2@PAU32@IABU32@@Z 0041f8d0 f i Lib_Network:s_COdbcGameClub.obj
 0001:0001e900       ?_Ufill@?$vector@UGLCLUBBATTLE@@V?$allocator@UGLCLUBBATTLE@@@std@@@std@@IAEPAUGLCLUBBATTLE@@PAU3@IABU3@@Z 0041f900 f i Lib_Network:s_COdbcGameClub.obj
 0001:0001e930       ?_Insert_n@?$vector@U?$pair@KK@std@@V?$allocator@U?$pair@KK@std@@@2@@std@@IAEXViterator@12@IABU?$pair@KK@2@@Z 0041f930 f i Lib_Network:s_COdbcGameClub.obj
 0001:0001eb80       ?ReadClubMarkImage@COdbcManager@@UAEHKAAVCByteStream@@@Z 0041fb80 f   Lib_Network:s_COdbcGameClub.obj
 0001:0001ee20       ?ReadClubStorage@COdbcManager@@UAEHKAAVCByteStream@@@Z 0041fe20 f   Lib_Network:s_COdbcGameClub.obj
 0001:0001f100       ?_Ufill@?$vector@UGLCLUBMEMBER@@V?$allocator@UGLCLUBMEMBER@@@std@@@std@@IAEPAUGLCLUBMEMBER@@PAU3@IABU3@@Z 00420100 f i Lib_Network:s_COdbcGameClub.obj
 0001:0001f130       ?_Insert_n@?$vector@UGLCLUBMEMBER@@V?$allocator@UGLCLUBMEMBER@@@std@@@std@@IAEXViterator@12@IABUGLCLUBMEMBER@@@Z 00420130 f i Lib_Network:s_COdbcGameClub.obj
 0001:0001f3f0       ?_Insert_n@?$vector@UGLCLUBINFO@@V?$allocator@UGLCLUBINFO@@@std@@@std@@IAEXViterator@12@IABUGLCLUBINFO@@@Z 004203f0 f i Lib_Network:s_COdbcGameClub.obj
 0001:0001f6d0       ?_Insert_n@?$vector@UGLGUID_DB@@V?$allocator@UGLGUID_DB@@@std@@@std@@IAEXViterator@12@IABUGLGUID_DB@@@Z 004206d0 f i Lib_Network:s_COdbcGameClub.obj
 0001:0001f990       ?_Insert_n@?$vector@UGLCLUBBATTLE@@V?$allocator@UGLCLUBBATTLE@@@std@@@std@@IAEXViterator@12@IABUGLCLUBBATTLE@@@Z 00420990 f i Lib_Network:s_COdbcGameClub.obj
 0001:0001fc50       ?insert@?$vector@UGLCLUBMEMBER@@V?$allocator@UGLCLUBMEMBER@@@std@@@std@@QAE?AViterator@12@V312@ABUGLCLUBMEMBER@@@Z 00420c50 f i Lib_Network:s_COdbcGameClub.obj
 0001:0001fcc0       ?insert@?$vector@UGLCLUBINFO@@V?$allocator@UGLCLUBINFO@@@std@@@std@@QAE?AViterator@12@V312@ABUGLCLUBINFO@@@Z 00420cc0 f i Lib_Network:s_COdbcGameClub.obj
 0001:0001fd30       ?insert@?$vector@UGLGUID_DB@@V?$allocator@UGLGUID_DB@@@std@@@std@@QAE?AViterator@12@V312@ABUGLGUID_DB@@@Z 00420d30 f i Lib_Network:s_COdbcGameClub.obj
 0001:0001fda0       ?insert@?$vector@UGLCLUBBATTLE@@V?$allocator@UGLCLUBBATTLE@@@std@@@std@@QAE?AViterator@12@V312@ABUGLCLUBBATTLE@@@Z 00420da0 f i Lib_Network:s_COdbcGameClub.obj
 0001:0001fe10       ?GetClubAlliance@COdbcManager@@UAEHAAV?$vector@U?$pair@KK@std@@V?$allocator@U?$pair@KK@std@@@2@@std@@@Z 00420e10 f   Lib_Network:s_COdbcGameClub.obj
 0001:00020100       ?push_back@?$vector@UGLCLUBMEMBER@@V?$allocator@UGLCLUBMEMBER@@@std@@@std@@QAEXABUGLCLUBMEMBER@@@Z 00421100 f i Lib_Network:s_COdbcGameClub.obj
 0001:00020190       ?push_back@?$vector@UGLCLUBINFO@@V?$allocator@UGLCLUBINFO@@@std@@@std@@QAEXABUGLCLUBINFO@@@Z 00421190 f i Lib_Network:s_COdbcGameClub.obj
 0001:00020220       ?push_back@?$vector@UGLGUID_DB@@V?$allocator@UGLGUID_DB@@@std@@@std@@QAEXABUGLGUID_DB@@@Z 00421220 f i Lib_Network:s_COdbcGameClub.obj
 0001:000202a0       ?push_back@?$vector@UGLCLUBBATTLE@@V?$allocator@UGLCLUBBATTLE@@@std@@@std@@QAEXABUGLCLUBBATTLE@@@Z 004212a0 f i Lib_Network:s_COdbcGameClub.obj
 0001:00020330       ?GetClubMember@COdbcManager@@UAEHKAAV?$vector@UGLCLUBMEMBER@@V?$allocator@UGLCLUBMEMBER@@@std@@@std@@@Z 00421330 f   Lib_Network:s_COdbcGameClub.obj
 0001:00020660       ?GetClubInfo@COdbcManager@@UAEHAAV?$vector@UGLCLUBINFO@@V?$allocator@UGLCLUBINFO@@@std@@@std@@@Z 00421660 f   Lib_Network:s_COdbcGameClub.obj
 0001:000214b0       ?GetClubRegion@COdbcManager@@UAEHAAV?$vector@UGLGUID_DB@@V?$allocator@UGLGUID_DB@@@std@@@std@@@Z 004224b0 f   Lib_Network:s_COdbcGameClub.obj
 0001:00021730       ?GetClubBattleInfo@COdbcManager@@UAEHKAAV?$vector@UGLCLUBBATTLE@@V?$allocator@UGLCLUBBATTLE@@@std@@@std@@@Z 00422730 f   Lib_Network:s_COdbcGameClub.obj
 0001:00021bc0       ?CreateNewCharacter@COdbcManager@@UAEHPAUSCHARDATA2@@@Z 00422bc0 f   Lib_Network:s_COdbcGameChaCreate.obj
 0001:000223d0       ??1ITEMSHOP@@QAE@XZ        004233d0 f i Lib_Network:s_COdbcShop.obj
 0001:000223e0       ??1SSTRING@NS_UITEXTUTIL@@QAE@XZ 004233e0 f i Lib_Engine:UITextUtil.obj
 0001:000223e0       ??1SHOPPURCHASE@@QAE@XZ    004233e0 f i Lib_Network:s_COdbcShop.obj
 0001:000223f0       ?SetItemShop@COdbcManager@@UAEHV?$CStringT@DV?$StrTraitMFC_DLL@DV?$ChTraitsCRT@D@ATL@@@@@ATL@@K@Z 004233f0 f   Lib_Network:s_COdbcShop.obj
 0001:00022490       ?SetPurchaseItem@COdbcManager@@UAEHV?$CStringT@DV?$StrTraitMFC_DLL@DV?$ChTraitsCRT@D@ATL@@@@@ATL@@H@Z 00423490 f   Lib_Network:s_COdbcShop.obj
 0001:00022530       ?_Xlen@?$vector@UITEMSHOP@@V?$allocator@UITEMSHOP@@@std@@@std@@IBEXXZ 00423530 f i Lib_Network:s_COdbcShop.obj
 0001:00022530       ?_Xlen@?$vector@USHOPPURCHASE@@V?$allocator@USHOPPURCHASE@@@std@@@std@@IBEXXZ 00423530 f i Lib_Network:s_COdbcShop.obj
 0001:000225b0       ??$fill@PAUSHOPPURCHASE@@U1@@std@@YAXPAUSHOPPURCHASE@@0ABU1@@Z 004235b0 f i Lib_Network:s_COdbcShop.obj
 0001:000225f0       ??$fill@PAUITEMSHOP@@U1@@std@@YAXPAUITEMSHOP@@0ABU1@@Z 004235f0 f i Lib_Network:s_COdbcShop.obj
 0001:00022650       ??$_Copy_backward_opt@PAUSHOPPURCHASE@@PAU1@@std@@YAPAUSHOPPURCHASE@@PAU1@00U_Nonscalar_ptr_iterator_tag@0@@Z 00423650 f i Lib_Network:s_COdbcShop.obj
 0001:000226a0       ??$_Copy_backward_opt@PAUITEMSHOP@@PAU1@@std@@YAPAUITEMSHOP@@PAU1@00U_Nonscalar_ptr_iterator_tag@0@@Z 004236a0 f i Lib_Network:s_COdbcShop.obj
 0001:00022700       ??$_Construct@UITEMSHOP@@U1@@std@@YAXPAUITEMSHOP@@ABU1@@Z 00423700 f i Lib_Network:s_COdbcShop.obj
 0001:00022770       ??$_Uninit_copy@PAUSHOPPURCHASE@@PAU1@V?$allocator@USHOPPURCHASE@@@std@@@std@@YAPAUSHOPPURCHASE@@PAU1@00AAV?$allocator@USHOPPURCHASE@@@0@U_Nonscalar_ptr_iterator_tag@0@@Z 00423770 f i Lib_Network:s_COdbcShop.obj
 0001:00022810       ??$_Uninit_copy@PAUITEMSHOP@@PAU1@V?$allocator@UITEMSHOP@@@std@@@std@@YAPAUITEMSHOP@@PAU1@00AAV?$allocator@UITEMSHOP@@@0@U_Nonscalar_ptr_iterator_tag@0@@Z 00423810 f i Lib_Network:s_COdbcShop.obj
 0001:000228a0       ??$_Uninit_fill_n@PAUSHOPPURCHASE@@IU1@V?$allocator@USHOPPURCHASE@@@std@@@std@@YAXPAUSHOPPURCHASE@@IABU1@AAV?$allocator@USHOPPURCHASE@@@0@U_Nonscalar_ptr_iterator_tag@0@@Z 004238a0 f i Lib_Network:s_COdbcShop.obj
 0001:00022940       ??$_Uninit_fill_n@PAUITEMSHOP@@IU1@V?$allocator@UITEMSHOP@@@std@@@std@@YAXPAUITEMSHOP@@IABU1@AAV?$allocator@UITEMSHOP@@@0@U_Nonscalar_ptr_iterator_tag@0@@Z 00423940 f i Lib_Network:s_COdbcShop.obj
 0001:000229c0       ?_Ufill@?$vector@USHOPPURCHASE@@V?$allocator@USHOPPURCHASE@@@std@@@std@@IAEPAUSHOPPURCHASE@@PAU3@IABU3@@Z 004239c0 f i Lib_Network:s_COdbcShop.obj
 0001:000229f0       ?_Ufill@?$vector@UITEMSHOP@@V?$allocator@UITEMSHOP@@@std@@@std@@IAEPAUITEMSHOP@@PAU3@IABU3@@Z 004239f0 f i Lib_Network:s_COdbcShop.obj
 0001:00022a20       ?_Destroy@?$vector@USHOPPURCHASE@@V?$allocator@USHOPPURCHASE@@@std@@@std@@IAEXPAUSHOPPURCHASE@@0@Z 00423a20 f i Lib_Network:s_COdbcShop.obj
 0001:00022a50       ?_Destroy@?$vector@UITEMSHOP@@V?$allocator@UITEMSHOP@@@std@@@std@@IAEXPAUITEMSHOP@@0@Z 00423a50 f i Lib_Network:s_COdbcShop.obj
 0001:00022a80       ?_Insert_n@?$vector@USHOPPURCHASE@@V?$allocator@USHOPPURCHASE@@@std@@@std@@IAEXViterator@12@IABUSHOPPURCHASE@@@Z 00423a80 f i Lib_Network:s_COdbcShop.obj
 0001:00022d10       ?_Insert_n@?$vector@UITEMSHOP@@V?$allocator@UITEMSHOP@@@std@@@std@@IAEXViterator@12@IABUITEMSHOP@@@Z 00423d10 f i Lib_Network:s_COdbcShop.obj
 0001:00022fd0       ?GetPurchaseItem@COdbcManager@@UAEHV?$CStringT@DV?$StrTraitMFC_DLL@DV?$ChTraitsCRT@D@ATL@@@@@ATL@@AAV?$vector@USHOPPURCHASE@@V?$allocator@USHOPPURCHASE@@@std@@@std@@@Z 00423fd0 f   Lib_Network:s_COdbcShop.obj
 0001:00023300       ?GetItemShop@COdbcManager@@UAEHAAV?$vector@UITEMSHOP@@V?$allocator@UITEMSHOP@@@std@@@std@@@Z 00424300 f   Lib_Network:s_COdbcShop.obj
 0001:000236d0       ?LogItemExchange@COdbcManager@@UAEHABUSLOGITEMEXCHANGE@@@Z 004246d0 f   Lib_Network:s_COdbcLogItem.obj
 0001:00023790       ?LogMoneyExchange@COdbcManager@@UAEHABUSLOGMONEYEXCHANGE@@@Z 00424790 f   Lib_Network:s_COdbcLogItem.obj
 0001:00023830       ?LogItemConversion@COdbcManager@@UAEHABUSLOGITEMCONVERSION@@@Z 00424830 f   Lib_Network:s_COdbcLogItem.obj
 0001:000238f0       ?_Xlen@?$vector@UVIEWLOGITEMEXCHANGEMAX@@V?$allocator@UVIEWLOGITEMEXCHANGEMAX@@@std@@@std@@IBEXXZ 004248f0 f i Lib_Network:s_COdbcLogItem.obj
 0001:00023970       ??$_Uninit_copy@PAUUSER_ATTEND_INFO@@PAU1@V?$allocator@UUSER_ATTEND_INFO@@@std@@@std@@YAPAUUSER_ATTEND_INFO@@PAU1@00AAV?$allocator@UUSER_ATTEND_INFO@@@0@U_Nonscalar_ptr_iterator_tag@0@@Z 00424970 f i Lib_Network:s_COdbcLogEvent.obj
 0001:00023970       ??$_Uninit_copy@PAUVIEWLOGITEMEXCHANGEMAX@@PAU1@V?$allocator@UVIEWLOGITEMEXCHANGEMAX@@@std@@@std@@YAPAUVIEWLOGITEMEXCHANGEMAX@@PAU1@00AAV?$allocator@UVIEWLOGITEMEXCHANGEMAX@@@0@U_Nonscalar_ptr_iterator_tag@0@@Z 00424970 f i Lib_Network:s_COdbcLogItem.obj
 0001:000239b0       ?_Insert_n@?$vector@UVIEWLOGITEMEXCHANGEMAX@@V?$allocator@UVIEWLOGITEMEXCHANGEMAX@@@std@@@std@@IAEXViterator@12@IABUVIEWLOGITEMEXCHANGEMAX@@@Z 004249b0 f i Lib_Network:s_COdbcLogItem.obj
 0001:00023c20       ?GetItemMaxNum@COdbcManager@@UAE_JHHHAAV?$vector@UVIEWLOGITEMEXCHANGEMAX@@V?$allocator@UVIEWLOGITEMEXCHANGEMAX@@@std@@@std@@@Z 00424c20 f   Lib_Network:s_COdbcLogItem.obj
 0001:00023f40       ?DelChaFriend@COdbcManager@@UAEHHH@Z 00424f40 f   Lib_Network:s_COdbcGameFriend.obj
 0001:00023fa0       ?AddChaFriend@COdbcManager@@UAEHHH@Z 00424fa0 f   Lib_Network:s_COdbcGameFriend.obj
 0001:00024000       ?SetChaFriend@COdbcManager@@UAEHHHH@Z 00425000 f   Lib_Network:s_COdbcGameFriend.obj
 0001:00024060       ?GetHandle@COdbcEnv@@QAEPAXXZ 00425060 f   Lib_Network:s_COdbcEnv.obj
 0001:00024070       ?CreateHandle@COdbcEnv@@QAEHXZ 00425070 f   Lib_Network:s_COdbcEnv.obj
 0001:00024140       ?GetInstance@COdbcEnv@@SAPAV1@XZ 00425140 f   Lib_Network:s_COdbcEnv.obj
 0001:000241b0       ?ReleaseInstance@COdbcEnv@@SAXXZ 004251b0 f   Lib_Network:s_COdbcEnv.obj
 0001:000241f0       ?Reset@CNetUser@@QAEXXZ    004251f0 f   Lib_Network:s_CNetUser.obj
 0001:00024460       ?addRcvMsg@CNetUser@@QAEHPAXK@Z 00425460 f   Lib_Network:s_CNetUser.obj
 0001:00024520       ?CheckGarbageMsg@CNetUser@@QAEXPAX@Z 00425520 f   Lib_Network:s_CNetUser.obj
 0001:00024710       ?GetSOCKET@CNetUser@@QAEIXZ 00425710 f   Lib_Network:s_CNetUser.obj
 0001:00024720       ?GetIP@CNetUser@@QAEPADXZ  00425720 f   Lib_Network:s_CNetUser.obj
 0001:00024730       ?GetPort@CNetUser@@QAEGXZ  00425730 f   Lib_Network:s_CNetUser.obj
 0001:00024740       ?SetNetMode@CNetUser@@QAEXH@Z 00425740 f   Lib_Network:s_CNetUser.obj
 0001:00024750       ?GetSlotType@CNetUser@@QAEKXZ 00425750 f   Lib_Network:s_CNetUser.obj
 0001:00024760       ??0CNetUser@@QAE@XZ        00425760 f   Lib_Network:s_CNetUser.obj
 0001:00024870       ??1CNetUser@@UAE@XZ        00425870 f   Lib_Network:s_CNetUser.obj
 0001:00024930       ?SetAcceptedClient@CNetUser@@QAEHI@Z 00425930 f   Lib_Network:s_CNetUser.obj
 0001:00024a40       ?CloseClient@CNetUser@@QAEHXZ 00425a40 f   Lib_Network:s_CNetUser.obj
 0001:00024b70       ?getRcvMsg@CNetUser@@QAEPAX_N@Z 00425b70 f   Lib_Network:s_CNetUser.obj
 0001:00024cf0       ?SendSession@CAgentServer@@QAEHPAX@Z 00425cf0 f   Lib_Network:s_CAgentServerSession.obj
 0001:00024d10       ?SendSession@CFieldServer@@QAEHPAX@Z 00425d10 f   Lib_Network:s_CFieldServerSession.obj
 0001:00024d50       ?SendSession@CLoginServer@@QAEHPAX@Z 00425d50 f   Lib_Network:s_CLoginServerSession.obj
 0001:00024d70       ?IPFilterCleanIP@CAgentServer@@QAEXV?$basic_string@DU?$char_traits@D@std@@V?$allocator@D@2@@std@@@Z 00425d70 f   Lib_Network:s_CAgentServer.obj
 0001:00024ee0       ?IPFilterCleanIP@CFieldServer@@QAEXV?$basic_string@DU?$char_traits@D@std@@V?$allocator@D@2@@std@@@Z 00425ee0 f   Lib_Network:s_CFieldServer.obj
 0001:00025060       ?CloseClient@CLoginServer@@QAEXK@Z 00426060 f   Lib_Network:s_CLoginServer.obj
 0001:000250f0       ?IPFilterCleanIP@CLoginServer@@QAEXV?$basic_string@DU?$char_traits@D@std@@V?$allocator@D@2@@std@@@Z 004260f0 f   Lib_Network:s_CLoginServer.obj
 0001:00025250       ??HATL@@YA?AV?$CStringT@DV?$StrTraitMFC_DLL@DV?$ChTraitsCRT@D@ATL@@@@@0@ABV10@PBD@Z 00426250 f i Lib_Network:s_CCsvFile.obj
 0001:000252f0       ??1TiXmlDocument@@UAE@XZ   004262f0 f i Lib_Network:s_CWhiteRockXML.obj
 0001:00025360       ??_ETiXmlDocument@@UAEPAXI@Z 00426360 f i Lib_Network:s_CWhiteRockXML.obj
 0001:00025360       ??_GTiXmlDocument@@UAEPAXI@Z 00426360 f i Lib_Network:s_CWhiteRockXML.obj
 0001:00025380       ??0CWhiteRockXml@@QAE@XZ   00426380 f   Lib_Network:s_CWhiteRockXML.obj
 0001:00025390       ??1CWhiteRockXml@@QAE@XZ   00426390 f   Lib_Network:s_CWhiteRockXML.obj
 0001:000253e0       ??0CHttpPatch@@QAE@XZ      004263e0 f   Lib_Network:s_CHttpPatch.obj
 0001:00025430       ??1CHttpPatch@@QAE@XZ      00426430 f   Lib_Network:s_CHttpPatch.obj
 0001:00025450       ??0CSendMsgBuffer@@QAE@XZ  00426450 f   Lib_Network:SendMsgBuffer.obj
 0001:00025490       ??1CSendMsgBuffer@@QAE@XZ  00426490 f   Lib_Network:SendMsgBuffer.obj
 0001:000254d0       ??0CRcvMsgBuffer@@QAE@XZ   004264d0 f   Lib_Network:RcvMsgBuffer.obj
 0001:00025520       ??1CRcvMsgBuffer@@QAE@XZ   00426520 f   Lib_Network:RcvMsgBuffer.obj
 0001:00025580       ?addRcvMsg@CRcvMsgBuffer@@QAEHPAXH@Z 00426580 f   Lib_Network:RcvMsgBuffer.obj
 0001:000255e0       ?SetGarbageNum@CRcvMsgBuffer@@IAEHXZ 004265e0 f   Lib_Network:RcvMsgBuffer.obj
 0001:000256d0       ?getOneMsg@CRcvMsgBuffer@@IAEPAX_N@Z 004266d0 f   Lib_Network:RcvMsgBuffer.obj
 0001:000257e0       ?getRcvSize@CRcvMsgBuffer@@QAEHXZ 004267e0 f   Lib_Network:RcvMsgBuffer.obj
 0001:000257f0       ?reset@CRcvMsgBuffer@@QAEXXZ 004267f0 f   Lib_Network:RcvMsgBuffer.obj
 0001:00025830       ?getMsg@CRcvMsgBuffer@@QAEPAX_N@Z 00426830 f   Lib_Network:RcvMsgBuffer.obj
 0001:00025980       ?IsOnline@CClientAgent@@QAE_NK@Z 00426980 f   Lib_Network:s_CClientAgent.obj
 0001:000259c0       ?GetClientIP@CClientAgent@@QAEPADK@Z 004269c0 f   Lib_Network:s_CClientAgent.obj
 0001:00025a00       ?_Inc@const_iterator@?$_Tree@V?$_Tmap_traits@KUITEM_COOLTIME@@U?$less@K@std@@V?$allocator@U?$pair@$$CBKUITEM_COOLTIME@@@std@@@3@$0A@@std@@@std@@QAEXXZ 00426a00 f i Lib_Network:s_CFieldServerMsg.obj
 0001:00025a00       ?_Inc@const_iterator@?$_Tree@V?$_Tmap_traits@USWavFileKey@@PAUSWavFileData@@U?$less@USWavFileKey@@@std@@V?$allocator@U?$pair@$$CBUSWavFileKey@@PAUSWavFileData@@@std@@@4@$0A@@std@@@std@@QAEXXZ 00426a00 f i Lib_Engine:DxSoundMan.obj
 0001:00025a00       ?_Inc@const_iterator@?$_Tree@V?$_Tmap_traits@V?$basic_string@DU?$char_traits@D@std@@V?$allocator@D@2@@std@@Uunz_file_pos_s@@U?$less@V?$basic_string@DU?$char_traits@D@std@@V?$allocator@D@2@@std@@@2@V?$allocator@U?$pair@$$CBV?$basic_string@DU?$char_traits@D@std@@V?$allocator@D@2@@std@@Uunz_file_pos_s@@@std@@@2@$0A@@std@@@std@@QAEXXZ 00426a00 f i Lib_Engine:Unzipper.obj
 0001:00025a60       ??1_com_error@@UAE@XZ      00426a60 f i Lib_Network:DaumGameCrypt.obj
 0001:00025a90       ??_G_com_error@@UAEPAXI@Z  00426a90 f i Lib_Network:DaumGameCrypt.obj
 0001:00025a90       ??_E_com_error@@UAEPAXI@Z  00426a90 f i Lib_Network:DaumGameCrypt.obj
 0001:00025ad0       ?timestamp_correction@_HLIB@@YAHAAUtagTIMESTAMP_STRUCT@@@Z 00426ad0 f   Lib_Helper:HLibTimeFunctions.obj
 0001:00025bb0       ?CharClassToIndex@@YA?AW4EMCHARINDEX@@W4EMCHARCLASS@@@Z 00426bb0 f   Lib_Client:GLCharDefine.obj
 0001:00025d10       ?SETSTORAGE_BYBUF@SCHARDATA2@@QAEHAAVCByteStream@@@Z 00426d10 f   Lib_Client:GLCharData.obj
 0001:00025da0       ?GETEXPSKILLS_BYBUF@SCHARDATA2@@QBEHAAVCByteStream@@@Z 00426da0 f   Lib_Client:GLCharData.obj
 0001:00025e30       ?GETPUTONITEMS_BYBUF@SCHARDATA2@@QBEHAAVCByteStream@@@Z 00426e30 f   Lib_Client:GLCharData.obj
 0001:00025eb0       ?GETSKILL_QUICKSLOT@SCHARDATA2@@QBEHAAVCByteStream@@@Z 00426eb0 f   Lib_Client:GLCharData.obj
 0001:00025f40       ?GETACTION_QUICKSLOT@SCHARDATA2@@QBEHAAVCByteStream@@@Z 00426f40 f   Lib_Client:GLCharData.obj
 0001:00025fb0       ?GETINVENTORYE_BYBUF@SCHARDATA2@@QBEHAAVCByteStream@@@Z 00426fb0 f   Lib_Client:GLCharData.obj
 0001:00026000       ?GETSTORAGE_BYBUF@SCHARDATA2@@QBEHAAVCByteStream@@@Z 00427000 f   Lib_Client:GLCharData.obj
 0001:00026070       ?GETITEMCOOLTIME_BYBUF@SCHARDATA2@@QBEHAAVCByteStream@@@Z 00427070 f   Lib_Client:GLCharData.obj
 0001:00026170       ?GETQUESTPLAY@SCHARDATA2@@QBEHAAVCByteStream@@@Z 00427170 f   Lib_Client:GLCharData.obj
 0001:000261c0       ?GETITEMFOOD_BYBUF@SCHARDATA2@@QBEHAAVCByteStream@@@Z 004271c0 f   Lib_Client:GLCharData.obj
 0001:00026250       ??9GLPADATA@@QBEHABU0@@Z   00427250 f i Lib_Client:GLItem.obj
 0001:00026280       ??0SITEMCUSTOM@@QAE@XZ     00427280 f   Lib_Client:GLItem.obj
 0001:00026310       ?Assign@SITEMCUSTOM@@QAEXABUSITEMCUSTOM_100@@@Z 00427310 f   Lib_Client:GLItem.obj
 0001:000264b0       ?Assign@SITEMCUSTOM@@QAEXABUSITEMCUSTOM_101@@@Z 004274b0 f   Lib_Client:GLItem.obj
 0001:00026690       ?Assign@SITEMCUSTOM@@QAEXABUSITEMCUSTOM_102@@@Z 00427690 f   Lib_Client:GLItem.obj
 0001:00026880       ?Assign@SITEMCUSTOM@@QAEXABUSITEMCUSTOM_103@@@Z 00427880 f   Lib_Client:GLItem.obj
 0001:00026a70       ?Assign@SITEMCUSTOM@@QAEXABUSITEMCUSTOM_104@@@Z 00427a70 f   Lib_Client:GLItem.obj
 0001:00026c70       ?Assign@SITEMCUSTOM@@QAEXABUSITEMCUSTOM_105@@@Z 00427c70 f   Lib_Client:GLItem.obj
 0001:00026e90       ?Assign@SITEMCUSTOM@@QAEXABUSITEMCUSTOM_106@@@Z 00427e90 f   Lib_Client:GLItem.obj
 0001:00026f90       ?Assign@SITEMCUSTOM@@QAEXABUSITEMCUSTOM_107@@@Z 00427f90 f   Lib_Client:GLItem.obj
 0001:000270a0       ?Assign@SITEMCUSTOM@@QAEXABUSITEMCUSTOM_108@@@Z 004280a0 f   Lib_Client:GLItem.obj
 0001:00027130       ?Assign@SITEMCUSTOM@@QAEXABUSITEMCUSTOM_109@@@Z 00428130 f   Lib_Client:GLItem.obj
 0001:000271f0       ?Assign@SITEMCUSTOM@@QAEXABUSITEMCUSTOM_110@@@Z 004281f0 f   Lib_Client:GLItem.obj
 0001:000272c0       ?Assign@SITEMCUSTOM@@QAEXABUSITEMCUSTOM_111@@@Z 004282c0 f   Lib_Client:GLItem.obj
 0001:00027390       ?Assign@SITEMCUSTOM@@QAEXABUSITEMCUSTOM_112@@@Z 00428390 f   Lib_Client:GLItem.obj
 0001:00027460       ??0SITEMCUSTOM_104@@QAE@XZ 00428460 f i Lib_Client:GLItem.obj
 0001:00027490       ?SETPUTONITEMS_BYBUF@@YAHPAUSITEMCUSTOM@@AAVCByteStream@@@Z 00428490 f   Lib_Client:GLItem.obj
 0001:00027970       ?SETCOLORS_BYBUF@GLVEHICLE@@QAEHAAVCByteStream@@@Z 00428970 f   Lib_Client:GLVEHICLE.obj
 0001:00027a20       ?GETACTIVITY_BYBUF@SCHARDATA2@@QBEHAAVCByteStream@@@Z 00428a20 f   Lib_Client:GLCharDataActivity.obj
 0001:00027ae0       ??$hash_value@DU?$char_traits@D@std@@V?$allocator@D@2@@stdext@@YAIABV?$basic_string@DU?$char_traits@D@std@@V?$allocator@D@2@@std@@@Z 00428ae0 f i Lib_Client:GLClubMan.obj
 0001:00027b20       ??4GLCLUBMEMBER@@QAEAAU0@ABU0@@Z 00428b20 f   Lib_Client:GLClubMan.obj
 0001:00027ba0       ??4GLCLUBINFO@@QAEAAU0@ABU0@@Z 00428ba0 f   Lib_Client:GLClubMan.obj
 0001:00027d70       ??4GLCLUBBATTLE@@QAEAAU0@ABU0@@Z 00428d70 f   Lib_Client:GLClubMan.obj
 0001:00027e20       ?AddUserJob@GLEmulatorDBMan@@UAEXPAVCDbAction@@@Z 00428e20 f i Lib_Client:GLAgentServer.obj
 0001:00027e20       ?AddLogJob@GLEmulatorDBMan@@UAEXPAVCDbAction@@@Z 00428e20 f i Lib_Client:GLAgentServer.obj
 0001:00027e20       ?AddJob@GLEmulatorDBMan@@UAEXPAVCDbAction@@@Z 00428e20 f i Lib_Client:GLAgentServer.obj
 0001:00027e40       ??0SINVENITEM@@QAE@XZ      00428e40 f i Lib_Client:GLGaeaServerMsg.obj
 0001:00027e80       ??0PETSTYLE@@QAE@XZ        00428e80 f i Lib_Client:GLogicData.obj
 0001:00027ed0       ??1_Node@?$_Tree_nod@V?$_Tmap_traits@USWavFileKey@@PAUSWavFileData@@U?$less@USWavFileKey@@@std@@V?$allocator@U?$pair@$$CBUSWavFileKey@@PAUSWavFileData@@@std@@@4@$0A@@std@@@std@@QAE@XZ 00428ed0 f i Lib_Engine:DxSoundMan.obj
 0001:00027ed0       ??1_Node@?$_Tree_nod@V?$_Tset_traits@V?$basic_string@DU?$char_traits@D@std@@V?$allocator@D@2@@std@@U?$less@V?$basic_string@DU?$char_traits@D@std@@V?$allocator@D@2@@std@@@2@V?$allocator@V?$basic_string@DU?$char_traits@D@std@@V?$allocator@D@2@@std@@@2@$0A@@std@@@std@@QAE@XZ 00428ed0 f i Lib_Network:s_CClientManager.obj
 0001:00027ed0       ??1_Node@?$_Tree_nod@V?$_Tmap_traits@V?$basic_string@DU?$char_traits@D@std@@V?$allocator@D@2@@std@@Uunz_file_pos_s@@U?$less@V?$basic_string@DU?$char_traits@D@std@@V?$allocator@D@2@@std@@@2@V?$allocator@U?$pair@$$CBV?$basic_string@DU?$char_traits@D@std@@V?$allocator@D@2@@std@@Uunz_file_pos_s@@@std@@@2@$0A@@std@@@std@@QAE@XZ 00428ed0 f i Lib_Engine:Unzipper.obj
 0001:00027ed0       ??1_Node@?$_Tree_nod@V?$_Tmap_traits@V?$basic_string@DU?$char_traits@D@std@@V?$allocator@D@2@@std@@PAUSTATICDATA@NSSTATICMESH@@U?$less@V?$basic_string@DU?$char_traits@D@std@@V?$allocator@D@2@@std@@@2@V?$allocator@U?$pair@$$CBV?$basic_string@DU?$char_traits@D@std@@V?$allocator@D@2@@std@@PAUSTATICDATA@NSSTATICMESH@@@std@@@2@$0A@@std@@@std@@QAE@XZ 00428ed0 f i Lib_Engine:DxStaticMesh.obj
 0001:00027ed0       ??1_Node@?$_Tree_nod@V?$_Tmap_traits@V?$basic_string@DU?$char_traits@D@std@@V?$allocator@D@2@@std@@KU?$less@V?$basic_string@DU?$char_traits@D@std@@V?$allocator@D@2@@std@@@2@V?$allocator@U?$pair@$$CBV?$basic_string@DU?$char_traits@D@std@@V?$allocator@D@2@@std@@K@std@@@2@$0A@@std@@@std@@QAE@XZ 00428ed0 f i Lib_Engine:TextureManager.obj
 0001:00027ed0       ??1_Node@?$_Tree_nod@V?$_Tmap_traits@V?$basic_string@DU?$char_traits@D@std@@V?$allocator@D@2@@std@@PAUDxSkinPiece@@U?$less@V?$basic_string@DU?$char_traits@D@std@@V?$allocator@D@2@@std@@@2@V?$allocator@U?$pair@$$CBV?$basic_string@DU?$char_traits@D@std@@V?$allocator@D@2@@std@@PAUDxSkinPiece@@@std@@@2@$0A@@std@@@std@@QAE@XZ 00428ed0 f i Lib_Engine:DxSkinPieceContainer.obj
 0001:00027ed0       ??1_Node@?$_Tree_nod@V?$_Tmap_traits@V?$basic_string@DU?$char_traits@D@std@@V?$allocator@D@2@@std@@PAVTextureContainer@TextureManager@@U?$less@V?$basic_string@DU?$char_traits@D@std@@V?$allocator@D@2@@std@@@2@V?$allocator@U?$pair@$$CBV?$basic_string@DU?$char_traits@D@std@@V?$allocator@D@2@@std@@PAVTextureContainer@TextureManager@@@std@@@2@$0A@@std@@@std@@QAE@XZ 00428ed0 f i Lib_Engine:TextureManager.obj
 0001:00027ed0       ??1_Node@?$_Tree_nod@V?$_Tmap_traits@V?$basic_string@DU?$char_traits@D@std@@V?$allocator@D@2@@std@@PAVDxSimMesh@@U?$less@V?$basic_string@DU?$char_traits@D@std@@V?$allocator@D@2@@std@@@2@V?$allocator@U?$pair@$$CBV?$basic_string@DU?$char_traits@D@std@@V?$allocator@D@2@@std@@PAVDxSimMesh@@@std@@@2@$0A@@std@@@std@@QAE@XZ 00428ed0 f i Lib_Engine:DxSimpleMeshMan.obj
 0001:00027ed0       ??1SPLAYERKILL@@QAE@XZ     00428ed0 f i Lib_Client:GLogicData.obj
 0001:00027ee0       ??1PETSTYLE@@QAE@XZ        00428ee0 f i Lib_Client:GLogicData.obj
 0001:00027f00       ??0SPLAYERKILL@@QAE@ABU0@@Z 00428f00 f i Lib_Client:GLogicData.obj
 0001:00027f90       ??0?$vector@USANIATTACK@@V?$allocator@USANIATTACK@@@std@@@std@@QAE@XZ 00428f90 f i Lib_Client:GLogicData.obj
 0001:00027fa0       ??0GLCONST_CHARCLASS@@QAE@MMMMMMMMUSCHARSTATS@@UFCHARSTATS@@GGGGMMMM@Z 00428fa0 f i Lib_Client:GLogicData.obj
 0001:00028120       ??1GLCONST_CHARCLASS@@QAE@XZ 00429120 f i Lib_Client:GLogicData.obj
 0001:000281c0       ?SET_BYBUFFER@GLQuestPlay@@QBE_NAAVCByteStream@@@Z 004291c0 f   Lib_Client:GLQuestPlay.obj
 0001:00028280       ?Assign@SINVENITEM_SAVE@@QAEXABUSINVENITEM_SAVE_104@@@Z 00429280 f i Lib_Client:GLInventory.obj
 0001:000282b0       ?Assign@SINVENITEM_SAVE@@QAEXABUSINVENITEM_SAVE_105@@@Z 004292b0 f i Lib_Client:GLInventory.obj
 0001:000282e0       ?Assign@SINVENITEM_SAVE@@QAEXABUSINVENITEM_SAVE_106@@@Z 004292e0 f i Lib_Client:GLInventory.obj
 0001:00028310       ?Assign@SINVENITEM_SAVE@@QAEXABUSINVENITEM_SAVE_107@@@Z 00429310 f i Lib_Client:GLInventory.obj
 0001:00028340       ?Assign@SINVENITEM_SAVE@@QAEXABUSINVENITEM_SAVE_108@@@Z 00429340 f i Lib_Client:GLInventory.obj
 0001:00028370       ?Assign@SINVENITEM_SAVE@@QAEXABUSINVENITEM_SAVE_109@@@Z 00429370 f i Lib_Client:GLInventory.obj
 0001:000283a0       ?Assign@SINVENITEM_SAVE@@QAEXABUSINVENITEM_SAVE_110@@@Z 004293a0 f i Lib_Client:GLInventory.obj
 0001:000283d0       ?Assign@SINVENITEM_SAVE@@QAEXABUSINVENITEM_SAVE_111@@@Z 004293d0 f i Lib_Client:GLInventory.obj
 0001:00028400       ?Assign@SINVENITEM_SAVE@@QAEXABUSINVENITEM_SAVE_112@@@Z 00429400 f i Lib_Client:GLInventory.obj
 0001:00028430       ?GetValidCellY@GLInventory@@QBEGXZ 00429430 f   Lib_Client:GLInventory.obj
 0001:00028450       ?IsInsertable@GLInventory@@QAEHGGGG_N@Z 00429450 f   Lib_Client:GLInventory.obj
 0001:00028510       ?SetMark@GLInventory@@IAEXGGGG@Z 00429510 f   Lib_Client:GLInventory.obj
 0001:00028580       ?ReSetMark@GLInventory@@IAEXGGGG@Z 00429580 f   Lib_Client:GLInventory.obj
 0001:000285f0       ?_Dec@const_iterator@?$_Tree@V?$_Tmap_traits@U?$pair@GG@std@@PAUSINVENITEM@@U?$less@U?$pair@GG@std@@@2@V?$allocator@U?$pair@$$CBU?$pair@GG@std@@PAUSINVENITEM@@@std@@@2@$0A@@std@@@std@@QAEXXZ 004295f0 f i Lib_Client:GLInventory.obj
 0001:000285f0       ?_Dec@const_iterator@?$_Tree@V?$_Tmap_traits@HHU?$less@H@std@@V?$allocator@U?$pair@$$CBHH@std@@@2@$0A@@std@@@std@@QAEXXZ 004295f0 f i Lib_Network:s_CClientManager.obj
 0001:00028650       ?GETITEM_BYBUFFER@GLInventory@@QBEHAAVCByteStream@@@Z 00429650 f   Lib_Client:GLInventory.obj
 0001:00028650       ?GETITEM_BYBUFFER_FORSTORAGE@GLInventory@@QBEHAAVCByteStream@@@Z 00429650 f   Lib_Client:GLInventory.obj
 0001:000286b0       ?_Erase@?$_Tree@V?$_Tmap_traits@U?$pair@GG@std@@PAUSINVENITEM@@U?$less@U?$pair@GG@std@@@2@V?$allocator@U?$pair@$$CBU?$pair@GG@std@@PAUSINVENITEM@@@std@@@2@$0A@@std@@@std@@IAEXPAU_Node@?$_Tree_nod@V?$_Tmap_traits@U?$pair@GG@std@@PAUSINVENITEM@@U?$less@U?$pair@GG@std@@@2@V?$allocator@U?$pair@$$CBU?$pair@GG@std@@PAUSINVENITEM@@@std@@@2@$0A@@std@@@2@@Z 004296b0 f i Lib_Client:GLInventory.obj
 0001:000286f0       ?_Insert@?$_Tree@V?$_Tmap_traits@U?$pair@GG@std@@PAUSINVENITEM@@U?$less@U?$pair@GG@std@@@2@V?$allocator@U?$pair@$$CBU?$pair@GG@std@@PAUSINVENITEM@@@std@@@2@$0A@@std@@@std@@IAE?AViterator@12@_NPAU_Node@?$_Tree_nod@V?$_Tmap_traits@U?$pair@GG@std@@PAUSINVENITEM@@U?$less@U?$pair@GG@std@@@2@V?$allocator@U?$pair@$$CBU?$pair@GG@std@@PAUSINVENITEM@@@std@@@2@$0A@@std@@@2@ABU?$pair@$$CBU?$pair@GG@std@@PAUSINVENITEM@@@2@@Z 004296f0 f i Lib_Client:GLInventory.obj
 0001:000288b0       ?DeleteItemAll@GLInventory@@QAEXXZ 004298b0 f   Lib_Client:GLInventory.obj
 0001:00028980       ?insert@?$_Tree@V?$_Tmap_traits@U?$pair@GG@std@@PAUSINVENITEM@@U?$less@U?$pair@GG@std@@@2@V?$allocator@U?$pair@$$CBU?$pair@GG@std@@PAUSINVENITEM@@@std@@@2@$0A@@std@@@std@@QAE?AU?$pair@Viterator@?$_Tree@V?$_Tmap_traits@U?$pair@GG@std@@PAUSINVENITEM@@U?$less@U?$pair@GG@std@@@2@V?$allocator@U?$pair@$$CBU?$pair@GG@std@@PAUSINVENITEM@@@std@@@2@$0A@@std@@@std@@_N@2@ABU?$pair@$$CBU?$pair@GG@std@@PAUSINVENITEM@@@2@@Z 00429980 f i Lib_Client:GLInventory.obj
 0001:00028a50       ?InsertItem@GLInventory@@QAEHABUSITEMCUSTOM@@GG_N@Z 00429a50 f   Lib_Client:GLInventory.obj
 0001:00028b80       ?SETITEM_BYBUFFER@GLInventory@@QAEHAAVCByteStream@@@Z 00429b80 f   Lib_Client:GLInventory.obj
 0001:00029220       ??1SRANDOM_OPT_SET@@QAE@XZ 0042a220 f i Lib_Client:GLItemMan.obj
 0001:00029240       ??1SITEMBASIC@ITEM@@QAE@XZ 0042a240 f i Lib_Client:GLItemMan.obj
 0001:00029330       ?GetItem@GLItemMan@@QAEPAUSITEM@@GG@Z 0042a330 f   Lib_Client:GLItemMan.obj
 0001:00029380       ?DeleteDeviceObjects@GLItemMan@@QAEJXZ 0042a380 f   Lib_Client:GLItemMan.obj
 0001:000294a0       ??1SRANDOM_GEN@@QAE@XZ     0042a4a0 f i Lib_Client:GLItemMan.obj
 0001:00029510       ??1SITEM@@QAE@XZ           0042a510 f i Lib_Client:GLItemMan.obj
 0001:000295b0       ??0SGENITEMS@GLItemMan@@QAE@XZ 0042a5b0 f i Lib_Client:GLItemMan.obj
 0001:000295f0       ??1SGENITEMS@GLItemMan@@QAE@XZ 0042a5f0 f i Lib_Client:GLItemMan.obj
 0001:00029630       ??1CItemNode@@QAE@XZ       0042a630 f i Lib_Client:GLItemMan.obj
 0001:00029640       ??0GLItemMan@@QAE@XZ       0042a640 f   Lib_Client:GLItemMan.obj
 0001:00029840       ?FinalCleanup@GLItemMan@@QAEJXZ 0042a840 f   Lib_Client:GLItemMan.obj
 0001:000299b0       ??1GLItemMan@@QAE@XZ       0042a9b0 f   Lib_Client:GLItemMan.obj
 0001:00029a70       ?GetInstance@GLItemMan@@SAAAV1@XZ 0042aa70 f   Lib_Client:GLItemMan.obj
 0001:00029ad0       ??1?$pair@$$CBV?$basic_string@DU?$char_traits@D@std@@V?$allocator@D@2@@std@@V12@@std@@QAE@XZ 0042aad0 f i Lib_Client:GLStringTable.obj
 0001:00029b20       ?_Max@?$_Tree@V?$_Tmap_traits@V?$basic_string@DU?$char_traits@D@std@@V?$allocator@D@2@@std@@V12@U?$less@V?$basic_string@DU?$char_traits@D@std@@V?$allocator@D@2@@std@@@2@V?$allocator@U?$pair@$$CBV?$basic_string@DU?$char_traits@D@std@@V?$allocator@D@2@@std@@V12@@std@@@2@$0A@@std@@@std@@KAPAU_Node@?$_Tree_nod@V?$_Tmap_traits@V?$basic_string@DU?$char_traits@D@std@@V?$allocator@D@2@@std@@V12@U?$less@V?$basic_string@DU?$char_traits@D@std@@V?$allocator@D@2@@std@@@2@V?$allocator@U?$pair@$$CBV?$basic_string@DU?$char_traits@D@std@@V?$allocator@D@2@@std@@V12@@std@@@2@$0A@@std@@@2@PAU342@@Z 0042ab20 f i Lib_Client:GLStringTable.obj
 0001:00029b40       ?_Min@?$_Tree@V?$_Tmap_traits@V?$basic_string@DU?$char_traits@D@std@@V?$allocator@D@2@@std@@V12@U?$less@V?$basic_string@DU?$char_traits@D@std@@V?$allocator@D@2@@std@@@2@V?$allocator@U?$pair@$$CBV?$basic_string@DU?$char_traits@D@std@@V?$allocator@D@2@@std@@V12@@std@@@2@$0A@@std@@@std@@KAPAU_Node@?$_Tree_nod@V?$_Tmap_traits@V?$basic_string@DU?$char_traits@D@std@@V?$allocator@D@2@@std@@V12@U?$less@V?$basic_string@DU?$char_traits@D@std@@V?$allocator@D@2@@std@@@2@V?$allocator@U?$pair@$$CBV?$basic_string@DU?$char_traits@D@std@@V?$allocator@D@2@@std@@V12@@std@@@2@$0A@@std@@@2@PAU342@@Z 0042ab40 f i Lib_Client:GLStringTable.obj
 0001:00029b60       ??1_Node@?$_Tree_nod@V?$_Tmap_traits@V?$basic_string@DU?$char_traits@D@std@@V?$allocator@D@2@@std@@V12@U?$less@V?$basic_string@DU?$char_traits@D@std@@V?$allocator@D@2@@std@@@2@V?$allocator@U?$pair@$$CBV?$basic_string@DU?$char_traits@D@std@@V?$allocator@D@2@@std@@V12@@std@@@2@$0A@@std@@@std@@QAE@XZ 0042ab60 f i Lib_Client:GLStringTable.obj
 0001:00029b70       ?_Lbound@?$_Tree@V?$_Tmap_traits@V?$basic_string@DU?$char_traits@D@std@@V?$allocator@D@2@@std@@V12@U?$less@V?$basic_string@DU?$char_traits@D@std@@V?$allocator@D@2@@std@@@2@V?$allocator@U?$pair@$$CBV?$basic_string@DU?$char_traits@D@std@@V?$allocator@D@2@@std@@V12@@std@@@2@$0A@@std@@@std@@IBEPAU_Node@?$_Tree_nod@V?$_Tmap_traits@V?$basic_string@DU?$char_traits@D@std@@V?$allocator@D@2@@std@@V12@U?$less@V?$basic_string@DU?$char_traits@D@std@@V?$allocator@D@2@@std@@@2@V?$allocator@U?$pair@$$CBV?$basic_string@DU?$char_traits@D@std@@V?$allocator@D@2@@std@@V12@@std@@@2@$0A@@std@@@2@ABV?$basic_string@DU?$char_traits@D@std@@V?$allocator@D@2@@2@@Z 0042ab70 f i Lib_Client:GLStringTable.obj
 0001:00029bc0       ?_Lrotate@?$_Tree@V?$_Tmap_traits@V?$basic_string@DU?$char_traits@D@std@@V?$allocator@D@2@@std@@V12@U?$less@V?$basic_string@DU?$char_traits@D@std@@V?$allocator@D@2@@std@@@2@V?$allocator@U?$pair@$$CBV?$basic_string@DU?$char_traits@D@std@@V?$allocator@D@2@@std@@V12@@std@@@2@$0A@@std@@@std@@IAEXPAU_Node@?$_Tree_nod@V?$_Tmap_traits@V?$basic_string@DU?$char_traits@D@std@@V?$allocator@D@2@@std@@V12@U?$less@V?$basic_string@DU?$char_traits@D@std@@V?$allocator@D@2@@std@@@2@V?$allocator@U?$pair@$$CBV?$basic_string@DU?$char_traits@D@std@@V?$allocator@D@2@@std@@V12@@std@@@2@$0A@@std@@@2@@Z 0042abc0 f i Lib_Client:GLStringTable.obj
 0001:00029c20       ?_Rrotate@?$_Tree@V?$_Tmap_traits@V?$basic_string@DU?$char_traits@D@std@@V?$allocator@D@2@@std@@V12@U?$less@V?$basic_string@DU?$char_traits@D@std@@V?$allocator@D@2@@std@@@2@V?$allocator@U?$pair@$$CBV?$basic_string@DU?$char_traits@D@std@@V?$allocator@D@2@@std@@V12@@std@@@2@$0A@@std@@@std@@IAEXPAU_Node@?$_Tree_nod@V?$_Tmap_traits@V?$basic_string@DU?$char_traits@D@std@@V?$allocator@D@2@@std@@V12@U?$less@V?$basic_string@DU?$char_traits@D@std@@V?$allocator@D@2@@std@@@2@V?$allocator@U?$pair@$$CBV?$basic_string@DU?$char_traits@D@std@@V?$allocator@D@2@@std@@V12@@std@@@2@$0A@@std@@@2@@Z 0042ac20 f i Lib_Client:GLStringTable.obj
 0001:00029c80       ?_Inc@const_iterator@?$_Tree@V?$_Tmap_traits@V?$basic_string@DU?$char_traits@D@std@@V?$allocator@D@2@@std@@V12@U?$less@V?$basic_string@DU?$char_traits@D@std@@V?$allocator@D@2@@std@@@2@V?$allocator@U?$pair@$$CBV?$basic_string@DU?$char_traits@D@std@@V?$allocator@D@2@@std@@V12@@std@@@2@$0A@@std@@@std@@QAEXXZ 0042ac80 f i Lib_Client:GLStringTable.obj
 0001:00029ce0       ?_Buynode@?$_Tree@V?$_Tmap_traits@V?$basic_string@DU?$char_traits@D@std@@V?$allocator@D@2@@std@@V12@U?$less@V?$basic_string@DU?$char_traits@D@std@@V?$allocator@D@2@@std@@@2@V?$allocator@U?$pair@$$CBV?$basic_string@DU?$char_traits@D@std@@V?$allocator@D@2@@std@@V12@@std@@@2@$0A@@std@@@std@@IAEPAU_Node@?$_Tree_nod@V?$_Tmap_traits@V?$basic_string@DU?$char_traits@D@std@@V?$allocator@D@2@@std@@V12@U?$less@V?$basic_string@DU?$char_traits@D@std@@V?$allocator@D@2@@std@@@2@V?$allocator@U?$pair@$$CBV?$basic_string@DU?$char_traits@D@std@@V?$allocator@D@2@@std@@V12@@std@@@2@$0A@@std@@@2@XZ 0042ace0 f i Lib_Client:GLStringTable.obj
 0001:00029d20       ?find@?$_Tree@V?$_Tmap_traits@V?$basic_string@DU?$char_traits@D@std@@V?$allocator@D@2@@std@@V12@U?$less@V?$basic_string@DU?$char_traits@D@std@@V?$allocator@D@2@@std@@@2@V?$allocator@U?$pair@$$CBV?$basic_string@DU?$char_traits@D@std@@V?$allocator@D@2@@std@@V12@@std@@@2@$0A@@std@@@std@@QAE?AViterator@12@ABV?$basic_string@DU?$char_traits@D@std@@V?$allocator@D@2@@2@@Z 0042ad20 f i Lib_Client:GLStringTable.obj
 0001:00029d80       ?_Erase@?$_Tree@V?$_Tmap_traits@V?$basic_string@DU?$char_traits@D@std@@V?$allocator@D@2@@std@@V12@U?$less@V?$basic_string@DU?$char_traits@D@std@@V?$allocator@D@2@@std@@@2@V?$allocator@U?$pair@$$CBV?$basic_string@DU?$char_traits@D@std@@V?$allocator@D@2@@std@@V12@@std@@@2@$0A@@std@@@std@@IAEXPAU_Node@?$_Tree_nod@V?$_Tmap_traits@V?$basic_string@DU?$char_traits@D@std@@V?$allocator@D@2@@std@@V12@U?$less@V?$basic_string@DU?$char_traits@D@std@@V?$allocator@D@2@@std@@@2@V?$allocator@U?$pair@$$CBV?$basic_string@DU?$char_traits@D@std@@V?$allocator@D@2@@std@@V12@@std@@@2@$0A@@std@@@2@@Z 0042ad80 f i Lib_Client:GLStringTable.obj
 0001:00029dc0       ?erase@?$_Tree@V?$_Tmap_traits@V?$basic_string@DU?$char_traits@D@std@@V?$allocator@D@2@@std@@V12@U?$less@V?$basic_string@DU?$char_traits@D@std@@V?$allocator@D@2@@std@@@2@V?$allocator@U?$pair@$$CBV?$basic_string@DU?$char_traits@D@std@@V?$allocator@D@2@@std@@V12@@std@@@2@$0A@@std@@@std@@QAE?AViterator@12@V312@@Z 0042adc0 f i Lib_Client:GLStringTable.obj
 0001:0002a0c0       ?erase@?$_Tree@V?$_Tmap_traits@V?$basic_string@DU?$char_traits@D@std@@V?$allocator@D@2@@std@@V12@U?$less@V?$basic_string@DU?$char_traits@D@std@@V?$allocator@D@2@@std@@@2@V?$allocator@U?$pair@$$CBV?$basic_string@DU?$char_traits@D@std@@V?$allocator@D@2@@std@@V12@@std@@@2@$0A@@std@@@std@@QAE?AViterator@12@V312@0@Z 0042b0c0 f i Lib_Client:GLStringTable.obj
 0001:0002a180       ?_Xlen@?$vector@USONEMAPWEATHER@@V?$allocator@USONEMAPWEATHER@@@std@@@std@@IBEXXZ 0042b180 f i Lib_Client:GLLandMan.obj
 0001:0002a200       ??1?$vector@PAUHICON__@@V?$allocator@PAUHICON__@@@std@@@std@@QAE@XZ 0042b200 f i Lib_Engine:Cursor.obj
 0001:0002a200       ??1?$vector@USANIATTACK@@V?$allocator@USANIATTACK@@@std@@@std@@QAE@XZ 0042b200 f i Lib_Client:GLogicData.obj
 0001:0002a200       ?_Tidy@?$vector@USONEMAPWEATHER@@V?$allocator@USONEMAPWEATHER@@@std@@@std@@IAEXXZ 0042b200 f i Lib_Client:GLLandMan.obj
 0001:0002a200       ??1?$vector@PAVDxEffChar@@V?$allocator@PAVDxEffChar@@@std@@@std@@QAE@XZ 0042b200 f i Lib_Engine:DxSkinPieceContainer.obj
 0001:0002a200       ??1?$vector@HV?$allocator@H@std@@@std@@QAE@XZ 0042b200 f i Lib_Network:s_CClientManager.obj
 0001:0002a200       ??1?$vector@USRANDOM_DATA@@V?$allocator@USRANDOM_DATA@@@std@@@std@@QAE@XZ 0042b200 f i Lib_Client:GLItemMan.obj
 0001:0002a200       ??1?$vector@USTRACOR@@V?$allocator@USTRACOR@@@std@@@std@@QAE@XZ 0042b200 f i Lib_Engine:DxSkinPieceContainer.obj
 0001:0002a200       ??1?$vector@USNATIVEID@@V?$allocator@USNATIVEID@@@std@@@std@@QAE@XZ 0042b200 f i Lib_Client:GLItemMan.obj
 0001:0002a200       ??1?$vector@PAUAttributeIB@@V?$allocator@PAUAttributeIB@@@std@@@std@@QAE@XZ 0042b200 f i Lib_Engine:NsSMeshSceneGraph.obj
 0001:0002a200       ??1?$vector@PAVDXLIGHT@@V?$allocator@PAVDXLIGHT@@@std@@@std@@QAE@XZ 0042b200 f i Lib_Engine:DxLightMan.obj
 0001:0002a200       ??1?$vector@USONEMAPWEATHER@@V?$allocator@USONEMAPWEATHER@@@std@@@std@@QAE@XZ 0042b200 f i Lib_Client:GLLandMan.obj
 0001:0002a200       ?_Tidy@?$vector@Viterator@?$list@U?$pair@$$CBV?$basic_string@DU?$char_traits@D@std@@V?$allocator@D@2@@std@@PAUSSoundEx@@@std@@V?$allocator@U?$pair@$$CBV?$basic_string@DU?$char_traits@D@std@@V?$allocator@D@2@@std@@PAUSSoundEx@@@std@@@2@@std@@V?$allocator@Viterator@?$list@U?$pair@$$CBV?$basic_string@DU?$char_traits@D@std@@V?$allocator@D@2@@std@@PAUSSoundEx@@@std@@V?$allocator@U?$pair@$$CBV?$basic_string@DU?$char_traits@D@std@@V?$allocator@D@2@@std@@PAUSSoundEx@@@std@@@2@@std@@@3@@std@@IAEXXZ 0042b200 f i Lib_Engine:DxSoundLib.obj
 0001:0002a200       ??1?$vector@PAVDxDynamicMesh@@V?$allocator@PAVDxDynamicMesh@@@std@@@std@@QAE@XZ 0042b200 f i Lib_Engine:NsSMeshSceneGraph.obj
 0001:0002a230       ??0?$vector@USONEMAPWEATHER@@V?$allocator@USONEMAPWEATHER@@@std@@@std@@QAE@ABV01@@Z 0042b230 f i Lib_Client:GLLandMan.obj
 0001:0002a300       ?GetOneMapWeather@GLPeriod@@QAE?AV?$vector@USONEMAPWEATHER@@V?$allocator@USONEMAPWEATHER@@@std@@@std@@XZ 0042b300 f i Lib_Client:GLLandMan.obj
 0001:0002a330       ?_Rrotate@?$_Tree@V?$_Tmap_traits@HHU?$less@H@std@@V?$allocator@U?$pair@$$CBHH@std@@@2@$0A@@std@@@std@@IAEXPAU_Node@?$_Tree_nod@V?$_Tmap_traits@HHU?$less@H@std@@V?$allocator@U?$pair@$$CBHH@std@@@2@$0A@@std@@@2@@Z 0042b330 f i Lib_Network:s_CClientManager.obj
 0001:0002a330       ?_Rrotate@?$_Tree@V?$_Tmap_traits@KKU?$less@K@std@@V?$allocator@U?$pair@$$CBKK@std@@@2@$00@std@@@std@@IAEXPAU_Node@?$_Tree_nod@V?$_Tmap_traits@KKU?$less@K@std@@V?$allocator@U?$pair@$$CBKK@std@@@2@$00@std@@@2@@Z 0042b330 f i Lib_Client:GLQuestMan.obj
 0001:0002a330       ?_Rrotate@?$_Tree@V?$_Tmap_traits@U?$pair@GG@std@@PAUSINVENITEM@@U?$less@U?$pair@GG@std@@@2@V?$allocator@U?$pair@$$CBU?$pair@GG@std@@PAUSINVENITEM@@@std@@@2@$0A@@std@@@std@@IAEXPAU_Node@?$_Tree_nod@V?$_Tmap_traits@U?$pair@GG@std@@PAUSINVENITEM@@U?$less@U?$pair@GG@std@@@2@V?$allocator@U?$pair@$$CBU?$pair@GG@std@@PAUSINVENITEM@@@std@@@2@$0A@@std@@@2@@Z 0042b330 f i Lib_Client:GLInventory.obj
 0001:0002a330       ?_Rrotate@?$_Tree@V?$_Tmap_traits@MPAVDXLIGHT@@U?$less@M@std@@V?$allocator@U?$pair@$$CBMPAVDXLIGHT@@@std@@@3@$00@std@@@std@@IAEXPAU_Node@?$_Tree_nod@V?$_Tmap_traits@MPAVDXLIGHT@@U?$less@M@std@@V?$allocator@U?$pair@$$CBMPAVDXLIGHT@@@std@@@3@$00@std@@@2@@Z 0042b330 f i Lib_Engine:DxLightMan.obj
 0001:0002a330       ?_Rrotate@?$_Tree@V?$_Tmap_traits@KUOBJQUADTemp@@U?$less@K@std@@V?$allocator@U?$pair@$$CBKUOBJQUADTemp@@@std@@@3@$0A@@std@@@std@@IAEXPAU_Node@?$_Tree_nod@V?$_Tmap_traits@KUOBJQUADTemp@@U?$less@K@std@@V?$allocator@U?$pair@$$CBKUOBJQUADTemp@@@std@@@3@$0A@@std@@@2@@Z 0042b330 f i Lib_Engine:DxMapEditManThread.obj
 0001:0002a390       ?_Min@?$_Tree@V?$_Tmap_traits@MPAVDXLIGHT@@U?$less@M@std@@V?$allocator@U?$pair@$$CBMPAVDXLIGHT@@@std@@@3@$00@std@@@std@@KAPAU_Node@?$_Tree_nod@V?$_Tmap_traits@MPAVDXLIGHT@@U?$less@M@std@@V?$allocator@U?$pair@$$CBMPAVDXLIGHT@@@std@@@3@$00@std@@@2@PAU342@@Z 0042b390 f i Lib_Engine:DxShadowMap.obj
 0001:0002a390       ?_Min@?$_Tree@V?$_Tmap_traits@KUOBJQUADTemp@@U?$less@K@std@@V?$allocator@U?$pair@$$CBKUOBJQUADTemp@@@std@@@3@$0A@@std@@@std@@KAPAU_Node@?$_Tree_nod@V?$_Tmap_traits@KUOBJQUADTemp@@U?$less@K@std@@V?$allocator@U?$pair@$$CBKUOBJQUADTemp@@@std@@@3@$0A@@std@@@2@PAU342@@Z 0042b390 f i Lib_Engine:DxMapEditManThread.obj
 0001:0002a390       ?_Min@?$_Tree@V?$_Tmap_traits@KKU?$less@K@std@@V?$allocator@U?$pair@$$CBKK@std@@@2@$00@std@@@std@@KAPAU_Node@?$_Tree_nod@V?$_Tmap_traits@KKU?$less@K@std@@V?$allocator@U?$pair@$$CBKK@std@@@2@$00@std@@@2@PAU342@@Z 0042b390 f i Lib_Client:GLQuestMan.obj
 0001:0002a390       ?_Min@?$_Tree@V?$_Tmap_traits@HHU?$less@H@std@@V?$allocator@U?$pair@$$CBHH@std@@@2@$0A@@std@@@std@@KAPAU_Node@?$_Tree_nod@V?$_Tmap_traits@HHU?$less@H@std@@V?$allocator@U?$pair@$$CBHH@std@@@2@$0A@@std@@@2@PAU342@@Z 0042b390 f i Lib_Network:s_CClientManager.obj
 0001:0002a3b0       ?_Buynode@?$_Tree@V?$_Tmap_traits@KUOBJQUADTemp@@U?$less@K@std@@V?$allocator@U?$pair@$$CBKUOBJQUADTemp@@@std@@@3@$0A@@std@@@std@@IAEPAU_Node@?$_Tree_nod@V?$_Tmap_traits@KUOBJQUADTemp@@U?$less@K@std@@V?$allocator@U?$pair@$$CBKUOBJQUADTemp@@@std@@@3@$0A@@std@@@2@XZ 0042b3b0 f i Lib_Engine:DxQUADTree.obj
 0001:0002a3b0       ?_Buynode@?$_Tree@V?$_Tmap_traits@KKU?$less@K@std@@V?$allocator@U?$pair@$$CBKK@std@@@2@$00@std@@@std@@IAEPAU_Node@?$_Tree_nod@V?$_Tmap_traits@KKU?$less@K@std@@V?$allocator@U?$pair@$$CBKK@std@@@2@$00@std@@@2@XZ 0042b3b0 f i Lib_Client:GLQuestMan.obj
 0001:0002a3b0       ?_Buynode@?$_Tree@V?$_Tmap_traits@HHU?$less@H@std@@V?$allocator@U?$pair@$$CBHH@std@@@2@$0A@@std@@@std@@IAEPAU_Node@?$_Tree_nod@V?$_Tmap_traits@HHU?$less@H@std@@V?$allocator@U?$pair@$$CBHH@std@@@2@$0A@@std@@@2@XZ 0042b3b0 f i Lib_Network:s_CClientManager.obj
 0001:0002a3b0       ?_Buynode@?$_Tree@V?$_Tmap_traits@MPAVDXLIGHT@@U?$less@M@std@@V?$allocator@U?$pair@$$CBMPAVDXLIGHT@@@std@@@3@$00@std@@@std@@IAEPAU_Node@?$_Tree_nod@V?$_Tmap_traits@MPAVDXLIGHT@@U?$less@M@std@@V?$allocator@U?$pair@$$CBMPAVDXLIGHT@@@std@@@3@$00@std@@@2@XZ 0042b3b0 f i Lib_Engine:DxLightMan.obj
 0001:0002a3f0       ?_Erase@?$_Tree@V?$_Tmap_traits@KKU?$less@K@std@@V?$allocator@U?$pair@$$CBKK@std@@@2@$00@std@@@std@@IAEXPAU_Node@?$_Tree_nod@V?$_Tmap_traits@KKU?$less@K@std@@V?$allocator@U?$pair@$$CBKK@std@@@2@$00@std@@@2@@Z 0042b3f0 f i Lib_Client:GLQuestMan.obj
 0001:0002a430       ?erase@?$_Tree@V?$_Tmap_traits@KKU?$less@K@std@@V?$allocator@U?$pair@$$CBKK@std@@@2@$00@std@@@std@@QAE?AViterator@12@V312@@Z 0042b430 f i Lib_Client:GLQuestMan.obj
 0001:0002a700       ?erase@?$_Tree@V?$_Tmap_traits@KKU?$less@K@std@@V?$allocator@U?$pair@$$CBKK@std@@@2@$00@std@@@std@@QAE?AViterator@12@V312@0@Z 0042b700 f i Lib_Client:GLQuestMan.obj
 0001:0002a7c0       ??1?$multimap@KKU?$less@K@std@@V?$allocator@U?$pair@$$CBKK@std@@@2@@std@@QAE@XZ 0042b7c0 f i Lib_Client:GLQuestMan.obj
 0001:0002a7f0       ?SET_BYBUFFER@GLQUESTPROG_STEP@@QBEHAAVCByteStream@@@Z 0042b7f0 f   Lib_Client:GLQuest.obj
 0001:0002a890       ?SET_BYBUFFER@GLQUESTPROG@@QBEHAAVCByteStream@@@Z 0042b890 f   Lib_Client:GLQuest.obj
 0001:0002a920       ?lower_bound@STRUTIL@@YAPADPADKD@Z 0042b920 f i Lib_Engine:StringUtils.obj
 0001:0002a960       ??$fill@PADD@std@@YAXPAD0ABD@Z 0042b960 f i Lib_Engine:StringUtils.obj
 0001:0002a980       ?_Xlen@?$vector@DV?$allocator@D@std@@@std@@IBEXXZ 0042b980 f i Lib_Engine:StringUtils.obj
 0001:0002aa00       ??$_Rotate@Viterator@?$vector@DV?$allocator@D@std@@@std@@HD@std@@YAXViterator@?$vector@DV?$allocator@D@std@@@0@00PAHPAD@Z 0042ba00 f i Lib_Engine:StringUtils.obj
 0001:0002aab0       ??$_Ucopy@PAD@?$vector@DV?$allocator@D@std@@@std@@IAEPADPAD00@Z 0042bab0 f i Lib_Engine:StringUtils.obj
 0001:0002aae0       ??$_Median@Viterator@?$vector@DV?$allocator@D@std@@@std@@@std@@YAXViterator@?$vector@DV?$allocator@D@std@@@0@00@Z 0042bae0 f i Lib_Engine:StringUtils.obj
 0001:0002ac40       ??$_Adjust_heap@Viterator@?$vector@DV?$allocator@D@std@@@std@@HD@std@@YAXViterator@?$vector@DV?$allocator@D@std@@@0@HHD@Z 0042bc40 f i Lib_Engine:StringUtils.obj
 0001:0002acc0       ?IsSeparator@STRUTIL@@YAHPBDHAAH@Z 0042bcc0 f i Lib_Engine:StringUtils.obj
 0001:0002ad40       ?StringSeparate@STRUTIL@@YAHAAV?$CStringT@DV?$StrTraitMFC_DLL@DV?$ChTraitsCRT@D@ATL@@@@@ATL@@AAVCStringArray@@@Z 0042bd40 f   Lib_Engine:StringUtils.obj
 0001:0002ae90       ?_Ufill@?$vector@DV?$allocator@D@std@@@std@@IAEPADPADIABD@Z 0042be90 f i Lib_Engine:StringUtils.obj
 0001:0002aec0       ?_Insert_n@?$vector@DV?$allocator@D@std@@@std@@IAEXViterator@12@IABD@Z 0042bec0 f i Lib_Engine:StringUtils.obj
 0001:0002b080       ??$_Unguarded_partition@Viterator@?$vector@DV?$allocator@D@std@@@std@@@std@@YA?AU?$pair@Viterator@?$vector@DV?$allocator@D@std@@@std@@V123@@0@Viterator@?$vector@DV?$allocator@D@std@@@0@0@Z 0042c080 f i Lib_Engine:StringUtils.obj
 0001:0002b1d0       ??$_Make_heap@Viterator@?$vector@DV?$allocator@D@std@@@std@@HD@std@@YAXViterator@?$vector@DV?$allocator@D@std@@@0@0PAHPAD@Z 0042c1d0 f i Lib_Engine:StringUtils.obj
 0001:0002b210       ??$_Insertion_sort@Viterator@?$vector@DV?$allocator@D@std@@@std@@@std@@YAXViterator@?$vector@DV?$allocator@D@std@@@0@0@Z 0042c210 f i Lib_Engine:StringUtils.obj
 0001:0002b280       ?ClearSeparator@STRUTIL@@YAXXZ 0042c280 f   Lib_Engine:StringUtils.obj
 0001:0002b2c0       ?push_back@?$vector@DV?$allocator@D@std@@@std@@QAEXABD@Z 0042c2c0 f i Lib_Engine:StringUtils.obj
 0001:0002b310       ??$sort_heap@Viterator@?$vector@DV?$allocator@D@std@@@std@@@std@@YAXViterator@?$vector@DV?$allocator@D@std@@@0@0@Z 0042c310 f i Lib_Engine:StringUtils.obj
 0001:0002b350       ??$_Sort@Viterator@?$vector@DV?$allocator@D@std@@@std@@H@std@@YAXViterator@?$vector@DV?$allocator@D@std@@@0@0H@Z 0042c350 f i Lib_Engine:StringUtils.obj
 0001:0002b410       ?RegisterSeparator@STRUTIL@@YAXV?$CStringT@DV?$StrTraitMFC_DLL@DV?$ChTraitsCRT@D@ATL@@@@@ATL@@@Z 0042c410 f   Lib_Engine:StringUtils.obj
 0001:0002b4c0       ?BugTrapInstall@BUG_TRAP@@YAXAAV?$basic_string@DU?$char_traits@D@std@@V?$allocator@D@2@@std@@_N1@Z 0042c4c0 f   Lib_Engine:MinBugTrap.obj
 0001:0002b580       ??0CPROFILE@@QAE@XZ        0042c580 f   Lib_Engine:profile.obj
 0001:0002b610       ?DXUtil_Timer@@YGMW4TIMER_COMMAND@@@Z 0042c610 f   Lib_Engine:dxutil.obj
 0001:0002b9c0       ?Init@INFO@CDebugSet@@QAEXXZ 0042c9c0 f i Lib_Engine:DebugSet.obj
 0001:0002ba10       ??0SPOSTEXT@CDebugSet@@QAE@MMV?$basic_string@DU?$char_traits@D@std@@V?$allocator@D@2@@std@@@Z 0042ca10 f i Lib_Engine:DebugSet.obj
 0001:0002ba80       ??1_Node@?$_List_nod@USPOSTEXT@CDebugSet@@V?$allocator@USPOSTEXT@CDebugSet@@@std@@@std@@QAE@XZ 0042ca80 f i Lib_Engine:DebugSet.obj
 0001:0002ba90       ?DelHead@?$CMList@PAUINFO@CDebugSet@@@@QAEHXZ 0042ca90 f i Lib_Engine:DebugSet.obj
 0001:0002bae0       ?RemoveAll@?$CMList@PAUINFO@CDebugSet@@@@QAEXXZ 0042cae0 f i Lib_Engine:DebugSet.obj
 0001:0002bb40       ?GetCurTime@CDebugSet@@YA?AV?$basic_string@DU?$char_traits@D@std@@V?$allocator@D@2@@std@@XZ 0042cb40 f   Lib_Engine:DebugSet.obj
 0001:0002bc70       ?ToLogFile@CDebugSet@@YAXPBDZZ 0042cc70 f   Lib_Engine:DebugSet.obj
 0001:0002bdb0       ?_Buynode@?$list@USPOSTEXT@CDebugSet@@V?$allocator@USPOSTEXT@CDebugSet@@@std@@@std@@IAEPAU_Node@?$_List_nod@USPOSTEXT@CDebugSet@@V?$allocator@USPOSTEXT@CDebugSet@@@std@@@2@XZ 0042cdb0 f i Lib_Engine:DebugSet.obj
 0001:0002bdd0       ?_Buynode@?$list@USPOSTEXT@CDebugSet@@V?$allocator@USPOSTEXT@CDebugSet@@@std@@@std@@IAEPAU_Node@?$_List_nod@USPOSTEXT@CDebugSet@@V?$allocator@USPOSTEXT@CDebugSet@@@std@@@2@PAU342@0ABUSPOSTEXT@CDebugSet@@@Z 0042cdd0 f i Lib_Engine:DebugSet.obj
 0001:0002be70       ?_Incsize@?$list@USPOSTEXT@CDebugSet@@V?$allocator@USPOSTEXT@CDebugSet@@@std@@@std@@IAEXI@Z 0042ce70 f i Lib_Engine:DebugSet.obj
 0001:0002bf10       ?ToListView@CDebugSet@@YAXPBDZZ 0042cf10 f   Lib_Engine:DebugSet.obj
 0001:0002c150       ?ToFile@CDebugSet@@YAXPBD0ZZ 0042d150 f   Lib_Engine:DebugSet.obj
 0001:0002c250       ?ToFileWithTime@CDebugSet@@YAXPBD0ZZ 0042d250 f   Lib_Engine:DebugSet.obj
 0001:0002c3a0       ?ErrorVersion@CDebugSet@@YAXPBDK@Z 0042d3a0 f   Lib_Engine:DebugSet.obj
 0001:0002c480       ?clear@?$list@USPOSTEXT@CDebugSet@@V?$allocator@USPOSTEXT@CDebugSet@@@std@@@std@@QAEXXZ 0042d480 f i Lib_Engine:DebugSet.obj
 0001:0002c4c0       ?ToPos@CDebugSet@@YAXMMPBDZZ 0042d4c0 f   Lib_Engine:DebugSet.obj
 0001:0002c5a0       ?ErrorFile@CDebugSet@@YAXPBD0@Z 0042d5a0 f   Lib_Engine:DebugSet.obj
 0001:0002c8e0       ?GetWinVer@@YAHPADPAH00@Z  0042d8e0 f   Lib_Engine:GetWinVer.obj
 0001:0002cdc0       ??0CRijndael@@QAE@XZ       0042ddc0 f   Lib_Engine:Rijndael.obj
 0001:0002cde0       ??1CRijndael@@UAE@XZ       0042dde0 f   Lib_Engine:Rijndael.obj
 0001:0002cdf0       ?Signature@CRijndael@@EAEXPAD@Z 0042ddf0 f   Lib_Engine:Rijndael.obj
 0001:0002ced0       ??0runtime_error@std@@QAE@ABV?$basic_string@DU?$char_traits@D@std@@V?$allocator@D@2@@1@@Z 0042ded0 f i Lib_Engine:Rijndael.obj
 0001:0002cf30       ??_Gruntime_error@std@@UAEPAXI@Z 0042df30 f i Lib_Engine:Rijndael.obj
 0001:0002cf30       ??_Eruntime_error@std@@UAEPAXI@Z 0042df30 f i Lib_Engine:Rijndael.obj
 0001:0002cf50       ??1runtime_error@std@@UAE@XZ 0042df50 f i Lib_Engine:Rijndael.obj
 0001:0002cfb0       ??_GCRijndael@@UAEPAXI@Z   0042dfb0 f i Lib_Engine:Rijndael.obj
 0001:0002cfb0       ??_ECRijndael@@UAEPAXI@Z   0042dfb0 f i Lib_Engine:Rijndael.obj
 0001:0002cfd0       ??0runtime_error@std@@QAE@ABV01@@Z 0042dfd0 f i Lib_Engine:Rijndael.obj
 0001:0002d030       ?ResetChain@CRijndael@@UAEXXZ 0042e030 f   Lib_Engine:Rijndael.obj
 0001:0002d0c0       ?DefEncryptBlock@CRijndael@@AAEXPBDPAD@Z 0042e0c0 f   Lib_Engine:Rijndael.obj
 0001:0002d480       ?DefDecryptBlock@CRijndael@@AAEXPBDPAD@Z 0042e480 f   Lib_Engine:Rijndael.obj
 0001:0002d830       ?EncryptBlock@CRijndael@@AAEXPBDPAD@Z 0042e830 f   Lib_Engine:Rijndael.obj
 0001:0002db90       ?DecryptBlock@CRijndael@@AAEXPBDPAD@Z 0042eb90 f   Lib_Engine:Rijndael.obj
 0001:0002df10       ?Encrypt@CRijndael@@UAEXPBDPADI@Z 0042ef10 f   Lib_Engine:Rijndael.obj
 0001:0002e130       ?Decrypt@CRijndael@@UAEXPBDPADI@Z 0042f130 f   Lib_Engine:Rijndael.obj
 0001:0002e370       ?EncryptFileA@CRijndael@@UAEXABV?$basic_string@DU?$char_traits@D@std@@V?$allocator@D@2@@std@@0@Z 0042f370 f   Lib_Engine:Rijndael.obj
 0001:0002e720       ?DecryptFileA@CRijndael@@UAEXABV?$basic_string@DU?$char_traits@D@std@@V?$allocator@D@2@@std@@0@Z 0042f720 f   Lib_Engine:Rijndael.obj
 0001:0002eb60       ??1TiXmlBase@@UAE@XZ       0042fb60 f i Lib_Engine:tinyxml.obj
 0001:0002eb70       ??_ETiXmlBase@@UAEPAXI@Z   0042fb70 f i Lib_Engine:tinyxml.obj
 0001:0002eb70       ??_GTiXmlBase@@UAEPAXI@Z   0042fb70 f i Lib_Engine:tinyxml.obj
 0001:0002eb90       ??1TiXmlAttribute@@UAE@XZ  0042fb90 f i Lib_Engine:tinyxml.obj
 0001:0002ebf0       ?PutString@TiXmlBase@@KAXABV?$basic_string@DU?$char_traits@D@std@@V?$allocator@D@2@@std@@PAV23@@Z 0042fbf0 f   Lib_Engine:tinyxml.obj
 0001:0002ed80       ??1TiXmlNode@@UAE@XZ       0042fd80 f   Lib_Engine:tinyxml.obj
 0001:0002edf0       ?Clear@TiXmlNode@@QAEXXZ   0042fdf0 f   Lib_Engine:tinyxml.obj
 0001:0002ee20       ?GetDocument@TiXmlNode@@QBEPBVTiXmlDocument@@XZ 0042fe20 f   Lib_Engine:tinyxml.obj
 0001:0002ee50       ?Accept@TiXmlElement@@UBE_NPAVTiXmlVisitor@@@Z 0042fe50 f   Lib_Engine:tinyxml.obj
 0001:0002eeb0       ?Print@TiXmlDocument@@UBEXPAU_iobuf@@H@Z 0042feb0 f   Lib_Engine:tinyxml.obj
 0001:0002ef00       ?PrintData@TiXmlDocument@@UAEXAAV?$basic_string@DU?$char_traits@D@std@@V?$allocator@D@2@@std@@H@Z 0042ff00 f   Lib_Engine:tinyxml.obj
 0001:0002ef40       ?Accept@TiXmlDocument@@UBE_NPAVTiXmlVisitor@@@Z 0042ff40 f   Lib_Engine:tinyxml.obj
 0001:0002ef90       ?Print@TiXmlAttribute@@QBEXPAU_iobuf@@HPAV?$basic_string@DU?$char_traits@D@std@@V?$allocator@D@2@@std@@@Z 0042ff90 f   Lib_Engine:tinyxml.obj
 0001:0002f100       ?PrintData@TiXmlAttribute@@UAEXAAV?$basic_string@DU?$char_traits@D@std@@V?$allocator@D@2@@std@@H@Z 00430100 f   Lib_Engine:tinyxml.obj
 0001:0002f210       ?Print@TiXmlComment@@UBEXPAU_iobuf@@H@Z 00430210 f   Lib_Engine:tinyxml.obj
 0001:0002f260       ?PrintData@TiXmlComment@@UAEXAAV?$basic_string@DU?$char_traits@D@std@@V?$allocator@D@2@@std@@H@Z 00430260 f   Lib_Engine:tinyxml.obj
 0001:0002f2b0       ?Accept@TiXmlComment@@UBE_NPAVTiXmlVisitor@@@Z 004302b0 f   Lib_Engine:tinyxml.obj
 0001:0002f2c0       ?Print@TiXmlText@@UBEXPAU_iobuf@@H@Z 004302c0 f   Lib_Engine:tinyxml.obj
 0001:0002f3a0       ?PrintData@TiXmlText@@UAEXAAV?$basic_string@DU?$char_traits@D@std@@V?$allocator@D@2@@std@@H@Z 004303a0 f   Lib_Engine:tinyxml.obj
 0001:0002f480       ?Accept@TiXmlText@@UBE_NPAVTiXmlVisitor@@@Z 00430480 f   Lib_Engine:tinyxml.obj
 0001:0002f490       ?Print@TiXmlDeclaration@@UBEXPAU_iobuf@@HPAV?$basic_string@DU?$char_traits@D@std@@V?$allocator@D@2@@std@@@Z 00430490 f   Lib_Engine:tinyxml.obj
 0001:0002f5d0       ?PrintData@TiXmlDeclaration@@UAEXAAV?$basic_string@DU?$char_traits@D@std@@V?$allocator@D@2@@std@@H@Z 004305d0 f   Lib_Engine:tinyxml.obj
 0001:0002f690       ?CopyTo@TiXmlDeclaration@@IBEXPAV1@@Z 00430690 f   Lib_Engine:tinyxml.obj
 0001:0002f6e0       ?Accept@TiXmlDeclaration@@UBE_NPAVTiXmlVisitor@@@Z 004306e0 f   Lib_Engine:tinyxml.obj
 0001:0002f6f0       ?Print@TiXmlUnknown@@UBEXPAU_iobuf@@H@Z 004306f0 f   Lib_Engine:tinyxml.obj
 0001:0002f740       ?PrintData@TiXmlUnknown@@UAEXAAV?$basic_string@DU?$char_traits@D@std@@V?$allocator@D@2@@std@@H@Z 00430740 f   Lib_Engine:tinyxml.obj
 0001:0002f790       ?Accept@TiXmlUnknown@@UBE_NPAVTiXmlVisitor@@@Z 00430790 f   Lib_Engine:tinyxml.obj
 0001:0002f7a0       ??1TiXmlAttributeSet@@QAE@XZ 004307a0 f   Lib_Engine:tinyxml.obj
 0001:0002f7b0       ?Add@TiXmlAttributeSet@@QAEXPAVTiXmlAttribute@@@Z 004307b0 f   Lib_Engine:tinyxml.obj
 0001:0002f7d0       ?Find@TiXmlAttributeSet@@QBEPBVTiXmlAttribute@@ABV?$basic_string@DU?$char_traits@D@std@@V?$allocator@D@2@@std@@@Z 004307d0 f   Lib_Engine:tinyxml.obj
 0001:0002f810       ??0TiXmlAttribute@@QAE@XZ  00430810 f i Lib_Engine:tinyxml.obj
 0001:0002f880       ??0TiXmlAttribute@@QAE@PBD0@Z 00430880 f i Lib_Engine:tinyxml.obj
 0001:0002f920       ?Print@TiXmlAttribute@@UBEXPAU_iobuf@@H@Z 00430920 f i Lib_Engine:tinyxml.obj
 0001:0002f940       ??_ETiXmlAttribute@@UAEPAXI@Z 00430940 f i Lib_Engine:tinyxml.obj
 0001:0002f940       ??_GTiXmlAttribute@@UAEPAXI@Z 00430940 f i Lib_Engine:tinyxml.obj
 0001:0002f960       ??0TiXmlNode@@IAE@W4NodeType@0@@Z 00430960 f   Lib_Engine:tinyxml.obj
 0001:0002f9d0       ??_GTiXmlNode@@UAEPAXI@Z   004309d0 f i Lib_Engine:tinyxml.obj
 0001:0002f9d0       ??_ETiXmlNode@@UAEPAXI@Z   004309d0 f i Lib_Engine:tinyxml.obj
 0001:0002f9f0       ?LinkEndChild@TiXmlNode@@QAEPAV1@PAV1@@Z 004309f0 f   Lib_Engine:tinyxml.obj
 0001:0002fa90       ?ClearThis@TiXmlElement@@IAEXXZ 00430a90 f   Lib_Engine:tinyxml.obj
 0001:0002fb10       ?SetAttribute@TiXmlElement@@QAEXPBD0@Z 00430b10 f   Lib_Engine:tinyxml.obj
 0001:0002fc30       ?Print@TiXmlElement@@UBEXPAU_iobuf@@H@Z 00430c30 f   Lib_Engine:tinyxml.obj
 0001:0002fd80       ?PrintData@TiXmlElement@@UAEXAAV?$basic_string@DU?$char_traits@D@std@@V?$allocator@D@2@@std@@H@Z 00430d80 f   Lib_Engine:tinyxml.obj
 0001:0002fef0       ?CopyTo@TiXmlElement@@IBEXPAV1@@Z 00430ef0 f   Lib_Engine:tinyxml.obj
 0001:0002ff80       ??0TiXmlDocument@@QAE@XZ   00430f80 f   Lib_Engine:tinyxml.obj
 0001:00030020       ?CopyTo@TiXmlDocument@@ABEXPAV1@@Z 00431020 f   Lib_Engine:tinyxml.obj
 0001:00030080       ?Clone@TiXmlDocument@@MBEPAVTiXmlNode@@XZ 00431080 f   Lib_Engine:tinyxml.obj
 0001:00030100       ?ToDocument@TiXmlDocument@@UBEPBV1@XZ 00431100 f i Lib_Network:s_CWhiteRockXML.obj
 0001:00030100       ?ToDeclaration@TiXmlDeclaration@@UAEPAV1@XZ 00431100 f i Lib_Engine:tinyxml.obj
 0001:00030100       ?ToComment@TiXmlComment@@UAEPAV1@XZ 00431100 f i Lib_Engine:tinyxml.obj
 0001:00030100       ??0D3DXVECTOR3@@QAE@XZ     00431100 f i Lib_Network:s_COdbcGameClub.obj
 0001:00030100       ??0CSystemInfo@SERVER_UTIL@@QAE@XZ 00431100 f i Lib_Network:s_CSystemInfo.obj
 0001:00030100       ?ToUnknown@TiXmlUnknown@@UBEPBV1@XZ 00431100 f i Lib_Engine:tinyxml.obj
 0001:00030100       ?ToElement@TiXmlElement@@UAEPAV1@XZ 00431100 f i Lib_Engine:tinyxml.obj
 0001:00030100       ?ToElement@TiXmlElement@@UBEPBV1@XZ 00431100 f i Lib_Engine:tinyxml.obj
 0001:00030100       ?ToComment@TiXmlComment@@UBEPBV1@XZ 00431100 f i Lib_Engine:tinyxml.obj
 0001:00030100       ?ToDocument@TiXmlDocument@@UAEPAV1@XZ 00431100 f i Lib_Network:s_CWhiteRockXML.obj
 0001:00030100       ?ToDeclaration@TiXmlDeclaration@@UBEPBV1@XZ 00431100 f i Lib_Engine:tinyxml.obj
 0001:00030100       ?ToText@TiXmlText@@UAEPAV1@XZ 00431100 f i Lib_Engine:tinyxml.obj
 0001:00030100       ?ToUnknown@TiXmlUnknown@@UAEPAV1@XZ 00431100 f i Lib_Engine:tinyxml.obj
 0001:00030100       ?ToText@TiXmlText@@UBEPBV1@XZ 00431100 f i Lib_Engine:tinyxml.obj
 0001:00030100       ??0CBit@SERVER_UTIL@@QAE@XZ 00431100 f i Lib_Network:s_CBit.obj
 0001:00030110       ??_ETiXmlComment@@UAEPAXI@Z 00431110 f i Lib_Engine:tinyxml.obj
 0001:00030110       ??_GTiXmlComment@@UAEPAXI@Z 00431110 f i Lib_Engine:tinyxml.obj
 0001:00030130       ??1TiXmlComment@@UAE@XZ    00431130 f i Lib_Engine:tinyxml.obj
 0001:00030140       ?Print@TiXmlDeclaration@@UBEXPAU_iobuf@@H@Z 00431140 f i Lib_Engine:tinyxml.obj
 0001:00030160       ??_ETiXmlDeclaration@@UAEPAXI@Z 00431160 f i Lib_Engine:tinyxml.obj
 0001:00030160       ??_GTiXmlDeclaration@@UAEPAXI@Z 00431160 f i Lib_Engine:tinyxml.obj
 0001:00030180       ??1TiXmlDeclaration@@UAE@XZ 00431180 f i Lib_Engine:tinyxml.obj
 0001:000301f0       ??0TiXmlComment@@QAE@XZ    004311f0 f i Lib_Engine:tinyxml.obj
 0001:00030210       ??0TiXmlText@@QAE@PBD@Z    00431210 f i Lib_Engine:tinyxml.obj
 0001:00030270       ??_GTiXmlText@@UAEPAXI@Z   00431270 f i Lib_Engine:tinyxml.obj
 0001:00030270       ??_ETiXmlText@@UAEPAXI@Z   00431270 f i Lib_Engine:tinyxml.obj
 0001:00030290       ??1TiXmlText@@UAE@XZ       00431290 f i Lib_Engine:tinyxml.obj
 0001:000302a0       ??0TiXmlDeclaration@@QAE@XZ 004312a0 f i Lib_Engine:tinyxml.obj
 0001:00030310       ??0TiXmlUnknown@@QAE@XZ    00431310 f i Lib_Engine:tinyxml.obj
 0001:00030330       ??_ETiXmlUnknown@@UAEPAXI@Z 00431330 f i Lib_Engine:tinyxml.obj
 0001:00030330       ??_GTiXmlUnknown@@UAEPAXI@Z 00431330 f i Lib_Engine:tinyxml.obj
 0001:00030350       ??1TiXmlUnknown@@UAE@XZ    00431350 f i Lib_Engine:tinyxml.obj
 0001:00030360       ??0TiXmlElement@@QAE@PBD@Z 00431360 f   Lib_Engine:tinyxml.obj
 0001:000303e0       ??1TiXmlElement@@UAE@XZ    004313e0 f   Lib_Engine:tinyxml.obj
 0001:00030440       ?Clone@TiXmlElement@@UBEPAVTiXmlNode@@XZ 00431440 f   Lib_Engine:tinyxml.obj
 0001:000304d0       ?Clone@TiXmlComment@@UBEPAVTiXmlNode@@XZ 004314d0 f   Lib_Engine:tinyxml.obj
 0001:00030570       ?Clone@TiXmlText@@MBEPAVTiXmlNode@@XZ 00431570 f   Lib_Engine:tinyxml.obj
 0001:00030610       ?Clone@TiXmlDeclaration@@UBEPAVTiXmlNode@@XZ 00431610 f   Lib_Engine:tinyxml.obj
 0001:00030690       ?Clone@TiXmlUnknown@@UBEPAVTiXmlNode@@XZ 00431690 f   Lib_Engine:tinyxml.obj
 0001:00030730       ??_GTiXmlElement@@UAEPAXI@Z 00431730 f i Lib_Engine:tinyxml.obj
 0001:00030730       ??_ETiXmlElement@@UAEPAXI@Z 00431730 f i Lib_Engine:tinyxml.obj
 0001:00030750       ?IsWhiteSpace@TiXmlBase@@KA_ND@Z 00431750 f i Lib_Engine:tinyxmlparser.obj
 0001:00030780       ?ConvertUTF32ToUTF8@TiXmlBase@@KAXKPADPAH@Z 00431780 f   Lib_Engine:tinyxmlparser.obj
 0001:00030880       ?IsAlpha@TiXmlBase@@KAHEW4TiXmlEncoding@@@Z 00431880 f   Lib_Engine:tinyxmlparser.obj
 0001:000308a0       ?Stamp@TiXmlParsingData@@QAEXPBDW4TiXmlEncoding@@@Z 004318a0 f   Lib_Engine:tinyxmlparser.obj
 0001:00030aa0       ?SkipWhiteSpace@TiXmlBase@@KAPBDPBDW4TiXmlEncoding@@@Z 00431aa0 f   Lib_Engine:tinyxmlparser.obj
 0001:00030b60       ?StreamWhiteSpace@TiXmlBase@@KA_NPAV?$basic_istream@DU?$char_traits@D@std@@@std@@PAV?$basic_string@DU?$char_traits@D@std@@V?$allocator@D@2@@3@@Z 00431b60 f   Lib_Engine:tinyxmlparser.obj
 0001:00030be0       ?StreamTo@TiXmlBase@@KA_NPAV?$basic_istream@DU?$char_traits@D@std@@@std@@HPAV?$basic_string@DU?$char_traits@D@std@@V?$allocator@D@2@@3@@Z 00431be0 f   Lib_Engine:tinyxmlparser.obj
 0001:00030c50       ?ReadName@TiXmlBase@@KAPBDPBDPAV?$basic_string@DU?$char_traits@D@std@@V?$allocator@D@2@@std@@W4TiXmlEncoding@@@Z 00431c50 f   Lib_Engine:tinyxmlparser.obj
 0001:00030ce0       ?GetEntity@TiXmlBase@@KAPBDPBDPADPAHW4TiXmlEncoding@@@Z 00431ce0 f   Lib_Engine:tinyxmlparser.obj
 0001:00030f40       ?StringEqual@TiXmlBase@@KA_NPBD0_NW4TiXmlEncoding@@@Z 00431f40 f   Lib_Engine:tinyxmlparser.obj
 0001:00030ff0       ?SetError@TiXmlDocument@@QAEXHPBDPAVTiXmlParsingData@@W4TiXmlEncoding@@@Z 00431ff0 f   Lib_Engine:tinyxmlparser.obj
 0001:00031050       ?Identify@TiXmlNode@@IAEPAV1@PBDW4TiXmlEncoding@@@Z 00432050 f   Lib_Engine:tinyxmlparser.obj
 0001:00031300       ?StreamIn@TiXmlDeclaration@@MAEXPAV?$basic_istream@DU?$char_traits@D@std@@@std@@PAV?$basic_string@DU?$char_traits@D@std@@V?$allocator@D@2@@3@@Z 00432300 f   Lib_Engine:tinyxmlparser.obj
 0001:00031300       ?StreamIn@TiXmlUnknown@@MAEXPAV?$basic_istream@DU?$char_traits@D@std@@@std@@PAV?$basic_string@DU?$char_traits@D@std@@V?$allocator@D@2@@3@@Z 00432300 f   Lib_Engine:tinyxmlparser.obj
 0001:000313a0       ?Parse@TiXmlUnknown@@UAEPBDPBDPAVTiXmlParsingData@@W4TiXmlEncoding@@@Z 004323a0 f   Lib_Engine:tinyxmlparser.obj
 0001:00031480       ?StreamIn@TiXmlComment@@MAEXPAV?$basic_istream@DU?$char_traits@D@std@@@std@@PAV?$basic_string@DU?$char_traits@D@std@@V?$allocator@D@2@@3@@Z 00432480 f   Lib_Engine:tinyxmlparser.obj
 0001:00031540       ?StreamIn@TiXmlText@@MAEXPAV?$basic_istream@DU?$char_traits@D@std@@@std@@PAV?$basic_string@DU?$char_traits@D@std@@V?$allocator@D@2@@3@@Z 00432540 f   Lib_Engine:tinyxmlparser.obj
 0001:00031640       ?Blank@TiXmlText@@IBE_NXZ  00432640 f   Lib_Engine:tinyxmlparser.obj
 0001:000316a0       ?GetChar@TiXmlBase@@KAPBDPBDPADPAHW4TiXmlEncoding@@@Z 004326a0 f i Lib_Engine:tinyxmlparser.obj
 0001:00031730       ?ReadText@TiXmlBase@@KAPBDPBDPAV?$basic_string@DU?$char_traits@D@std@@V?$allocator@D@2@@std@@_N02W4TiXmlEncoding@@@Z 00432730 f   Lib_Engine:tinyxmlparser.obj
 0001:000318e0       ?StreamIn@TiXmlDocument@@MAEXPAV?$basic_istream@DU?$char_traits@D@std@@@std@@PAV?$basic_string@DU?$char_traits@D@std@@V?$allocator@D@2@@3@@Z 004328e0 f   Lib_Engine:tinyxmlparser.obj
 0001:00031a80       ?Parse@TiXmlDocument@@UAEPBDPBDPAVTiXmlParsingData@@W4TiXmlEncoding@@@Z 00432a80 f   Lib_Engine:tinyxmlparser.obj
 0001:00031d10       ?StreamIn@TiXmlElement@@MAEXPAV?$basic_istream@DU?$char_traits@D@std@@@std@@PAV?$basic_string@DU?$char_traits@D@std@@V?$allocator@D@2@@3@@Z 00432d10 f   Lib_Engine:tinyxmlparser.obj
 0001:00032070       ?ReadValue@TiXmlElement@@IAEPBDPBDPAVTiXmlParsingData@@W4TiXmlEncoding@@@Z 00433070 f   Lib_Engine:tinyxmlparser.obj
 0001:00032270       ?Parse@TiXmlComment@@UAEPBDPBDPAVTiXmlParsingData@@W4TiXmlEncoding@@@Z 00433270 f   Lib_Engine:tinyxmlparser.obj
 0001:00032340       ?Parse@TiXmlAttribute@@UAEPBDPBDPAVTiXmlParsingData@@W4TiXmlEncoding@@@Z 00433340 f   Lib_Engine:tinyxmlparser.obj
 0001:000324d0       ?Parse@TiXmlText@@UAEPBDPBDPAVTiXmlParsingData@@W4TiXmlEncoding@@@Z 004334d0 f   Lib_Engine:tinyxmlparser.obj
 0001:000326b0       ?Parse@TiXmlDeclaration@@UAEPBDPBDPAVTiXmlParsingData@@W4TiXmlEncoding@@@Z 004336b0 f   Lib_Engine:tinyxmlparser.obj
 0001:00032970       ?Parse@TiXmlElement@@UAEPBDPBDPAVTiXmlParsingData@@W4TiXmlEncoding@@@Z 00433970 f   Lib_Engine:tinyxmlparser.obj
 0001:00032ce0       ?_Min@?$_Tree@V?$_Tmap_traits@KUCOUNTVERTEXFACE@NSCHARSG@@U?$less@K@std@@V?$allocator@U?$pair@$$CBKUCOUNTVERTEXFACE@NSCHARSG@@@std@@@4@$0A@@std@@@std@@KAPAU_Node@?$_Tree_nod@V?$_Tmap_traits@KUCOUNTVERTEXFACE@NSCHARSG@@U?$less@K@std@@V?$allocator@U?$pair@$$CBKUCOUNTVERTEXFACE@NSCHARSG@@@std@@@4@$0A@@std@@@2@PAU342@@Z 00433ce0 f i Lib_Engine:NsSMeshSceneGraph.obj
 0001:00032ce0       ?_Min@?$_Tree@V?$_Tmap_traits@KUSMTH@GLPeriod@@U?$less@K@std@@V?$allocator@U?$pair@$$CBKUSMTH@GLPeriod@@@std@@@4@$0A@@std@@@std@@KAPAU_Node@?$_Tree_nod@V?$_Tmap_traits@KUSMTH@GLPeriod@@U?$less@K@std@@V?$allocator@U?$pair@$$CBKUSMTH@GLPeriod@@@std@@@4@$0A@@std@@@2@PAU342@@Z 00433ce0 f i Lib_Engine:GLPeriod.obj
 0001:00032d00       ?_Inc@const_iterator@?$_Tree@V?$_Tmap_traits@KUSMTH@GLPeriod@@U?$less@K@std@@V?$allocator@U?$pair@$$CBKUSMTH@GLPeriod@@@std@@@4@$0A@@std@@@std@@QAEXXZ 00433d00 f i Lib_Engine:GLPeriod.obj
 0001:00032d00       ?_Inc@const_iterator@?$_Tree@V?$_Tmap_traits@KUCOUNTVERTEXFACE@NSCHARSG@@U?$less@K@std@@V?$allocator@U?$pair@$$CBKUCOUNTVERTEXFACE@NSCHARSG@@@std@@@4@$0A@@std@@@std@@QAEXXZ 00433d00 f i Lib_Engine:NsSMeshSceneGraph.obj
 0001:00032d60       ?_Dec@const_iterator@?$_Tree@V?$_Tmap_traits@KUSMTH@GLPeriod@@U?$less@K@std@@V?$allocator@U?$pair@$$CBKUSMTH@GLPeriod@@@std@@@4@$0A@@std@@@std@@QAEXXZ 00433d60 f i Lib_Engine:GLPeriod.obj
 0001:00032dc0       ?_Buynode@?$_Tree@V?$_Tmap_traits@KUSMTH@GLPeriod@@U?$less@K@std@@V?$allocator@U?$pair@$$CBKUSMTH@GLPeriod@@@std@@@4@$0A@@std@@@std@@IAEPAU_Node@?$_Tree_nod@V?$_Tmap_traits@KUSMTH@GLPeriod@@U?$less@K@std@@V?$allocator@U?$pair@$$CBKUSMTH@GLPeriod@@@std@@@4@$0A@@std@@@2@PAU342@00ABU?$pair@$$CBKUSMTH@GLPeriod@@@2@D@Z 00433dc0 f i Lib_Engine:GLPeriod.obj
 0001:00032e10       ?_Buynode@?$_Tree@V?$_Tmap_traits@KUCOUNTVERTEXFACE@NSCHARSG@@U?$less@K@std@@V?$allocator@U?$pair@$$CBKUCOUNTVERTEXFACE@NSCHARSG@@@std@@@4@$0A@@std@@@std@@IAEPAU_Node@?$_Tree_nod@V?$_Tmap_traits@KUCOUNTVERTEXFACE@NSCHARSG@@U?$less@K@std@@V?$allocator@U?$pair@$$CBKUCOUNTVERTEXFACE@NSCHARSG@@@std@@@4@$0A@@std@@@2@XZ 00433e10 f i Lib_Engine:NsSMeshSceneGraph.obj
 0001:00032e10       ?_Buynode@?$_Tree@V?$_Tmap_traits@KUSMTH@GLPeriod@@U?$less@K@std@@V?$allocator@U?$pair@$$CBKUSMTH@GLPeriod@@@std@@@4@$0A@@std@@@std@@IAEPAU_Node@?$_Tree_nod@V?$_Tmap_traits@KUSMTH@GLPeriod@@U?$less@K@std@@V?$allocator@U?$pair@$$CBKUSMTH@GLPeriod@@@std@@@4@$0A@@std@@@2@XZ 00433e10 f i Lib_Engine:GLPeriod.obj
 0001:00032e50       ?_Erase@?$_Tree@V?$_Tmap_traits@KUSMTH@GLPeriod@@U?$less@K@std@@V?$allocator@U?$pair@$$CBKUSMTH@GLPeriod@@@std@@@4@$0A@@std@@@std@@IAEXPAU_Node@?$_Tree_nod@V?$_Tmap_traits@KUSMTH@GLPeriod@@U?$less@K@std@@V?$allocator@U?$pair@$$CBKUSMTH@GLPeriod@@@std@@@4@$0A@@std@@@2@@Z 00433e50 f i Lib_Engine:GLPeriod.obj
 0001:00032e90       ?_Insert@?$_Tree@V?$_Tmap_traits@KUSMTH@GLPeriod@@U?$less@K@std@@V?$allocator@U?$pair@$$CBKUSMTH@GLPeriod@@@std@@@4@$0A@@std@@@std@@IAE?AViterator@12@_NPAU_Node@?$_Tree_nod@V?$_Tmap_traits@KUSMTH@GLPeriod@@U?$less@K@std@@V?$allocator@U?$pair@$$CBKUSMTH@GLPeriod@@@std@@@4@$0A@@std@@@2@ABU?$pair@$$CBKUSMTH@GLPeriod@@@2@@Z 00433e90 f i Lib_Engine:GLPeriod.obj
 0001:00033050       ?erase@?$_Tree@V?$_Tmap_traits@KUSMTH@GLPeriod@@U?$less@K@std@@V?$allocator@U?$pair@$$CBKUSMTH@GLPeriod@@@std@@@4@$0A@@std@@@std@@QAE?AViterator@12@V312@@Z 00434050 f i Lib_Engine:GLPeriod.obj
 0001:00033320       ?insert@?$_Tree@V?$_Tmap_traits@KUSMTH@GLPeriod@@U?$less@K@std@@V?$allocator@U?$pair@$$CBKUSMTH@GLPeriod@@@std@@@4@$0A@@std@@@std@@QAE?AU?$pair@Viterator@?$_Tree@V?$_Tmap_traits@KUSMTH@GLPeriod@@U?$less@K@std@@V?$allocator@U?$pair@$$CBKUSMTH@GLPeriod@@@std@@@4@$0A@@std@@@std@@_N@2@ABU?$pair@$$CBKUSMTH@GLPeriod@@@2@@Z 00434320 f i Lib_Engine:GLPeriod.obj
 0001:000333e0       ?erase@?$_Tree@V?$_Tmap_traits@KUSMTH@GLPeriod@@U?$less@K@std@@V?$allocator@U?$pair@$$CBKUSMTH@GLPeriod@@@std@@@4@$0A@@std@@@std@@QAE?AViterator@12@V312@0@Z 004343e0 f i Lib_Engine:GLPeriod.obj
 0001:000334a0       ??1?$map@KUSMTH@GLPeriod@@U?$less@K@std@@V?$allocator@U?$pair@$$CBKUSMTH@GLPeriod@@@std@@@4@@std@@QAE@XZ 004344a0 f i Lib_Engine:GLPeriod.obj
 0001:000334d0       ??1GLPeriod@@QAE@XZ        004344d0 f   Lib_Engine:GLPeriod.obj
 0001:00033530       ??0GLPeriod@@IAE@XZ        00434530 f   Lib_Engine:GLPeriod.obj
 0001:000339c0       ?GetInstance@GLPeriod@@SAAAV1@XZ 004349c0 f   Lib_Engine:GLPeriod.obj
 0001:00033a20       ?IsLineTriangleCollision@COLLISION@@YAHPAUD3DXVECTOR3@@000000H@Z 00434a20 f   Lib_Engine:Collision.obj
 0001:00035330       ?CalculatePlane2Line@COLLISION@@YA_NABUD3DXPLANE@@ABUD3DXVECTOR3@@1AAU3@@Z 00436330 f   Lib_Engine:Collision.obj
 0001:00035420       ?IsCollision@DxAABBNode@@QAEHAAUD3DXVECTOR3@@0@Z 00436420 f   Lib_Engine:Collision.obj
 0001:000357b0       ?_Lbound@?$_Tree@V?$_Tmap_traits@V?$basic_string@DU?$char_traits@D@std@@V?$allocator@D@2@@std@@PAVDxSimMesh@@U?$less@V?$basic_string@DU?$char_traits@D@std@@V?$allocator@D@2@@std@@@2@V?$allocator@U?$pair@$$CBV?$basic_string@DU?$char_traits@D@std@@V?$allocator@D@2@@std@@PAVDxSimMesh@@@std@@@2@$0A@@std@@@std@@IBEPAU_Node@?$_Tree_nod@V?$_Tmap_traits@V?$basic_string@DU?$char_traits@D@std@@V?$allocator@D@2@@std@@PAVDxSimMesh@@U?$less@V?$basic_string@DU?$char_traits@D@std@@V?$allocator@D@2@@std@@@2@V?$allocator@U?$pair@$$CBV?$basic_string@DU?$char_traits@D@std@@V?$allocator@D@2@@std@@PAVDxSimMesh@@@std@@@2@$0A@@std@@@2@ABV?$basic_string@DU?$char_traits@D@std@@V?$allocator@D@2@@2@@Z 004367b0 f i Lib_Engine:DxSimpleMeshMan.obj
 0001:000357b0       ?_Lbound@?$_Tree@V?$_Tmap_traits@V?$basic_string@DU?$char_traits@D@std@@V?$allocator@D@2@@std@@PAVTextureContainer@TextureManager@@U?$less@V?$basic_string@DU?$char_traits@D@std@@V?$allocator@D@2@@std@@@2@V?$allocator@U?$pair@$$CBV?$basic_string@DU?$char_traits@D@std@@V?$allocator@D@2@@std@@PAVTextureContainer@TextureManager@@@std@@@2@$0A@@std@@@std@@IBEPAU_Node@?$_Tree_nod@V?$_Tmap_traits@V?$basic_string@DU?$char_traits@D@std@@V?$allocator@D@2@@std@@PAVTextureContainer@TextureManager@@U?$less@V?$basic_string@DU?$char_traits@D@std@@V?$allocator@D@2@@std@@@2@V?$allocator@U?$pair@$$CBV?$basic_string@DU?$char_traits@D@std@@V?$allocator@D@2@@std@@PAVTextureContainer@TextureManager@@@std@@@2@$0A@@std@@@2@ABV?$basic_string@DU?$char_traits@D@std@@V?$allocator@D@2@@2@@Z 004367b0 f i Lib_Engine:TextureManager.obj
 0001:000357b0       ?_Lbound@?$_Tree@V?$_Tmap_traits@V?$basic_string@DU?$char_traits@D@std@@V?$allocator@D@2@@std@@KU?$less@V?$basic_string@DU?$char_traits@D@std@@V?$allocator@D@2@@std@@@2@V?$allocator@U?$pair@$$CBV?$basic_string@DU?$char_traits@D@std@@V?$allocator@D@2@@std@@K@std@@@2@$0A@@std@@@std@@IBEPAU_Node@?$_Tree_nod@V?$_Tmap_traits@V?$basic_string@DU?$char_traits@D@std@@V?$allocator@D@2@@std@@KU?$less@V?$basic_string@DU?$char_traits@D@std@@V?$allocator@D@2@@std@@@2@V?$allocator@U?$pair@$$CBV?$basic_string@DU?$char_traits@D@std@@V?$allocator@D@2@@std@@K@std@@@2@$0A@@std@@@2@ABV?$basic_string@DU?$char_traits@D@std@@V?$allocator@D@2@@2@@Z 004367b0 f i Lib_Engine:TextureManager.obj
 0001:000357b0       ?_Lbound@?$_Tree@V?$_Tmap_traits@V?$basic_string@DU?$char_traits@D@std@@V?$allocator@D@2@@std@@PAUDxSkinPiece@@U?$less@V?$basic_string@DU?$char_traits@D@std@@V?$allocator@D@2@@std@@@2@V?$allocator@U?$pair@$$CBV?$basic_string@DU?$char_traits@D@std@@V?$allocator@D@2@@std@@PAUDxSkinPiece@@@std@@@2@$0A@@std@@@std@@IBEPAU_Node@?$_Tree_nod@V?$_Tmap_traits@V?$basic_string@DU?$char_traits@D@std@@V?$allocator@D@2@@std@@PAUDxSkinPiece@@U?$less@V?$basic_string@DU?$char_traits@D@std@@V?$allocator@D@2@@std@@@2@V?$allocator@U?$pair@$$CBV?$basic_string@DU?$char_traits@D@std@@V?$allocator@D@2@@std@@PAUDxSkinPiece@@@std@@@2@$0A@@std@@@2@ABV?$basic_string@DU?$char_traits@D@std@@V?$allocator@D@2@@2@@Z 004367b0 f i Lib_Engine:DxSkinPieceContainer.obj
 0001:00035800       ?ConvertFileName@DxSimpleMeshMan@@IAEXPADHPBDK@Z 00436800 f   Lib_Engine:DxSimpleMeshMan.obj
 0001:00035910       ?erase@?$_Tree@V?$_Tmap_traits@V?$basic_string@DU?$char_traits@D@std@@V?$allocator@D@2@@std@@PAVDxSimMesh@@U?$less@V?$basic_string@DU?$char_traits@D@std@@V?$allocator@D@2@@std@@@2@V?$allocator@U?$pair@$$CBV?$basic_string@DU?$char_traits@D@std@@V?$allocator@D@2@@std@@PAVDxSimMesh@@@std@@@2@$0A@@std@@@std@@QAE?AViterator@12@V312@@Z 00436910 f i Lib_Engine:DxSimpleMeshMan.obj
 0001:00035bf0       ?_Erase@?$_Tree@V?$_Tmap_traits@V?$basic_string@DU?$char_traits@D@std@@V?$allocator@D@2@@std@@PAVDxSimMesh@@U?$less@V?$basic_string@DU?$char_traits@D@std@@V?$allocator@D@2@@std@@@2@V?$allocator@U?$pair@$$CBV?$basic_string@DU?$char_traits@D@std@@V?$allocator@D@2@@std@@PAVDxSimMesh@@@std@@@2@$0A@@std@@@std@@IAEXPAU_Node@?$_Tree_nod@V?$_Tmap_traits@V?$basic_string@DU?$char_traits@D@std@@V?$allocator@D@2@@std@@PAVDxSimMesh@@U?$less@V?$basic_string@DU?$char_traits@D@std@@V?$allocator@D@2@@std@@@2@V?$allocator@U?$pair@$$CBV?$basic_string@DU?$char_traits@D@std@@V?$allocator@D@2@@std@@PAVDxSimMesh@@@std@@@2@$0A@@std@@@2@@Z 00436bf0 f i Lib_Engine:DxSimpleMeshMan.obj
 0001:00035c30       ?Release@DxSimpleMeshMan@@QAEJPBDKH@Z 00436c30 f   Lib_Engine:DxSimpleMeshMan.obj
 0001:00035da0       ?erase@?$_Tree@V?$_Tmap_traits@V?$basic_string@DU?$char_traits@D@std@@V?$allocator@D@2@@std@@PAVDxSimMesh@@U?$less@V?$basic_string@DU?$char_traits@D@std@@V?$allocator@D@2@@std@@@2@V?$allocator@U?$pair@$$CBV?$basic_string@DU?$char_traits@D@std@@V?$allocator@D@2@@std@@PAVDxSimMesh@@@std@@@2@$0A@@std@@@std@@QAE?AViterator@12@V312@0@Z 00436da0 f i Lib_Engine:DxSimpleMeshMan.obj
 0001:00035e60       ??1?$map@V?$basic_string@DU?$char_traits@D@std@@V?$allocator@D@2@@std@@PAVDxSimMesh@@U?$less@V?$basic_string@DU?$char_traits@D@std@@V?$allocator@D@2@@std@@@2@V?$allocator@U?$pair@$$CBV?$basic_string@DU?$char_traits@D@std@@V?$allocator@D@2@@std@@PAVDxSimMesh@@@std@@@2@@std@@QAE@XZ 00436e60 f i Lib_Engine:DxSimpleMeshMan.obj
 0001:00035e90       ??1DxSimpleMeshMan@@QAE@XZ 00436e90 f   Lib_Engine:DxSimpleMeshMan.obj
 0001:00035f40       ??0DxSimpleMeshMan@@IAE@XZ 00436f40 f   Lib_Engine:DxSimpleMeshMan.obj
 0001:00035ff0       ?GetInstance@DxSimpleMeshMan@@SAAAV1@XZ 00436ff0 f   Lib_Engine:DxSimpleMeshMan.obj
 0001:00036050       ?IsCollision@NavigationMesh@@IAEXPAUDxAABBNode@@AAUD3DXVECTOR3@@11AAK@Z 00437050 f   Lib_Engine:navagationtree.obj
 0001:00036240       ?IsCollision@NavigationMesh@@QAEXAAUD3DXVECTOR3@@00AAKAAH@Z 00437240 f   Lib_Engine:navagationtree.obj
 0001:000362f0       ??0SERVER_SET@RANPARAM@@QAE@XZ 004372f0 f i Lib_Engine:RANPARAM.obj
 0001:00036350       ??1SERVER_SET@RANPARAM@@QAE@XZ 00437350 f i Lib_Engine:RANPARAM.obj
 0001:000363b0       ??$for_each@Viterator@?$vector@PAVDxEffChar@@V?$allocator@PAVDxEffChar@@@std@@@std@@UDeleteObject@std_afunc@@@std@@YA?AUDeleteObject@std_afunc@@Viterator@?$vector@PAVDxEffChar@@V?$allocator@PAVDxEffChar@@@std@@@0@0U12@@Z 004373b0 f i Lib_Engine:DxSkinPieceContainer.obj
 0001:000363f0       ?_Buynode@?$_Tree@V?$_Tmap_traits@V?$basic_string@DU?$char_traits@D@std@@V?$allocator@D@2@@std@@KU?$less@V?$basic_string@DU?$char_traits@D@std@@V?$allocator@D@2@@std@@@2@V?$allocator@U?$pair@$$CBV?$basic_string@DU?$char_traits@D@std@@V?$allocator@D@2@@std@@K@std@@@2@$0A@@std@@@std@@IAEPAU_Node@?$_Tree_nod@V?$_Tmap_traits@V?$basic_string@DU?$char_traits@D@std@@V?$allocator@D@2@@std@@KU?$less@V?$basic_string@DU?$char_traits@D@std@@V?$allocator@D@2@@std@@@2@V?$allocator@U?$pair@$$CBV?$basic_string@DU?$char_traits@D@std@@V?$allocator@D@2@@std@@K@std@@@2@$0A@@std@@@2@XZ 004373f0 f i Lib_Engine:TextureManager.obj
 0001:000363f0       ?_Buynode@?$_Tree@V?$_Tmap_traits@V?$basic_string@DU?$char_traits@D@std@@V?$allocator@D@2@@std@@PAUDxSkinPiece@@U?$less@V?$basic_string@DU?$char_traits@D@std@@V?$allocator@D@2@@std@@@2@V?$allocator@U?$pair@$$CBV?$basic_string@DU?$char_traits@D@std@@V?$allocator@D@2@@std@@PAUDxSkinPiece@@@std@@@2@$0A@@std@@@std@@IAEPAU_Node@?$_Tree_nod@V?$_Tmap_traits@V?$basic_string@DU?$char_traits@D@std@@V?$allocator@D@2@@std@@PAUDxSkinPiece@@U?$less@V?$basic_string@DU?$char_traits@D@std@@V?$allocator@D@2@@std@@@2@V?$allocator@U?$pair@$$CBV?$basic_string@DU?$char_traits@D@std@@V?$allocator@D@2@@std@@PAUDxSkinPiece@@@std@@@2@$0A@@std@@@2@XZ 004373f0 f i Lib_Engine:DxSkinPieceContainer.obj
 0001:000363f0       ?_Buynode@?$_Tree@V?$_Tmap_traits@V?$basic_string@DU?$char_traits@D@std@@V?$allocator@D@2@@std@@PAVTextureContainer@TextureManager@@U?$less@V?$basic_string@DU?$char_traits@D@std@@V?$allocator@D@2@@std@@@2@V?$allocator@U?$pair@$$CBV?$basic_string@DU?$char_traits@D@std@@V?$allocator@D@2@@std@@PAVTextureContainer@TextureManager@@@std@@@2@$0A@@std@@@std@@IAEPAU_Node@?$_Tree_nod@V?$_Tmap_traits@V?$basic_string@DU?$char_traits@D@std@@V?$allocator@D@2@@std@@PAVTextureContainer@TextureManager@@U?$less@V?$basic_string@DU?$char_traits@D@std@@V?$allocator@D@2@@std@@@2@V?$allocator@U?$pair@$$CBV?$basic_string@DU?$char_traits@D@std@@V?$allocator@D@2@@std@@PAVTextureContainer@TextureManager@@@std@@@2@$0A@@std@@@2@XZ 004373f0 f i Lib_Engine:TextureManager.obj
 0001:000363f0       ?_Buynode@?$_Tree@V?$_Tmap_traits@V?$basic_string@DU?$char_traits@D@std@@V?$allocator@D@2@@std@@PAUSTATICDATA@NSSTATICMESH@@U?$less@V?$basic_string@DU?$char_traits@D@std@@V?$allocator@D@2@@std@@@2@V?$allocator@U?$pair@$$CBV?$basic_string@DU?$char_traits@D@std@@V?$allocator@D@2@@std@@PAUSTATICDATA@NSSTATICMESH@@@std@@@2@$0A@@std@@@std@@IAEPAU_Node@?$_Tree_nod@V?$_Tmap_traits@V?$basic_string@DU?$char_traits@D@std@@V?$allocator@D@2@@std@@PAUSTATICDATA@NSSTATICMESH@@U?$less@V?$basic_string@DU?$char_traits@D@std@@V?$allocator@D@2@@std@@@2@V?$allocator@U?$pair@$$CBV?$basic_string@DU?$char_traits@D@std@@V?$allocator@D@2@@std@@PAUSTATICDATA@NSSTATICMESH@@@std@@@2@$0A@@std@@@2@XZ 004373f0 f i Lib_Engine:DxStaticMesh.obj
 0001:000363f0       ?_Buynode@?$_Tree@V?$_Tmap_traits@V?$basic_string@DU?$char_traits@D@std@@V?$allocator@D@2@@std@@PAVDxSimMesh@@U?$less@V?$basic_string@DU?$char_traits@D@std@@V?$allocator@D@2@@std@@@2@V?$allocator@U?$pair@$$CBV?$basic_string@DU?$char_traits@D@std@@V?$allocator@D@2@@std@@PAVDxSimMesh@@@std@@@2@$0A@@std@@@std@@IAEPAU_Node@?$_Tree_nod@V?$_Tmap_traits@V?$basic_string@DU?$char_traits@D@std@@V?$allocator@D@2@@std@@PAVDxSimMesh@@U?$less@V?$basic_string@DU?$char_traits@D@std@@V?$allocator@D@2@@std@@@2@V?$allocator@U?$pair@$$CBV?$basic_string@DU?$char_traits@D@std@@V?$allocator@D@2@@std@@PAVDxSimMesh@@@std@@@2@$0A@@std@@@2@XZ 004373f0 f i Lib_Engine:DxSimpleMeshMan.obj
 0001:00036430       ?find@?$_Tree@V?$_Tmap_traits@V?$basic_string@DU?$char_traits@D@std@@V?$allocator@D@2@@std@@PAVDxSimMesh@@U?$less@V?$basic_string@DU?$char_traits@D@std@@V?$allocator@D@2@@std@@@2@V?$allocator@U?$pair@$$CBV?$basic_string@DU?$char_traits@D@std@@V?$allocator@D@2@@std@@PAVDxSimMesh@@@std@@@2@$0A@@std@@@std@@QAE?AViterator@12@ABV?$basic_string@DU?$char_traits@D@std@@V?$allocator@D@2@@2@@Z 00437430 f i Lib_Engine:DxSimpleMeshMan.obj
 0001:00036430       ?find@?$_Tree@V?$_Tmap_traits@V?$basic_string@DU?$char_traits@D@std@@V?$allocator@D@2@@std@@PAUDxSkinPiece@@U?$less@V?$basic_string@DU?$char_traits@D@std@@V?$allocator@D@2@@std@@@2@V?$allocator@U?$pair@$$CBV?$basic_string@DU?$char_traits@D@std@@V?$allocator@D@2@@std@@PAUDxSkinPiece@@@std@@@2@$0A@@std@@@std@@QAE?AViterator@12@ABV?$basic_string@DU?$char_traits@D@std@@V?$allocator@D@2@@2@@Z 00437430 f i Lib_Engine:DxSkinPieceContainer.obj
 0001:00036490       ?erase@?$_Tree@V?$_Tmap_traits@V?$basic_string@DU?$char_traits@D@std@@V?$allocator@D@2@@std@@PAUDxSkinPiece@@U?$less@V?$basic_string@DU?$char_traits@D@std@@V?$allocator@D@2@@std@@@2@V?$allocator@U?$pair@$$CBV?$basic_string@DU?$char_traits@D@std@@V?$allocator@D@2@@std@@PAUDxSkinPiece@@@std@@@2@$0A@@std@@@std@@QAE?AViterator@12@V312@@Z 00437490 f i Lib_Engine:DxSkinPieceContainer.obj
 0001:00036770       ?_Erase@?$_Tree@V?$_Tmap_traits@V?$basic_string@DU?$char_traits@D@std@@V?$allocator@D@2@@std@@PAUDxSkinPiece@@U?$less@V?$basic_string@DU?$char_traits@D@std@@V?$allocator@D@2@@std@@@2@V?$allocator@U?$pair@$$CBV?$basic_string@DU?$char_traits@D@std@@V?$allocator@D@2@@std@@PAUDxSkinPiece@@@std@@@2@$0A@@std@@@std@@IAEXPAU_Node@?$_Tree_nod@V?$_Tmap_traits@V?$basic_string@DU?$char_traits@D@std@@V?$allocator@D@2@@std@@PAUDxSkinPiece@@U?$less@V?$basic_string@DU?$char_traits@D@std@@V?$allocator@D@2@@std@@@2@V?$allocator@U?$pair@$$CBV?$basic_string@DU?$char_traits@D@std@@V?$allocator@D@2@@std@@PAUDxSkinPiece@@@std@@@2@$0A@@std@@@2@@Z 00437770 f i Lib_Engine:DxSkinPieceContainer.obj
 0001:000367b0       ?erase@?$_Tree@V?$_Tmap_traits@V?$basic_string@DU?$char_traits@D@std@@V?$allocator@D@2@@std@@PAUDxSkinPiece@@U?$less@V?$basic_string@DU?$char_traits@D@std@@V?$allocator@D@2@@std@@@2@V?$allocator@U?$pair@$$CBV?$basic_string@DU?$char_traits@D@std@@V?$allocator@D@2@@std@@PAUDxSkinPiece@@@std@@@2@$0A@@std@@@std@@QAE?AViterator@12@V312@0@Z 004377b0 f i Lib_Engine:DxSkinPieceContainer.obj
 0001:00036870       ??1DxSkinPiece@@QAE@XZ     00437870 f   Lib_Engine:DxSkinPieceContainer.obj
 0001:000369c0       ?ReleasePiece@DxSkinPieceContainer@@QAEJPBD@Z 004379c0 f   Lib_Engine:DxSkinPieceContainer.obj
 0001:00036ab0       ??1DxSkinPieceContainer@@UAE@XZ 00437ab0 f   Lib_Engine:DxSkinPieceContainer.obj
 0001:00036af0       ??0DxSkinPieceContainer@@IAE@XZ 00437af0 f   Lib_Engine:DxSkinPieceContainer.obj
 0001:00036b40       ??_GDxSkinPieceContainer@@UAEPAXI@Z 00437b40 f i Lib_Engine:DxSkinPieceContainer.obj
 0001:00036b40       ??_EDxSkinPieceContainer@@UAEPAXI@Z 00437b40 f i Lib_Engine:DxSkinPieceContainer.obj
 0001:00036b60       ?GetInstance@DxSkinPieceContainer@@SAAAV1@XZ 00437b60 f   Lib_Engine:DxSkinPieceContainer.obj
 0001:00036bc0       ?MAKE_UIMSG@@YAKEEEE@Z     00437bc0 f   Lib_Engine:UIControlMessage.obj
 0001:00036be0       ?_Min@?$_Tree@V?$_Tmap_traits@USWavFileKey@@PAUSWavFileData@@U?$less@USWavFileKey@@@std@@V?$allocator@U?$pair@$$CBUSWavFileKey@@PAUSWavFileData@@@std@@@4@$0A@@std@@@std@@KAPAU_Node@?$_Tree_nod@V?$_Tmap_traits@USWavFileKey@@PAUSWavFileData@@U?$less@USWavFileKey@@@std@@V?$allocator@U?$pair@$$CBUSWavFileKey@@PAUSWavFileData@@@std@@@4@$0A@@std@@@2@PAU342@@Z 00437be0 f i Lib_Engine:DxSoundMan.obj
 0001:00036be0       ?_Min@?$_Tree@V?$_Tmap_traits@V?$basic_string@DU?$char_traits@D@std@@V?$allocator@D@2@@std@@Uunz_file_pos_s@@U?$less@V?$basic_string@DU?$char_traits@D@std@@V?$allocator@D@2@@std@@@2@V?$allocator@U?$pair@$$CBV?$basic_string@DU?$char_traits@D@std@@V?$allocator@D@2@@std@@Uunz_file_pos_s@@@std@@@2@$0A@@std@@@std@@KAPAU_Node@?$_Tree_nod@V?$_Tmap_traits@V?$basic_string@DU?$char_traits@D@std@@V?$allocator@D@2@@std@@Uunz_file_pos_s@@U?$less@V?$basic_string@DU?$char_traits@D@std@@V?$allocator@D@2@@std@@@2@V?$allocator@U?$pair@$$CBV?$basic_string@DU?$char_traits@D@std@@V?$allocator@D@2@@std@@Uunz_file_pos_s@@@std@@@2@$0A@@std@@@2@PAU342@@Z 00437be0 f i Lib_Engine:Unzipper.obj
 0001:00036c00       ?_Rrotate@?$_Tree@V?$_Tmap_traits@V?$basic_string@DU?$char_traits@D@std@@V?$allocator@D@2@@std@@Uunz_file_pos_s@@U?$less@V?$basic_string@DU?$char_traits@D@std@@V?$allocator@D@2@@std@@@2@V?$allocator@U?$pair@$$CBV?$basic_string@DU?$char_traits@D@std@@V?$allocator@D@2@@std@@Uunz_file_pos_s@@@std@@@2@$0A@@std@@@std@@IAEXPAU_Node@?$_Tree_nod@V?$_Tmap_traits@V?$basic_string@DU?$char_traits@D@std@@V?$allocator@D@2@@std@@Uunz_file_pos_s@@U?$less@V?$basic_string@DU?$char_traits@D@std@@V?$allocator@D@2@@std@@@2@V?$allocator@U?$pair@$$CBV?$basic_string@DU?$char_traits@D@std@@V?$allocator@D@2@@std@@Uunz_file_pos_s@@@std@@@2@$0A@@std@@@2@@Z 00437c00 f i Lib_Engine:Unzipper.obj
 0001:00036c00       ?_Rrotate@?$_Tree@V?$_Tmap_traits@USWavFileKey@@PAUSWavFileData@@U?$less@USWavFileKey@@@std@@V?$allocator@U?$pair@$$CBUSWavFileKey@@PAUSWavFileData@@@std@@@4@$0A@@std@@@std@@IAEXPAU_Node@?$_Tree_nod@V?$_Tmap_traits@USWavFileKey@@PAUSWavFileData@@U?$less@USWavFileKey@@@std@@V?$allocator@U?$pair@$$CBUSWavFileKey@@PAUSWavFileData@@@std@@@4@$0A@@std@@@2@@Z 00437c00 f i Lib_Engine:DxSoundMan.obj
 0001:00036c60       ?_Buynode@?$_Tree@V?$_Tmap_traits@USWavFileKey@@PAUSWavFileData@@U?$less@USWavFileKey@@@std@@V?$allocator@U?$pair@$$CBUSWavFileKey@@PAUSWavFileData@@@std@@@4@$0A@@std@@@std@@IAEPAU_Node@?$_Tree_nod@V?$_Tmap_traits@USWavFileKey@@PAUSWavFileData@@U?$less@USWavFileKey@@@std@@V?$allocator@U?$pair@$$CBUSWavFileKey@@PAUSWavFileData@@@std@@@4@$0A@@std@@@2@XZ 00437c60 f i Lib_Engine:DxSoundMan.obj
 0001:00036c60       ?_Buynode@?$_Tree@V?$_Tmap_traits@V?$basic_string@DU?$char_traits@D@std@@V?$allocator@D@2@@std@@Uunz_file_pos_s@@U?$less@V?$basic_string@DU?$char_traits@D@std@@V?$allocator@D@2@@std@@@2@V?$allocator@U?$pair@$$CBV?$basic_string@DU?$char_traits@D@std@@V?$allocator@D@2@@std@@Uunz_file_pos_s@@@std@@@2@$0A@@std@@@std@@IAEPAU_Node@?$_Tree_nod@V?$_Tmap_traits@V?$basic_string@DU?$char_traits@D@std@@V?$allocator@D@2@@std@@Uunz_file_pos_s@@U?$less@V?$basic_string@DU?$char_traits@D@std@@V?$allocator@D@2@@std@@@2@V?$allocator@U?$pair@$$CBV?$basic_string@DU?$char_traits@D@std@@V?$allocator@D@2@@std@@Uunz_file_pos_s@@@std@@@2@$0A@@std@@@2@XZ 00437c60 f i Lib_Engine:Unzipper.obj
 0001:00036ca0       ?erase@?$_Tree@V?$_Tmap_traits@V?$basic_string@DU?$char_traits@D@std@@V?$allocator@D@2@@std@@Uunz_file_pos_s@@U?$less@V?$basic_string@DU?$char_traits@D@std@@V?$allocator@D@2@@std@@@2@V?$allocator@U?$pair@$$CBV?$basic_string@DU?$char_traits@D@std@@V?$allocator@D@2@@std@@Uunz_file_pos_s@@@std@@@2@$0A@@std@@@std@@QAE?AViterator@12@V312@@Z 00437ca0 f i Lib_Engine:Unzipper.obj
 0001:00036f80       ?_Erase@?$_Tree@V?$_Tmap_traits@V?$basic_string@DU?$char_traits@D@std@@V?$allocator@D@2@@std@@Uunz_file_pos_s@@U?$less@V?$basic_string@DU?$char_traits@D@std@@V?$allocator@D@2@@std@@@2@V?$allocator@U?$pair@$$CBV?$basic_string@DU?$char_traits@D@std@@V?$allocator@D@2@@std@@Uunz_file_pos_s@@@std@@@2@$0A@@std@@@std@@IAEXPAU_Node@?$_Tree_nod@V?$_Tmap_traits@V?$basic_string@DU?$char_traits@D@std@@V?$allocator@D@2@@std@@Uunz_file_pos_s@@U?$less@V?$basic_string@DU?$char_traits@D@std@@V?$allocator@D@2@@std@@@2@V?$allocator@U?$pair@$$CBV?$basic_string@DU?$char_traits@D@std@@V?$allocator@D@2@@std@@Uunz_file_pos_s@@@std@@@2@$0A@@std@@@2@@Z 00437f80 f i Lib_Engine:Unzipper.obj
 0001:00036fc0       ?erase@?$_Tree@V?$_Tmap_traits@V?$basic_string@DU?$char_traits@D@std@@V?$allocator@D@2@@std@@Uunz_file_pos_s@@U?$less@V?$basic_string@DU?$char_traits@D@std@@V?$allocator@D@2@@std@@@2@V?$allocator@U?$pair@$$CBV?$basic_string@DU?$char_traits@D@std@@V?$allocator@D@2@@std@@Uunz_file_pos_s@@@std@@@2@$0A@@std@@@std@@QAE?AViterator@12@V312@0@Z 00437fc0 f i Lib_Engine:Unzipper.obj
 0001:00037080       ??1?$map@V?$basic_string@DU?$char_traits@D@std@@V?$allocator@D@2@@std@@Uunz_file_pos_s@@U?$less@V?$basic_string@DU?$char_traits@D@std@@V?$allocator@D@2@@std@@@2@V?$allocator@U?$pair@$$CBV?$basic_string@DU?$char_traits@D@std@@V?$allocator@D@2@@std@@Uunz_file_pos_s@@@std@@@2@@std@@QAE@XZ 00438080 f i Lib_Engine:Unzipper.obj
 0001:000370b0       ??0?$map@V?$basic_string@DU?$char_traits@D@std@@V?$allocator@D@2@@std@@Uunz_file_pos_s@@U?$less@V?$basic_string@DU?$char_traits@D@std@@V?$allocator@D@2@@std@@@2@V?$allocator@U?$pair@$$CBV?$basic_string@DU?$char_traits@D@std@@V?$allocator@D@2@@std@@Uunz_file_pos_s@@@std@@@2@@std@@QAE@XZ 004380b0 f i Lib_Engine:Unzipper.obj
 0001:000370e0       ??0IMethod@@QAE@XZ         004380e0 f   Lib_Engine:Method.obj
 0001:000370f0       ??1IMethod@@UAE@XZ         004380f0 f   Lib_Engine:Method.obj
 0001:00037100       ??_EIMethod@@UAEPAXI@Z     00438100 f i Lib_Engine:Method.obj
 0001:00037100       ??_GIMethod@@UAEPAXI@Z     00438100 f i Lib_Engine:Method.obj
 0001:00037120       ?Xor@IMethod@@IAEXPADPBD@Z 00438120 f   Lib_Engine:Method.obj
 0001:000371b0       ?Pad@IMethod@@QAEHPADH@Z   004381b0 f   Lib_Engine:Method.obj
 0001:00037290       ?RENDERSPHERE@EDITMESHS@@YAXPAUIDirect3DDevice9@@U_D3DVECTOR@@MPAUD3DXMATRIX@@K@Z 00438290 f   Lib_Engine:EditMeshs.obj
 0001:00037430       ??1ANIMCONTNODE@@QAE@XZ    00438430 f   Lib_Engine:DxSkinAniControl.obj
 0001:00037450       ?_Buynode@?$list@PAUANIMCONTNODE@@V?$allocator@PAUANIMCONTNODE@@@std@@@std@@IAEPAU_Node@?$_List_nod@PAUANIMCONTNODE@@V?$allocator@PAUANIMCONTNODE@@@std@@@2@XZ 00438450 f i Lib_Engine:DxSkinAniControl.obj
 0001:00037450       ?_Buynode@?$list@PAVSFileHandle@@V?$allocator@PAVSFileHandle@@@std@@@std@@IAEPAU_Node@?$_List_nod@PAVSFileHandle@@V?$allocator@PAVSFileHandle@@@std@@@2@XZ 00438450 f i Lib_Engine:SFileSystem.obj
 0001:00037470       ?clear@?$list@PAVSFileHandle@@V?$allocator@PAVSFileHandle@@@std@@@std@@QAEXXZ 00438470 f i Lib_Engine:SFileSystem.obj
 0001:00037470       ?clear@?$list@PAUANIMCONTNODE@@V?$allocator@PAUANIMCONTNODE@@@std@@@std@@QAEXXZ 00438470 f i Lib_Engine:DxSkinAniControl.obj
 0001:000374b0       ??$for_each@Viterator@?$list@PAUANIMCONTNODE@@V?$allocator@PAUANIMCONTNODE@@@std@@@std@@UDeleteObject@?$CMemPool@UANIMCONTNODE@@@@@std@@YA?AUDeleteObject@?$CMemPool@UANIMCONTNODE@@@@Viterator@?$list@PAUANIMCONTNODE@@V?$allocator@PAUANIMCONTNODE@@@std@@@0@0U12@@Z 004384b0 f i Lib_Engine:DxSkinAniControl.obj
 0001:000374f0       ??1?$list@PAVSFileHandle@@V?$allocator@PAVSFileHandle@@@std@@@std@@QAE@XZ 004384f0 f i Lib_Engine:SFileSystem.obj
 0001:000374f0       ??1?$list@PAUANIMCONTNODE@@V?$allocator@PAUANIMCONTNODE@@@std@@@std@@QAE@XZ 004384f0 f i Lib_Engine:DxSkinAniControl.obj
 0001:00037510       ??0?$CMemPool@UANIMCONTNODE@@@@QAE@XZ 00438510 f i Lib_Engine:DxSkinAniControl.obj
 0001:00037540       ??1?$CMemPool@UANIMCONTNODE@@@@QAE@XZ 00438540 f i Lib_Engine:DxSkinAniControl.obj
 0001:000375b0       ??1DxWeatherMan@@QAE@XZ    004385b0 f   Lib_Engine:DxWeatherMan.obj
 0001:00037630       ?InitDeviceObjects@DxWeatherMan@@UAEJPAUIDirect3DDevice9@@@Z 00438630 f   Lib_Engine:DxWeatherMan.obj
 0001:00037660       ?InvalidateDeviceObjects@DxWeatherMan@@UAEJPAUIDirect3DDevice9@@@Z 00438660 f   Lib_Engine:DxWeatherMan.obj
 0001:00037660       ?RestoreDeviceObjects@DxWeatherMan@@UAEJPAUIDirect3DDevice9@@@Z 00438660 f   Lib_Engine:DxWeatherMan.obj
 0001:00037680       ?DeleteDeviceObjects@DxWeatherMan@@UAEJXZ 00438680 f   Lib_Engine:DxWeatherMan.obj
 0001:00037690       ?Render@DxWeatherMan@@UAEJPAUIDirect3DDevice9@@@Z 00438690 f   Lib_Engine:DxWeatherMan.obj
 0001:000376b0       ??0DxWeatherMan@@QAE@XZ    004386b0 f   Lib_Engine:DxWeatherMan.obj
 0001:00037760       ?FrameMove@DxWeatherMan@@UAEJMM@Z 00438760 f   Lib_Engine:DxWeatherMan.obj
 0001:00037940       ??1_Node@?$_List_nod@U?$pair@$$CBV?$basic_string@DU?$char_traits@D@std@@V?$allocator@D@2@@std@@PAUSSoundEx@@@std@@V?$allocator@U?$pair@$$CBV?$basic_string@DU?$char_traits@D@std@@V?$allocator@D@2@@std@@PAUSSoundEx@@@std@@@2@@std@@QAE@XZ 00438940 f i Lib_Engine:DxSoundLib.obj
 0001:00037940       ??1SPOSTEXT@CDebugSet@@QAE@XZ 00438940 f i Lib_Engine:DebugSet.obj
 0001:00037950       ??_GSSoundEx@@UAEPAXI@Z    00438950 f i Lib_Engine:DxSoundLib.obj
 0001:00037950       ??_ESSoundEx@@UAEPAXI@Z    00438950 f i Lib_Engine:DxSoundLib.obj
 0001:00037970       ??1SSoundEx@@UAE@XZ        00438970 f i Lib_Engine:DxSoundLib.obj
 0001:00037980       ?_Xlen@?$vector@Viterator@?$list@U?$pair@$$CBV?$basic_string@DU?$char_traits@D@std@@V?$allocator@D@2@@std@@PAUSSoundEx@@@std@@V?$allocator@U?$pair@$$CBV?$basic_string@DU?$char_traits@D@std@@V?$allocator@D@2@@std@@PAUSSoundEx@@@std@@@2@@std@@V?$allocator@Viterator@?$list@U?$pair@$$CBV?$basic_string@DU?$char_traits@D@std@@V?$allocator@D@2@@std@@PAUSSoundEx@@@std@@V?$allocator@U?$pair@$$CBV?$basic_string@DU?$char_traits@D@std@@V?$allocator@D@2@@std@@PAUSSoundEx@@@std@@@2@@std@@@3@@std@@IBEXXZ 00438980 f i Lib_Engine:DxSoundLib.obj
 0001:00037a00       ??$make_pair@V?$basic_string@DU?$char_traits@D@std@@V?$allocator@D@2@@std@@PAUSSoundEx@@@std@@YA?AU?$pair@V?$basic_string@DU?$char_traits@D@std@@V?$allocator@D@2@@std@@PAUSSoundEx@@@0@V?$basic_string@DU?$char_traits@D@std@@V?$allocator@D@2@@0@PAUSSoundEx@@@Z 00438a00 f i Lib_Engine:DxSoundLib.obj
 0001:00037a70       ??$_Uninit_copy@Viterator@?$vector@HV?$allocator@H@std@@@std@@PAHV?$allocator@H@3@@std@@YAPAHViterator@?$vector@HV?$allocator@H@std@@@0@0PAHAAV?$allocator@H@0@U_Nonscalar_ptr_iterator_tag@0@@Z 00438a70 f i Lib_Network:s_CClientManager.obj
 0001:00037a70       ??$_Uninit_copy@PAViterator@?$list@U?$pair@$$CBV?$basic_string@DU?$char_traits@D@std@@V?$allocator@D@2@@std@@PAUSSoundEx@@@std@@V?$allocator@U?$pair@$$CBV?$basic_string@DU?$char_traits@D@std@@V?$allocator@D@2@@std@@PAUSSoundEx@@@std@@@2@@std@@PAV123@V?$allocator@Viterator@?$list@U?$pair@$$CBV?$basic_string@DU?$char_traits@D@std@@V?$allocator@D@2@@std@@PAUSSoundEx@@@std@@V?$allocator@U?$pair@$$CBV?$basic_string@DU?$char_traits@D@std@@V?$allocator@D@2@@std@@PAUSSoundEx@@@std@@@2@@std@@@3@@std@@YAPAViterator@?$list@U?$pair@$$CBV?$basic_string@DU?$char_traits@D@std@@V?$allocator@D@2@@std@@PAUSSoundEx@@@std@@V?$allocator@U?$pair@$$CBV?$basic_string@DU?$char_traits@D@std@@V?$allocator@D@2@@std@@PAUSSoundEx@@@std@@@2@@0@PAV120@00AAV?$allocator@Viterator@?$list@U?$pair@$$CBV?$basic_string@DU?$char_traits@D@std@@V?$allocator@D@2@@std@@PAUSSoundEx@@@std@@V?$allocator@U?$pair@$$CBV?$basic_string@DU?$char_traits@D@std@@V?$allocator@D@2@@std@@PAUSSoundEx@@@std@@@2@@std@@@0@U_Nonscalar_ptr_iterator_tag@0@@Z 00438a70 f i Lib_Engine:DxSoundLib.obj
 0001:00037a70       ??$_Uninit_copy@PAViterator@?$list@U?$pair@$$CBKUPETSKILL@@@std@@V?$allocator@U?$pair@$$CBKUPETSKILL@@@std@@@2@@std@@PAV123@V?$allocator@Viterator@?$list@U?$pair@$$CBKUPETSKILL@@@std@@V?$allocator@U?$pair@$$CBKUPETSKILL@@@std@@@2@@std@@@3@@std@@YAPAViterator@?$list@U?$pair@$$CBKUPETSKILL@@@std@@V?$allocator@U?$pair@$$CBKUPETSKILL@@@std@@@2@@0@PAV120@00AAV?$allocator@Viterator@?$list@U?$pair@$$CBKUPETSKILL@@@std@@V?$allocator@U?$pair@$$CBKUPETSKILL@@@std@@@2@@std@@@0@U_Nonscalar_ptr_iterator_tag@0@@Z 00438a70 f i Lib_Network:s_COdbcGamePet.obj
 0001:00037aa0       ?_Incsize@?$list@U?$pair@$$CBV?$basic_string@DU?$char_traits@D@std@@V?$allocator@D@2@@std@@PAUSSoundEx@@@std@@V?$allocator@U?$pair@$$CBV?$basic_string@DU?$char_traits@D@std@@V?$allocator@D@2@@std@@PAUSSoundEx@@@std@@@2@@std@@IAEXI@Z 00438aa0 f i Lib_Engine:DxSoundLib.obj
 0001:00037b40       ?_Buynode@?$list@U?$pair@$$CBV?$basic_string@DU?$char_traits@D@std@@V?$allocator@D@2@@std@@PAUSSoundEx@@@std@@V?$allocator@U?$pair@$$CBV?$basic_string@DU?$char_traits@D@std@@V?$allocator@D@2@@std@@PAUSSoundEx@@@std@@@2@@std@@IAEPAU_Node@?$_List_nod@U?$pair@$$CBV?$basic_string@DU?$char_traits@D@std@@V?$allocator@D@2@@std@@PAUSSoundEx@@@std@@V?$allocator@U?$pair@$$CBV?$basic_string@DU?$char_traits@D@std@@V?$allocator@D@2@@std@@PAUSSoundEx@@@std@@@2@@2@XZ 00438b40 f i Lib_Engine:DxSoundLib.obj
 0001:00037b60       ?_Buynode@?$list@U?$pair@$$CBV?$basic_string@DU?$char_traits@D@std@@V?$allocator@D@2@@std@@PAUSSoundEx@@@std@@V?$allocator@U?$pair@$$CBV?$basic_string@DU?$char_traits@D@std@@V?$allocator@D@2@@std@@PAUSSoundEx@@@std@@@2@@std@@IAEPAU_Node@?$_List_nod@U?$pair@$$CBV?$basic_string@DU?$char_traits@D@std@@V?$allocator@D@2@@std@@PAUSSoundEx@@@std@@V?$allocator@U?$pair@$$CBV?$basic_string@DU?$char_traits@D@std@@V?$allocator@D@2@@std@@PAUSSoundEx@@@std@@@2@@2@PAU342@0ABU?$pair@$$CBV?$basic_string@DU?$char_traits@D@std@@V?$allocator@D@2@@std@@PAUSSoundEx@@@2@@Z 00438b60 f i Lib_Engine:DxSoundLib.obj
 0001:00037bf0       ??$_Uninit_fill_n@PAViterator@?$list@U?$pair@$$CBV?$basic_string@DU?$char_traits@D@std@@V?$allocator@D@2@@std@@PAUSSoundEx@@@std@@V?$allocator@U?$pair@$$CBV?$basic_string@DU?$char_traits@D@std@@V?$allocator@D@2@@std@@PAUSSoundEx@@@std@@@2@@std@@IV123@V?$allocator@Viterator@?$list@U?$pair@$$CBV?$basic_string@DU?$char_traits@D@std@@V?$allocator@D@2@@std@@PAUSSoundEx@@@std@@V?$allocator@U?$pair@$$CBV?$basic_string@DU?$char_traits@D@std@@V?$allocator@D@2@@std@@PAUSSoundEx@@@std@@@2@@std@@@3@@std@@YAXPAViterator@?$list@U?$pair@$$CBV?$basic_string@DU?$char_traits@D@std@@V?$allocator@D@2@@std@@PAUSSoundEx@@@std@@V?$allocator@U?$pair@$$CBV?$basic_string@DU?$char_traits@D@std@@V?$allocator@D@2@@std@@PAUSSoundEx@@@std@@@2@@0@IABV120@AAV?$allocator@Viterator@?$list@U?$pair@$$CBV?$basic_string@DU?$char_traits@D@std@@V?$allocator@D@2@@std@@PAUSSoundEx@@@std@@V?$allocator@U?$pair@$$CBV?$basic_string@DU?$char_traits@D@std@@V?$allocator@D@2@@std@@PAUSSoundEx@@@std@@@2@@std@@@0@U_Nonscalar_ptr_iterator_tag@0@@Z 00438bf0 f i Lib_Engine:DxSoundLib.obj
 0001:00037bf0       ??$_Uninit_fill_n@PAViterator@?$list@U?$pair@$$CBKUPETSKILL@@@std@@V?$allocator@U?$pair@$$CBKUPETSKILL@@@std@@@2@@std@@IV123@V?$allocator@Viterator@?$list@U?$pair@$$CBKUPETSKILL@@@std@@V?$allocator@U?$pair@$$CBKUPETSKILL@@@std@@@2@@std@@@3@@std@@YAXPAViterator@?$list@U?$pair@$$CBKUPETSKILL@@@std@@V?$allocator@U?$pair@$$CBKUPETSKILL@@@std@@@2@@0@IABV120@AAV?$allocator@Viterator@?$list@U?$pair@$$CBKUPETSKILL@@@std@@V?$allocator@U?$pair@$$CBKUPETSKILL@@@std@@@2@@std@@@0@U_Nonscalar_ptr_iterator_tag@0@@Z 00438bf0 f i Lib_Network:s_COdbcGamePet.obj
 0001:00037c20       ?lower_bound@?$_Hash@V?$_Hmap_traits@V?$basic_string@DU?$char_traits@D@std@@V?$allocator@D@2@@std@@PAUSSoundEx@@V?$hash_compare@V?$basic_string@DU?$char_traits@D@std@@V?$allocator@D@2@@std@@U?$less@V?$basic_string@DU?$char_traits@D@std@@V?$allocator@D@2@@std@@@2@@stdext@@V?$allocator@U?$pair@$$CBV?$basic_string@DU?$char_traits@D@std@@V?$allocator@D@2@@std@@PAUSSoundEx@@@std@@@2@$0A@@stdext@@@stdext@@QAE?AViterator@?$list@U?$pair@$$CBV?$basic_string@DU?$char_traits@D@std@@V?$allocator@D@2@@std@@PAUSSoundEx@@@std@@V?$allocator@U?$pair@$$CBV?$basic_string@DU?$char_traits@D@std@@V?$allocator@D@2@@std@@PAUSSoundEx@@@std@@@2@@std@@ABV?$basic_string@DU?$char_traits@D@std@@V?$allocator@D@2@@5@@Z 00438c20 f i Lib_Engine:DxSoundLib.obj
 0001:00037ce0       ?clear@?$list@U?$pair@$$CBV?$basic_string@DU?$char_traits@D@std@@V?$allocator@D@2@@std@@PAUSSoundEx@@@std@@V?$allocator@U?$pair@$$CBV?$basic_string@DU?$char_traits@D@std@@V?$allocator@D@2@@std@@PAUSSoundEx@@@std@@@2@@std@@QAEXXZ 00438ce0 f i Lib_Engine:DxSoundLib.obj
 0001:00037d20       ?_Ufill@?$vector@Viterator@?$list@U?$pair@$$CBV?$basic_string@DU?$char_traits@D@std@@V?$allocator@D@2@@std@@PAUSSoundEx@@@std@@V?$allocator@U?$pair@$$CBV?$basic_string@DU?$char_traits@D@std@@V?$allocator@D@2@@std@@PAUSSoundEx@@@std@@@2@@std@@V?$allocator@Viterator@?$list@U?$pair@$$CBV?$basic_string@DU?$char_traits@D@std@@V?$allocator@D@2@@std@@PAUSSoundEx@@@std@@V?$allocator@U?$pair@$$CBV?$basic_string@DU?$char_traits@D@std@@V?$allocator@D@2@@std@@PAUSSoundEx@@@std@@@2@@std@@@3@@std@@IAEPAViterator@?$list@U?$pair@$$CBV?$basic_string@DU?$char_traits@D@std@@V?$allocator@D@2@@std@@PAUSSoundEx@@@std@@V?$allocator@U?$pair@$$CBV?$basic_string@DU?$char_traits@D@std@@V?$allocator@D@2@@std@@PAUSSoundEx@@@std@@@2@@2@PAV342@IABV342@@Z 00438d20 f i Lib_Engine:DxSoundLib.obj
 0001:00037d20       ?_Ufill@?$vector@Viterator@?$list@U?$pair@$$CBKUPETSKILL@@@std@@V?$allocator@U?$pair@$$CBKUPETSKILL@@@std@@@2@@std@@V?$allocator@Viterator@?$list@U?$pair@$$CBKUPETSKILL@@@std@@V?$allocator@U?$pair@$$CBKUPETSKILL@@@std@@@2@@std@@@3@@std@@IAEPAViterator@?$list@U?$pair@$$CBKUPETSKILL@@@std@@V?$allocator@U?$pair@$$CBKUPETSKILL@@@std@@@2@@2@PAV342@IABV342@@Z 00438d20 f i Lib_Network:s_COdbcGamePet.obj
 0001:00037d50       ?erase@?$_Hash@V?$_Hmap_traits@V?$basic_string@DU?$char_traits@D@std@@V?$allocator@D@2@@std@@PAUSSoundEx@@V?$hash_compare@V?$basic_string@DU?$char_traits@D@std@@V?$allocator@D@2@@std@@U?$less@V?$basic_string@DU?$char_traits@D@std@@V?$allocator@D@2@@std@@@2@@stdext@@V?$allocator@U?$pair@$$CBV?$basic_string@DU?$char_traits@D@std@@V?$allocator@D@2@@std@@PAUSSoundEx@@@std@@@2@$0A@@stdext@@@stdext@@QAE?AViterator@?$list@U?$pair@$$CBV?$basic_string@DU?$char_traits@D@std@@V?$allocator@D@2@@std@@PAUSSoundEx@@@std@@V?$allocator@U?$pair@$$CBV?$basic_string@DU?$char_traits@D@std@@V?$allocator@D@2@@std@@PAUSSoundEx@@@std@@@2@@std@@V345@@Z 00438d50 f i Lib_Engine:DxSoundLib.obj
 0001:00037de0       ??1?$list@U?$pair@$$CBV?$basic_string@DU?$char_traits@D@std@@V?$allocator@D@2@@std@@PAUSSoundEx@@@std@@V?$allocator@U?$pair@$$CBV?$basic_string@DU?$char_traits@D@std@@V?$allocator@D@2@@std@@PAUSSoundEx@@@std@@@2@@std@@QAE@XZ 00438de0 f i Lib_Engine:DxSoundLib.obj
 0001:00037e00       ?erase@?$vector@Viterator@?$list@U?$pair@$$CBV?$basic_string@DU?$char_traits@D@std@@V?$allocator@D@2@@std@@PAUSSoundEx@@@std@@V?$allocator@U?$pair@$$CBV?$basic_string@DU?$char_traits@D@std@@V?$allocator@D@2@@std@@PAUSSoundEx@@@std@@@2@@std@@V?$allocator@Viterator@?$list@U?$pair@$$CBV?$basic_string@DU?$char_traits@D@std@@V?$allocator@D@2@@std@@PAUSSoundEx@@@std@@V?$allocator@U?$pair@$$CBV?$basic_string@DU?$char_traits@D@std@@V?$allocator@D@2@@std@@PAUSSoundEx@@@std@@@2@@std@@@3@@std@@QAE?AViterator@12@V312@0@Z 00438e00 f i Lib_Engine:DxSoundLib.obj
 0001:00037e00       ?erase@?$vector@Viterator@?$list@U?$pair@$$CBKUPETSKILL@@@std@@V?$allocator@U?$pair@$$CBKUPETSKILL@@@std@@@2@@std@@V?$allocator@Viterator@?$list@U?$pair@$$CBKUPETSKILL@@@std@@V?$allocator@U?$pair@$$CBKUPETSKILL@@@std@@@2@@std@@@3@@std@@QAE?AViterator@12@V312@0@Z 00438e00 f i Lib_Network:s_COdbcGamePet.obj
 0001:00037e40       ?_Insert_n@?$vector@Viterator@?$list@U?$pair@$$CBV?$basic_string@DU?$char_traits@D@std@@V?$allocator@D@2@@std@@PAUSSoundEx@@@std@@V?$allocator@U?$pair@$$CBV?$basic_string@DU?$char_traits@D@std@@V?$allocator@D@2@@std@@PAUSSoundEx@@@std@@@2@@std@@V?$allocator@Viterator@?$list@U?$pair@$$CBV?$basic_string@DU?$char_traits@D@std@@V?$allocator@D@2@@std@@PAUSSoundEx@@@std@@V?$allocator@U?$pair@$$CBV?$basic_string@DU?$char_traits@D@std@@V?$allocator@D@2@@std@@PAUSSoundEx@@@std@@@2@@std@@@3@@std@@IAEXViterator@12@IABV3?$list@U?$pair@$$CBV?$basic_string@DU?$char_traits@D@std@@V?$allocator@D@2@@std@@PAUSSoundEx@@@std@@V?$allocator@U?$pair@$$CBV?$basic_string@DU?$char_traits@D@std@@V?$allocator@D@2@@std@@PAUSSoundEx@@@std@@@2@@2@@Z 00438e40 f i Lib_Engine:DxSoundLib.obj
 0001:00038080       ?_Construct_n@?$vector@Viterator@?$list@U?$pair@$$CBV?$basic_string@DU?$char_traits@D@std@@V?$allocator@D@2@@std@@PAUSSoundEx@@@std@@V?$allocator@U?$pair@$$CBV?$basic_string@DU?$char_traits@D@std@@V?$allocator@D@2@@std@@PAUSSoundEx@@@std@@@2@@std@@V?$allocator@Viterator@?$list@U?$pair@$$CBV?$basic_string@DU?$char_traits@D@std@@V?$allocator@D@2@@std@@PAUSSoundEx@@@std@@V?$allocator@U?$pair@$$CBV?$basic_string@DU?$char_traits@D@std@@V?$allocator@D@2@@std@@PAUSSoundEx@@@std@@@2@@std@@@3@@std@@QAEXIABViterator@?$list@U?$pair@$$CBV?$basic_string@DU?$char_traits@D@std@@V?$allocator@D@2@@std@@PAUSSoundEx@@@std@@V?$allocator@U?$pair@$$CBV?$basic_string@DU?$char_traits@D@std@@V?$allocator@D@2@@std@@PAUSSoundEx@@@std@@@2@@2@@Z 00439080 f i Lib_Engine:DxSoundLib.obj
 0001:00038130       ?ReleaseSound@DxSoundLib@@QAE_NV?$basic_string@DU?$char_traits@D@std@@V?$allocator@D@2@@std@@@Z 00439130 f   Lib_Engine:DxSoundLib.obj
 0001:000381e0       ?PlaySoundA@DxSoundLib@@QAE_NV?$basic_string@DU?$char_traits@D@std@@V?$allocator@D@2@@std@@@Z 004391e0 f   Lib_Engine:DxSoundLib.obj
 0001:00038310       ?StopSound@DxSoundLib@@QAE_NV?$basic_string@DU?$char_traits@D@std@@V?$allocator@D@2@@std@@@Z 00439310 f   Lib_Engine:DxSoundLib.obj
 0001:000383b0       ?resize@?$vector@Viterator@?$list@U?$pair@$$CBV?$basic_string@DU?$char_traits@D@std@@V?$allocator@D@2@@std@@PAUSSoundEx@@@std@@V?$allocator@U?$pair@$$CBV?$basic_string@DU?$char_traits@D@std@@V?$allocator@D@2@@std@@PAUSSoundEx@@@std@@@2@@std@@V?$allocator@Viterator@?$list@U?$pair@$$CBV?$basic_string@DU?$char_traits@D@std@@V?$allocator@D@2@@std@@PAUSSoundEx@@@std@@V?$allocator@U?$pair@$$CBV?$basic_string@DU?$char_traits@D@std@@V?$allocator@D@2@@std@@PAUSSoundEx@@@std@@@2@@std@@@3@@std@@QAEXIViterator@?$list@U?$pair@$$CBV?$basic_string@DU?$char_traits@D@std@@V?$allocator@D@2@@std@@PAUSSoundEx@@@std@@V?$allocator@U?$pair@$$CBV?$basic_string@DU?$char_traits@D@std@@V?$allocator@D@2@@std@@PAUSSoundEx@@@std@@@2@@2@@Z 004393b0 f i Lib_Engine:DxSoundLib.obj
 0001:00038420       ?insert@?$_Hash@V?$_Hmap_traits@V?$basic_string@DU?$char_traits@D@std@@V?$allocator@D@2@@std@@PAUSSoundEx@@V?$hash_compare@V?$basic_string@DU?$char_traits@D@std@@V?$allocator@D@2@@std@@U?$less@V?$basic_string@DU?$char_traits@D@std@@V?$allocator@D@2@@std@@@2@@stdext@@V?$allocator@U?$pair@$$CBV?$basic_string@DU?$char_traits@D@std@@V?$allocator@D@2@@std@@PAUSSoundEx@@@std@@@2@$0A@@stdext@@@stdext@@QAE?AU?$pair@Viterator@?$list@U?$pair@$$CBV?$basic_string@DU?$char_traits@D@std@@V?$allocator@D@2@@std@@PAUSSoundEx@@@std@@V?$allocator@U?$pair@$$CBV?$basic_string@DU?$char_traits@D@std@@V?$allocator@D@2@@std@@PAUSSoundEx@@@std@@@2@@std@@_N@std@@ABU?$pair@$$CBV?$basic_string@DU?$char_traits@D@std@@V?$allocator@D@2@@std@@PAUSSoundEx@@@4@@Z 00439420 f i Lib_Engine:DxSoundLib.obj
 0001:00038710       ??0?$_Hash@V?$_Hmap_traits@V?$basic_string@DU?$char_traits@D@std@@V?$allocator@D@2@@std@@PAUSSoundEx@@V?$hash_compare@V?$basic_string@DU?$char_traits@D@std@@V?$allocator@D@2@@std@@U?$less@V?$basic_string@DU?$char_traits@D@std@@V?$allocator@D@2@@std@@@2@@stdext@@V?$allocator@U?$pair@$$CBV?$basic_string@DU?$char_traits@D@std@@V?$allocator@D@2@@std@@PAUSSoundEx@@@std@@@2@$0A@@stdext@@@stdext@@QAE@ABV?$hash_compare@V?$basic_string@DU?$char_traits@D@std@@V?$allocator@D@2@@std@@U?$less@V?$basic_string@DU?$char_traits@D@std@@V?$allocator@D@2@@std@@@2@@1@ABV?$allocator@U?$pair@$$CBV?$basic_string@DU?$char_traits@D@std@@V?$allocator@D@2@@std@@PAUSSoundEx@@@std@@@std@@@Z 00439710 f i Lib_Engine:DxSoundLib.obj
 0001:00038790       ??1?$hash_map@V?$basic_string@DU?$char_traits@D@std@@V?$allocator@D@2@@std@@PAUSSoundEx@@V?$hash_compare@V?$basic_string@DU?$char_traits@D@std@@V?$allocator@D@2@@std@@U?$less@V?$basic_string@DU?$char_traits@D@std@@V?$allocator@D@2@@std@@@2@@stdext@@V?$allocator@U?$pair@$$CBV?$basic_string@DU?$char_traits@D@std@@V?$allocator@D@2@@std@@PAUSSoundEx@@@std@@@2@@stdext@@QAE@XZ 00439790 f i Lib_Engine:DxSoundLib.obj
 0001:000387d0       ?CreateSound@DxSoundLib@@QAE_NV?$basic_string@DU?$char_traits@D@std@@V?$allocator@D@2@@std@@0H_N@Z 004397d0 f   Lib_Engine:DxSoundLib.obj
 0001:00038990       ?ReleaseAllSound@DxSoundLib@@QAE_NXZ 00439990 f   Lib_Engine:DxSoundLib.obj
 0001:00038a40       ??1DxSoundLib@@EAE@XZ      00439a40 f   Lib_Engine:DxSoundLib.obj
 0001:00038ac0       ??_GDxSoundLib@@EAEPAXI@Z  00439ac0 f i Lib_Engine:DxSoundLib.obj
 0001:00038ac0       ??_EDxSoundLib@@EAEPAXI@Z  00439ac0 f i Lib_Engine:DxSoundLib.obj
 0001:00038ae0       ?GetInstance@DxSoundLib@@SAPAV1@XZ 00439ae0 f   Lib_Engine:DxSoundLib.obj
 0001:00038b60       ?IsOffLight@GLPeriod@@QAEHXZ 00439b60 f i Lib_Engine:DxShadowMap.obj
 0001:00038bd0       ?Create@DxObject@@UAEJPAUIDirect3DDevice9@@@Z 00439bd0 f i Lib_Engine:DxViewPort.obj
 0001:00038c20       ?CleanUp@DxObject@@UAEJXZ  00439c20 f i Lib_Engine:DxViewPort.obj
 0001:00038c40       ?CollisionMap@DxViewPort@@QAE_NABUD3DXVECTOR3@@0AAU2@@Z 00439c40 f   Lib_Engine:DxViewPort.obj
 0001:00038ce0       ?Calculate@?$DxDamper@M@@QAEMMM@Z 00439ce0 f i Lib_Engine:DxViewPort.obj
 0001:00038d20       ??0DxViewPort@@IAE@XZ      00439d20 f   Lib_Engine:DxViewPort.obj
 0001:00038f90       ?InitDeviceObjects@DxViewPort@@UAEJPAUIDirect3DDevice9@@PAUHWND__@@@Z 00439f90 f i Lib_Engine:DxViewPort.obj
 0001:00038fb0       ??1DxViewPort@@UAE@XZ      00439fb0 f   Lib_Engine:DxViewPort.obj
 0001:00038fc0       ?SetViewTrans@DxViewPort@@QAEJAAUD3DXVECTOR3@@00@Z 00439fc0 f   Lib_Engine:DxViewPort.obj
 0001:00039080       ?CameraMove@DxViewPort@@QAEXAAUD3DXVECTOR3@@@Z 0043a080 f   Lib_Engine:DxViewPort.obj
 0001:00039210       ?CameraRotation@DxViewPort@@QAEXAAUD3DXVECTOR3@@H@Z 0043a210 f   Lib_Engine:DxViewPort.obj
 0001:000395c0       ?ComputeBoundBox@DxViewPort@@QAEXPAUD3DXVECTOR3@@@Z 0043a5c0 f   Lib_Engine:DxViewPort.obj
 0001:00039800       ?ComputeUpVecter@DxViewPort@@QAE?AUD3DXVECTOR3@@ABU2@0@Z 0043a800 f   Lib_Engine:DxViewPort.obj
 0001:00039960       ?ComputeClipPoint@DxViewPort@@QAEXXZ 0043a960 f   Lib_Engine:DxViewPort.obj
 0001:00039c10       ?ComputeClipVolume@DxViewPort@@QAEXAAUCLIPVOLUME@@@Z 0043ac10 f   Lib_Engine:DxViewPort.obj
 0001:0003a370       ?GetMouseTargetPosWnd@DxViewPort@@QAEHAAUD3DXVECTOR3@@@Z 0043b370 f   Lib_Engine:DxViewPort.obj
 0001:0003a600       ?Calculate@?$DxDamper@UD3DXVECTOR3@@@@QAE?AUD3DXVECTOR3@@U2@M@Z 0043b600 f i Lib_Engine:DxViewPort.obj
 0001:0003a6c0       ??_GDxViewPort@@UAEPAXI@Z  0043b6c0 f i Lib_Engine:DxViewPort.obj
 0001:0003a6c0       ??_EDxViewPort@@UAEPAXI@Z  0043b6c0 f i Lib_Engine:DxViewPort.obj
 0001:0003a6e0       ?CameraZoom@DxViewPort@@QAEXM@Z 0043b6e0 f   Lib_Engine:DxViewPort.obj
 0001:0003ab40       ?FrameMove@DxViewPort@@UAEJMM@Z 0043bb40 f   Lib_Engine:DxViewPort.obj
 0001:0003b0a0       ?GetInstance@DxViewPort@@SAAAV1@XZ 0043c0a0 f   Lib_Engine:DxViewPort.obj
 0001:0003b0e0       ?HoldCursor@DxInputDevice@@QAEXXZ 0043c0e0 f   Lib_Engine:DxInputDevice.obj
 0001:0003b110       ?_Max@?$_Tree@V?$_Tset_traits@EU?$less@E@std@@V?$allocator@E@2@$0A@@std@@@std@@KAPAU_Node@?$_Tree_nod@V?$_Tset_traits@EU?$less@E@std@@V?$allocator@E@2@$0A@@std@@@2@PAU342@@Z 0043c110 f i Lib_Engine:DxInputDevice.obj
 0001:0003b130       ?_Min@?$_Tree@V?$_Tset_traits@EU?$less@E@std@@V?$allocator@E@2@$0A@@std@@@std@@KAPAU_Node@?$_Tree_nod@V?$_Tset_traits@EU?$less@E@std@@V?$allocator@E@2@$0A@@std@@@2@PAU342@@Z 0043c130 f i Lib_Engine:DxInputDevice.obj
 0001:0003b150       ?_Rrotate@?$_Tree@V?$_Tset_traits@EU?$less@E@std@@V?$allocator@E@2@$0A@@std@@@std@@IAEXPAU_Node@?$_Tree_nod@V?$_Tset_traits@EU?$less@E@std@@V?$allocator@E@2@$0A@@std@@@2@@Z 0043c150 f i Lib_Engine:DxInputDevice.obj
 0001:0003b1b0       ?_Inc@const_iterator@?$_Tree@V?$_Tset_traits@EU?$less@E@std@@V?$allocator@E@2@$0A@@std@@@std@@QAEXXZ 0043c1b0 f i Lib_Engine:DxInputDevice.obj
 0001:0003b210       ?_Lrotate@?$_Tree@V?$_Tset_traits@EU?$less@E@std@@V?$allocator@E@2@$0A@@std@@@std@@IAEXPAU_Node@?$_Tree_nod@V?$_Tset_traits@EU?$less@E@std@@V?$allocator@E@2@$0A@@std@@@2@@Z 0043c210 f i Lib_Engine:DxInputDevice.obj
 0001:0003b270       ?_Erase@?$_Tree@V?$_Tset_traits@EU?$less@E@std@@V?$allocator@E@2@$0A@@std@@@std@@IAEXPAU_Node@?$_Tree_nod@V?$_Tset_traits@EU?$less@E@std@@V?$allocator@E@2@$0A@@std@@@2@@Z 0043c270 f i Lib_Engine:DxInputDevice.obj
 0001:0003b2b0       ?_Buynode@?$_Tree@V?$_Tset_traits@EU?$less@E@std@@V?$allocator@E@2@$0A@@std@@@std@@IAEPAU_Node@?$_Tree_nod@V?$_Tset_traits@EU?$less@E@std@@V?$allocator@E@2@$0A@@std@@@2@XZ 0043c2b0 f i Lib_Engine:DxInputDevice.obj
 0001:0003b2f0       ?erase@?$_Tree@V?$_Tset_traits@EU?$less@E@std@@V?$allocator@E@2@$0A@@std@@@std@@QAE?AViterator@12@V312@@Z 0043c2f0 f i Lib_Engine:DxInputDevice.obj
 0001:0003b5c0       ?erase@?$_Tree@V?$_Tset_traits@EU?$less@E@std@@V?$allocator@E@2@$0A@@std@@@std@@QAE?AViterator@12@V312@0@Z 0043c5c0 f i Lib_Engine:DxInputDevice.obj
 0001:0003b680       ??1?$set@EU?$less@E@std@@V?$allocator@E@2@@std@@QAE@XZ 0043c680 f i Lib_Engine:DxInputDevice.obj
 0001:0003b6b0       ??1DxInputDevice@@UAE@XZ   0043c6b0 f   Lib_Engine:DxInputDevice.obj
 0001:0003b760       ??0DxInputDevice@@IAE@XZ   0043c760 f   Lib_Engine:DxInputDevice.obj
 0001:0003b860       ??_EDxInputDevice@@UAEPAXI@Z 0043c860 f i Lib_Engine:DxInputDevice.obj
 0001:0003b860       ??_GDxInputDevice@@UAEPAXI@Z 0043c860 f i Lib_Engine:DxInputDevice.obj
 0001:0003b880       ?GetInstance@DxInputDevice@@SAAAV1@XZ 0043c880 f   Lib_Engine:DxInputDevice.obj
 0001:0003b8e0       ?SetShowCursor@CCursor@@QAEXH@Z 0043c8e0 f   Lib_Engine:Cursor.obj
 0001:0003b930       ??0CCursor@@IAE@XZ         0043c930 f   Lib_Engine:Cursor.obj
 0001:0003ba40       ??1CCursor@@QAE@XZ         0043ca40 f   Lib_Engine:Cursor.obj
 0001:0003bb00       ?GetInstance@CCursor@@SAAAV1@XZ 0043cb00 f   Lib_Engine:Cursor.obj
 0001:0003bb60       ??1DXLIGHT@@UAE@XZ         0043cb60 f i Lib_Engine:DxLightMan.obj
 0001:0003bb90       ??_EDXLIGHT@@UAEPAXI@Z     0043cb90 f i Lib_Engine:DxLightMan.obj
 0001:0003bb90       ??_GDXLIGHT@@UAEPAXI@Z     0043cb90 f i Lib_Engine:DxLightMan.obj
 0001:0003bbd0       ??_GDXLIGHTNODE@@QAEPAXI@Z 0043cbd0 f i Lib_Engine:DxLightMan.obj
 0001:0003bc20       ?COLORBLEND@?A0xd5b261f9@@YA?AU_D3DCOLORVALUE@@ABU2@0M@Z 0043cc20 f   Lib_Engine:DxLightMan.obj
 0001:0003bca0       ?InitDeviceObjects@DxLightMan@@UAEJPAUIDirect3DDevice9@@@Z 0043cca0 f   Lib_Engine:DxLightMan.obj
 0001:0003bd70       ?LogDatabaseProc@CSessionServer@@UAEHXZ 0043cd70 f   Lib_Network:s_CSessionServer.obj
 0001:0003bd70       ?DeleteDeviceObjects@DxLightMan@@UAEJXZ 0043cd70 f   Lib_Engine:DxLightMan.obj
 0001:0003bd70       ?ToText@TiXmlNode@@UAEPAVTiXmlText@@XZ 0043cd70 f   Lib_Network:s_CWhiteRockXML.obj
 0001:0003bd70       ?ToUnknown@TiXmlNode@@UAEPAVTiXmlUnknown@@XZ 0043cd70 f   Lib_Network:s_CWhiteRockXML.obj
 0001:0003bd70       ?ToDeclaration@TiXmlNode@@UBEPBVTiXmlDeclaration@@XZ 0043cd70 f   Lib_Network:s_CWhiteRockXML.obj
 0001:0003bd70       ?ToDocument@TiXmlNode@@UAEPAVTiXmlDocument@@XZ 0043cd70 f   Lib_Engine:tinyxml.obj
 0001:0003bd70       ?ToComment@TiXmlNode@@UAEPAVTiXmlComment@@XZ 0043cd70 f   Lib_Network:s_CWhiteRockXML.obj
 0001:0003bd70       ?ToUnknown@TiXmlNode@@UBEPBVTiXmlUnknown@@XZ 0043cd70 f   Lib_Network:s_CWhiteRockXML.obj
 0001:0003bd70       ?InvalidateDeviceObjects@DxObject@@UAEJXZ 0043cd70 f   Lib_Engine:DxViewPort.obj
 0001:0003bd70       ?ToDocument@TiXmlNode@@UBEPBVTiXmlDocument@@XZ 0043cd70 f   Lib_Engine:tinyxml.obj
 0001:0003bd70       ?OneTimeSceneInit@DxObject@@UAEJXZ 0043cd70 f   Lib_Engine:DxViewPort.obj
 0001:0003bd70       ?ToElement@TiXmlNode@@UBEPBVTiXmlElement@@XZ 0043cd70 f   Lib_Network:s_CWhiteRockXML.obj
 0001:0003bd70       ?DeleteDeviceObjects@DxObject@@UAEJXZ 0043cd70 f   Lib_Engine:DxViewPort.obj
 0001:0003bd70       ?ToElement@TiXmlNode@@UAEPAVTiXmlElement@@XZ 0043cd70 f   Lib_Network:s_CWhiteRockXML.obj
 0001:0003bd70       ?ToDeclaration@TiXmlNode@@UAEPAVTiXmlDeclaration@@XZ 0043cd70 f   Lib_Network:s_CWhiteRockXML.obj
 0001:0003bd70       ?ToComment@TiXmlNode@@UBEPBVTiXmlComment@@XZ 0043cd70 f   Lib_Network:s_CWhiteRockXML.obj
 0001:0003bd70       ?FinalCleanup@DxObject@@UAEJXZ 0043cd70 f   Lib_Engine:DxViewPort.obj
 0001:0003bd70       ?DefaultFindFunc@?$CMList@PAUINFO@CDebugSet@@@@KAHPAXAAPAUINFO@CDebugSet@@@Z 0043cd70 f   Lib_Engine:DebugSet.obj
 0001:0003bd70       ?ToText@TiXmlNode@@UBEPBVTiXmlText@@XZ 0043cd70 f   Lib_Network:s_CWhiteRockXML.obj
 0001:0003bd70       ?WebDatabaseProc@CSessionServer@@UAEHXZ 0043cd70 f   Lib_Network:s_CSessionServer.obj
 0001:0003bd70       ?UserDatabaseProc@CSessionServer@@UAEHXZ 0043cd70 f   Lib_Network:s_CSessionServer.obj
 0001:0003bd80       ?IsCollisionVolume@DXLIGHTNODE@@QAEHAAUCLIPVOLUME@@@Z 0043cd80 f   Lib_Engine:DxLightMan.obj
 0001:0003c420       ?Clone2DPLight@DxLightMan@@QAEXXZ 0043d420 f   Lib_Engine:DxLightMan.obj
 0001:0003c470       ?_Max@?$_Tree@V?$_Tmap_traits@HHU?$less@H@std@@V?$allocator@U?$pair@$$CBHH@std@@@2@$0A@@std@@@std@@KAPAU_Node@?$_Tree_nod@V?$_Tmap_traits@HHU?$less@H@std@@V?$allocator@U?$pair@$$CBHH@std@@@2@$0A@@std@@@2@PAU342@@Z 0043d470 f i Lib_Network:s_CClientManager.obj
 0001:0003c470       ?_Max@?$_Tree@V?$_Tmap_traits@KKU?$less@K@std@@V?$allocator@U?$pair@$$CBKK@std@@@2@$00@std@@@std@@KAPAU_Node@?$_Tree_nod@V?$_Tmap_traits@KKU?$less@K@std@@V?$allocator@U?$pair@$$CBKK@std@@@2@$00@std@@@2@PAU342@@Z 0043d470 f i Lib_Client:GLQuestMan.obj
 0001:0003c470       ?_Max@?$_Tree@V?$_Tmap_traits@KUOBJQUADTemp@@U?$less@K@std@@V?$allocator@U?$pair@$$CBKUOBJQUADTemp@@@std@@@3@$0A@@std@@@std@@KAPAU_Node@?$_Tree_nod@V?$_Tmap_traits@KUOBJQUADTemp@@U?$less@K@std@@V?$allocator@U?$pair@$$CBKUOBJQUADTemp@@@std@@@3@$0A@@std@@@2@PAU342@@Z 0043d470 f i Lib_Engine:DxMapEditManThread.obj
 0001:0003c470       ?_Max@?$_Tree@V?$_Tmap_traits@MPAVDXLIGHT@@U?$less@M@std@@V?$allocator@U?$pair@$$CBMPAVDXLIGHT@@@std@@@3@$00@std@@@std@@KAPAU_Node@?$_Tree_nod@V?$_Tmap_traits@MPAVDXLIGHT@@U?$less@M@std@@V?$allocator@U?$pair@$$CBMPAVDXLIGHT@@@std@@@3@$00@std@@@2@PAU342@@Z 0043d470 f i Lib_Engine:DxLightMan.obj
 0001:0003c490       ??0DXLIGHT@@QAE@XZ         0043d490 f i Lib_Engine:DxLightMan.obj
 0001:0003c530       ?MakeAABBTree@DxLightMan@@IAEXPAPAVDXLIGHT@@KPAUDXLIGHTNODE@@ABUD3DXVECTOR3@@2@Z 0043d530 f   Lib_Engine:DxLightMan.obj
 0001:0003d470       ?_Lrotate@?$_Tree@V?$_Tmap_traits@U?$pair@GG@std@@PAUSINVENITEM@@U?$less@U?$pair@GG@std@@@2@V?$allocator@U?$pair@$$CBU?$pair@GG@std@@PAUSINVENITEM@@@std@@@2@$0A@@std@@@std@@IAEXPAU_Node@?$_Tree_nod@V?$_Tmap_traits@U?$pair@GG@std@@PAUSINVENITEM@@U?$less@U?$pair@GG@std@@@2@V?$allocator@U?$pair@$$CBU?$pair@GG@std@@PAUSINVENITEM@@@std@@@2@$0A@@std@@@2@@Z 0043e470 f i Lib_Client:GLInventory.obj
 0001:0003d470       ?_Lrotate@?$_Tree@V?$_Tmap_traits@KUOBJQUADTemp@@U?$less@K@std@@V?$allocator@U?$pair@$$CBKUOBJQUADTemp@@@std@@@3@$0A@@std@@@std@@IAEXPAU_Node@?$_Tree_nod@V?$_Tmap_traits@KUOBJQUADTemp@@U?$less@K@std@@V?$allocator@U?$pair@$$CBKUOBJQUADTemp@@@std@@@3@$0A@@std@@@2@@Z 0043e470 f i Lib_Engine:DxMapEditManThread.obj
 0001:0003d470       ?_Lrotate@?$_Tree@V?$_Tmap_traits@KKU?$less@K@std@@V?$allocator@U?$pair@$$CBKK@std@@@2@$00@std@@@std@@IAEXPAU_Node@?$_Tree_nod@V?$_Tmap_traits@KKU?$less@K@std@@V?$allocator@U?$pair@$$CBKK@std@@@2@$00@std@@@2@@Z 0043e470 f i Lib_Client:GLQuestMan.obj
 0001:0003d470       ?_Lrotate@?$_Tree@V?$_Tmap_traits@HHU?$less@H@std@@V?$allocator@U?$pair@$$CBHH@std@@@2@$0A@@std@@@std@@IAEXPAU_Node@?$_Tree_nod@V?$_Tmap_traits@HHU?$less@H@std@@V?$allocator@U?$pair@$$CBHH@std@@@2@$0A@@std@@@2@@Z 0043e470 f i Lib_Network:s_CClientManager.obj
 0001:0003d470       ?_Lrotate@?$_Tree@V?$_Tmap_traits@MPAVDXLIGHT@@U?$less@M@std@@V?$allocator@U?$pair@$$CBMPAVDXLIGHT@@@std@@@3@$00@std@@@std@@IAEXPAU_Node@?$_Tree_nod@V?$_Tmap_traits@MPAVDXLIGHT@@U?$less@M@std@@V?$allocator@U?$pair@$$CBMPAVDXLIGHT@@@std@@@3@$00@std@@@2@@Z 0043e470 f i Lib_Engine:DxLightMan.obj
 0001:0003d4d0       ?SetDefault@DXLIGHT@@QAEXXZ 0043e4d0 f i Lib_Engine:DxLightMan.obj
 0001:0003d5e0       ??4DXLIGHT@@QAEXABV0@@Z    0043e5e0 f i Lib_Engine:DxLightMan.obj
 0001:0003d670       ?FrameMove@DxLightMan@@UAEJMM@Z 0043e670 f   Lib_Engine:DxLightMan.obj
 0001:0003da70       ?MakeAABBTree@DxLightMan@@QAEXXZ 0043ea70 f   Lib_Engine:DxLightMan.obj
 0001:0003dd10       ?_Erase@?$_Tree@V?$_Tmap_traits@MPAVDXLIGHT@@U?$less@M@std@@V?$allocator@U?$pair@$$CBMPAVDXLIGHT@@@std@@@3@$00@std@@@std@@IAEXPAU_Node@?$_Tree_nod@V?$_Tmap_traits@MPAVDXLIGHT@@U?$less@M@std@@V?$allocator@U?$pair@$$CBMPAVDXLIGHT@@@std@@@3@$00@std@@@2@@Z 0043ed10 f i Lib_Engine:DxLightMan.obj
 0001:0003dd50       ?SerialData@DXLIGHT@@UAEXXZ 0043ed50 f   Lib_Engine:DxLightMan.obj
 0001:0003dd90       ?_Insert@?$_Tree@V?$_Tmap_traits@MPAVDXLIGHT@@U?$less@M@std@@V?$allocator@U?$pair@$$CBMPAVDXLIGHT@@@std@@@3@$00@std@@@std@@IAE?AViterator@12@_NPAU_Node@?$_Tree_nod@V?$_Tmap_traits@MPAVDXLIGHT@@U?$less@M@std@@V?$allocator@U?$pair@$$CBMPAVDXLIGHT@@@std@@@3@$00@std@@@2@ABU?$pair@$$CBMPAVDXLIGHT@@@2@@Z 0043ed90 f i Lib_Engine:DxLightMan.obj
 0001:0003df50       ?erase@?$_Tree@V?$_Tmap_traits@MPAVDXLIGHT@@U?$less@M@std@@V?$allocator@U?$pair@$$CBMPAVDXLIGHT@@@std@@@3@$00@std@@@std@@QAE?AViterator@12@V312@@Z 0043ef50 f i Lib_Engine:DxLightMan.obj
 0001:0003e220       ?insert@?$_Tree@V?$_Tmap_traits@MPAVDXLIGHT@@U?$less@M@std@@V?$allocator@U?$pair@$$CBMPAVDXLIGHT@@@std@@@3@$00@std@@@std@@QAE?AU?$pair@Viterator@?$_Tree@V?$_Tmap_traits@MPAVDXLIGHT@@U?$less@M@std@@V?$allocator@U?$pair@$$CBMPAVDXLIGHT@@@std@@@3@$00@std@@@std@@_N@2@ABU?$pair@$$CBMPAVDXLIGHT@@@2@@Z 0043f220 f i Lib_Engine:DxLightMan.obj
 0001:0003e290       ?erase@?$_Tree@V?$_Tmap_traits@MPAVDXLIGHT@@U?$less@M@std@@V?$allocator@U?$pair@$$CBMPAVDXLIGHT@@@std@@@3@$00@std@@@std@@QAE?AViterator@12@V312@0@Z 0043f290 f i Lib_Engine:DxLightMan.obj
 0001:0003e350       ?CleanUp@DxLightMan@@QAEXXZ 0043f350 f   Lib_Engine:DxLightMan.obj
 0001:0003e430       ?TreeRender@DxLightMan@@QAEXPAUDXLIGHTNODE@@PAUIDirect3DDevice9@@AAUCLIPVOLUME@@@Z 0043f430 f   Lib_Engine:DxLightMan.obj
 0001:0003e670       ?Render@DxLightMan@@UAEJPAUIDirect3DDevice9@@@Z 0043f670 f   Lib_Engine:DxLightMan.obj
 0001:0003ea60       ??1?$multimap@MPAVDXLIGHT@@U?$less@M@std@@V?$allocator@U?$pair@$$CBMPAVDXLIGHT@@@std@@@3@@std@@QAE@XZ 0043fa60 f i Lib_Engine:DxLightMan.obj
 0001:0003ea90       ??1DxLightMan@@UAE@XZ      0043fa90 f   Lib_Engine:DxLightMan.obj
 0001:0003ebb0       ??0DxLightMan@@QAE@XZ      0043fbb0 f   Lib_Engine:DxLightMan.obj
 0001:0003ee00       ??_GDxLightMan@@UAEPAXI@Z  0043fe00 f i Lib_Engine:DxLightMan.obj
 0001:0003ee00       ??_EDxLightMan@@UAEPAXI@Z  0043fe00 f i Lib_Engine:DxLightMan.obj
 0001:0003ee20       ?_Tidy@?$vector@USSTRING@NS_UITEXTUTIL@@V?$allocator@USSTRING@NS_UITEXTUTIL@@@std@@@std@@IAEXXZ 0043fe20 f i Lib_Engine:UITextUtil.obj
 0001:0003ee70       ?Getguid3DAlgorithm@DxSoundMan@@QAE?AU_GUID@@XZ 0043fe70 f i Lib_Engine:DxSoundMan.obj
 0001:0003eea0       ??_GSWavFileData@@QAEPAXI@Z 0043fea0 f i Lib_Engine:DxSoundMan.obj
 0001:0003eee0       ?IsMapMute@DxSoundMan@@QAEHXZ 0043fee0 f   Lib_Engine:DxSoundMan.obj
 0001:0003ef00       ?IsSfxMute@DxSoundMan@@QAEHXZ 0043ff00 f   Lib_Engine:DxSoundMan.obj
 0001:0003ef20       ?_Max@?$_Tree@V?$_Tmap_traits@V?$basic_string@DU?$char_traits@D@std@@V?$allocator@D@2@@std@@Uunz_file_pos_s@@U?$less@V?$basic_string@DU?$char_traits@D@std@@V?$allocator@D@2@@std@@@2@V?$allocator@U?$pair@$$CBV?$basic_string@DU?$char_traits@D@std@@V?$allocator@D@2@@std@@Uunz_file_pos_s@@@std@@@2@$0A@@std@@@std@@KAPAU_Node@?$_Tree_nod@V?$_Tmap_traits@V?$basic_string@DU?$char_traits@D@std@@V?$allocator@D@2@@std@@Uunz_file_pos_s@@U?$less@V?$basic_string@DU?$char_traits@D@std@@V?$allocator@D@2@@std@@@2@V?$allocator@U?$pair@$$CBV?$basic_string@DU?$char_traits@D@std@@V?$allocator@D@2@@std@@Uunz_file_pos_s@@@std@@@2@$0A@@std@@@2@PAU342@@Z 0043ff20 f i Lib_Engine:Unzipper.obj
 0001:0003ef20       ?_Max@?$_Tree@V?$_Tmap_traits@USWavFileKey@@PAUSWavFileData@@U?$less@USWavFileKey@@@std@@V?$allocator@U?$pair@$$CBUSWavFileKey@@PAUSWavFileData@@@std@@@4@$0A@@std@@@std@@KAPAU_Node@?$_Tree_nod@V?$_Tmap_traits@USWavFileKey@@PAUSWavFileData@@U?$less@USWavFileKey@@@std@@V?$allocator@U?$pair@$$CBUSWavFileKey@@PAUSWavFileData@@@std@@@4@$0A@@std@@@2@PAU342@@Z 0043ff20 f i Lib_Engine:DxSoundMan.obj
 0001:0003ef40       ?_Dec@const_iterator@?$_Tree@V?$_Tmap_traits@USWavFileKey@@PAUSWavFileData@@U?$less@USWavFileKey@@@std@@V?$allocator@U?$pair@$$CBUSWavFileKey@@PAUSWavFileData@@@std@@@4@$0A@@std@@@std@@QAEXXZ 0043ff40 f i Lib_Engine:DxSoundMan.obj
 0001:0003efa0       ??$?0USWavFileKey@@PAUSWavFileData@@@?$pair@$$CBUSWavFileKey@@PAUSWavFileData@@@std@@QAE@ABU?$pair@USWavFileKey@@PAUSWavFileData@@@1@@Z 0043ffa0 f i Lib_Engine:DxSoundMan.obj
 0001:0003efd0       ?_Lrotate@?$_Tree@V?$_Tmap_traits@V?$basic_string@DU?$char_traits@D@std@@V?$allocator@D@2@@std@@Uunz_file_pos_s@@U?$less@V?$basic_string@DU?$char_traits@D@std@@V?$allocator@D@2@@std@@@2@V?$allocator@U?$pair@$$CBV?$basic_string@DU?$char_traits@D@std@@V?$allocator@D@2@@std@@Uunz_file_pos_s@@@std@@@2@$0A@@std@@@std@@IAEXPAU_Node@?$_Tree_nod@V?$_Tmap_traits@V?$basic_string@DU?$char_traits@D@std@@V?$allocator@D@2@@std@@Uunz_file_pos_s@@U?$less@V?$basic_string@DU?$char_traits@D@std@@V?$allocator@D@2@@std@@@2@V?$allocator@U?$pair@$$CBV?$basic_string@DU?$char_traits@D@std@@V?$allocator@D@2@@std@@Uunz_file_pos_s@@@std@@@2@$0A@@std@@@2@@Z 0043ffd0 f i Lib_Engine:Unzipper.obj
 0001:0003efd0       ?_Lrotate@?$_Tree@V?$_Tmap_traits@USWavFileKey@@PAUSWavFileData@@U?$less@USWavFileKey@@@std@@V?$allocator@U?$pair@$$CBUSWavFileKey@@PAUSWavFileData@@@std@@@4@$0A@@std@@@std@@IAEXPAU_Node@?$_Tree_nod@V?$_Tmap_traits@USWavFileKey@@PAUSWavFileData@@U?$less@USWavFileKey@@@std@@V?$allocator@U?$pair@$$CBUSWavFileKey@@PAUSWavFileData@@@std@@@4@$0A@@std@@@2@@Z 0043ffd0 f i Lib_Engine:DxSoundMan.obj
 0001:0003f030       ?_Lbound@?$_Tree@V?$_Tmap_traits@USWavFileKey@@PAUSWavFileData@@U?$less@USWavFileKey@@@std@@V?$allocator@U?$pair@$$CBUSWavFileKey@@PAUSWavFileData@@@std@@@4@$0A@@std@@@std@@IBEPAU_Node@?$_Tree_nod@V?$_Tmap_traits@USWavFileKey@@PAUSWavFileData@@U?$less@USWavFileKey@@@std@@V?$allocator@U?$pair@$$CBUSWavFileKey@@PAUSWavFileData@@@std@@@4@$0A@@std@@@2@ABUSWavFileKey@@@Z 00440030 f i Lib_Engine:DxSoundMan.obj
 0001:0003f080       ??$make_pair@USWavFileKey@@PAUSWavFileData@@@std@@YA?AU?$pair@USWavFileKey@@PAUSWavFileData@@@0@USWavFileKey@@PAUSWavFileData@@@Z 00440080 f i Lib_Engine:DxSoundMan.obj
 0001:0003f0f0       ?_Buynode@?$_Tree@V?$_Tmap_traits@USWavFileKey@@PAUSWavFileData@@U?$less@USWavFileKey@@@std@@V?$allocator@U?$pair@$$CBUSWavFileKey@@PAUSWavFileData@@@std@@@4@$0A@@std@@@std@@IAEPAU_Node@?$_Tree_nod@V?$_Tmap_traits@USWavFileKey@@PAUSWavFileData@@U?$less@USWavFileKey@@@std@@V?$allocator@U?$pair@$$CBUSWavFileKey@@PAUSWavFileData@@@std@@@4@$0A@@std@@@2@PAU342@00ABU?$pair@$$CBUSWavFileKey@@PAUSWavFileData@@@2@D@Z 004400f0 f i Lib_Engine:DxSoundMan.obj
 0001:0003f1a0       ?find@?$_Tree@V?$_Tmap_traits@USWavFileKey@@PAUSWavFileData@@U?$less@USWavFileKey@@@std@@V?$allocator@U?$pair@$$CBUSWavFileKey@@PAUSWavFileData@@@std@@@4@$0A@@std@@@std@@QAE?AViterator@12@ABUSWavFileKey@@@Z 004401a0 f i Lib_Engine:DxSoundMan.obj
 0001:0003f200       ?_Insert@?$_Tree@V?$_Tmap_traits@USWavFileKey@@PAUSWavFileData@@U?$less@USWavFileKey@@@std@@V?$allocator@U?$pair@$$CBUSWavFileKey@@PAUSWavFileData@@@std@@@4@$0A@@std@@@std@@IAE?AViterator@12@_NPAU_Node@?$_Tree_nod@V?$_Tmap_traits@USWavFileKey@@PAUSWavFileData@@U?$less@USWavFileKey@@@std@@V?$allocator@U?$pair@$$CBUSWavFileKey@@PAUSWavFileData@@@std@@@4@$0A@@std@@@2@ABU?$pair@$$CBUSWavFileKey@@PAUSWavFileData@@@2@@Z 00440200 f i Lib_Engine:DxSoundMan.obj
 0001:0003f3c0       ?IsLoadedWav@DxSoundMan@@QAE_NV?$basic_string@DU?$char_traits@D@std@@V?$allocator@D@2@@std@@_N@Z 004403c0 f   Lib_Engine:DxSoundMan.obj
 0001:0003f4a0       ?insert@?$_Tree@V?$_Tmap_traits@USWavFileKey@@PAUSWavFileData@@U?$less@USWavFileKey@@@std@@V?$allocator@U?$pair@$$CBUSWavFileKey@@PAUSWavFileData@@@std@@@4@$0A@@std@@@std@@QAE?AU?$pair@Viterator@?$_Tree@V?$_Tmap_traits@USWavFileKey@@PAUSWavFileData@@U?$less@USWavFileKey@@@std@@V?$allocator@U?$pair@$$CBUSWavFileKey@@PAUSWavFileData@@@std@@@4@$0A@@std@@@std@@_N@2@ABU?$pair@$$CBUSWavFileKey@@PAUSWavFileData@@@2@@Z 004404a0 f i Lib_Engine:DxSoundMan.obj
 0001:0003f580       ?erase@?$_Tree@V?$_Tmap_traits@USWavFileKey@@PAUSWavFileData@@U?$less@USWavFileKey@@@std@@V?$allocator@U?$pair@$$CBUSWavFileKey@@PAUSWavFileData@@@std@@@4@$0A@@std@@@std@@QAE?AViterator@12@V312@@Z 00440580 f i Lib_Engine:DxSoundMan.obj
 0001:0003f860       ?_Erase@?$_Tree@V?$_Tmap_traits@USWavFileKey@@PAUSWavFileData@@U?$less@USWavFileKey@@@std@@V?$allocator@U?$pair@$$CBUSWavFileKey@@PAUSWavFileData@@@std@@@4@$0A@@std@@@std@@IAEXPAU_Node@?$_Tree_nod@V?$_Tmap_traits@USWavFileKey@@PAUSWavFileData@@U?$less@USWavFileKey@@@std@@V?$allocator@U?$pair@$$CBUSWavFileKey@@PAUSWavFileData@@@std@@@4@$0A@@std@@@2@@Z 00440860 f i Lib_Engine:DxSoundMan.obj
 0001:0003f8a0       ?LoadWav@DxSoundMan@@QAEPAVCSound@@V?$basic_string@DU?$char_traits@D@std@@V?$allocator@D@2@@std@@_N@Z 004408a0 f   Lib_Engine:DxSoundMan.obj
 0001:0003fb50       ?ReleaseWav@DxSoundMan@@QAEJV?$basic_string@DU?$char_traits@D@std@@V?$allocator@D@2@@std@@_N@Z 00440b50 f   Lib_Engine:DxSoundMan.obj
 0001:0003fc90       ?erase@?$_Tree@V?$_Tmap_traits@USWavFileKey@@PAUSWavFileData@@U?$less@USWavFileKey@@@std@@V?$allocator@U?$pair@$$CBUSWavFileKey@@PAUSWavFileData@@@std@@@4@$0A@@std@@@std@@QAE?AViterator@12@V312@0@Z 00440c90 f i Lib_Engine:DxSoundMan.obj
 0001:0003fd50       ?DeleteAllWav@DxSoundMan@@QAEXXZ 00440d50 f   Lib_Engine:DxSoundMan.obj
 0001:0003fdf0       ??1?$map@USWavFileKey@@PAUSWavFileData@@U?$less@USWavFileKey@@@std@@V?$allocator@U?$pair@$$CBUSWavFileKey@@PAUSWavFileData@@@std@@@4@@std@@QAE@XZ 00440df0 f i Lib_Engine:DxSoundMan.obj
 0001:0003fe20       ??1DxSoundMan@@EAE@XZ      00440e20 f   Lib_Engine:DxSoundMan.obj
 0001:0003feb0       ??0DxSoundMan@@AAE@XZ      00440eb0 f   Lib_Engine:DxSoundMan.obj
 0001:0003ff90       ??_EDxSoundMan@@EAEPAXI@Z  00440f90 f i Lib_Engine:DxSoundMan.obj
 0001:0003ff90       ??_GDxSoundMan@@EAEPAXI@Z  00440f90 f i Lib_Engine:DxSoundMan.obj
 0001:0003ffb0       ?GetInstance@DxSoundMan@@SAAAV1@XZ 00440fb0 f   Lib_Engine:DxSoundMan.obj
 0001:00040010       ??1SFileHandle@@UAE@XZ     00441010 f   Lib_Engine:SFileSystem.obj
 0001:00040030       ??_ESFileHandle@@UAEPAXI@Z 00441030 f i Lib_Engine:SFileSystem.obj
 0001:00040030       ??_GSFileHandle@@UAEPAXI@Z 00441030 f i Lib_Engine:SFileSystem.obj
 0001:00040070       ?CloseFileSystem@SFileSystem@@QAEXXZ 00441070 f   Lib_Engine:SFileSystem.obj
 0001:00040130       ??1SFileSystem@@UAE@XZ     00441130 f   Lib_Engine:SFileSystem.obj
 0001:000401b0       ??0SFileSystem@@QAE@XZ     004411b0 f   Lib_Engine:SFileSystem.obj
 0001:00040240       ??_GSFileSystem@@UAEPAXI@Z 00441240 f i Lib_Engine:SFileSystem.obj
 0001:00040240       ??_ESFileSystem@@UAEPAXI@Z 00441240 f i Lib_Engine:SFileSystem.obj
 0001:00040260       ?IsLeadChar@CHARSET@@YA_ND@Z 00441260 f   Lib_Engine:charset.obj
 0001:00040280       ??0CSHA@@QAE@XZ            00441280 f   Lib_Engine:SHA.obj
 0001:000402d0       ?Transform@CSHA@@AAEXXZ    004412d0 f   Lib_Engine:SHA.obj
 0001:00042c80       ?AddData@CSHA@@QAEXPBDH@Z  00443c80 f   Lib_Engine:SHA.obj
 0001:00042de0       ?FinalDigest@CSHA@@QAEXPAD@Z 00443de0 f   Lib_Engine:SHA.obj
 0001:00043010       ??0CDoubleBuffering@@QAE@AAV?$basic_ifstream@DU?$char_traits@D@std@@@std@@PADHH@Z 00444010 f   Lib_Engine:DoubleBuffering.obj
 0001:00043170       ?GetData@CDoubleBuffering@@QAEHPADH@Z 00444170 f   Lib_Engine:DoubleBuffering.obj
 0001:000433f0       ??0TextureContainer@TextureManager@@QAE@XZ 004443f0 f   Lib_Engine:TextureManager.obj
 0001:00043430       ?GetTextureFilePath@TextureContainer@TextureManager@@QAE?AV?$basic_string@DU?$char_traits@D@std@@V?$allocator@D@2@@std@@PBDAAH@Z 00444430 f   Lib_Engine:TextureManager.obj
 0001:00043660       ?LoadImageData@TextureContainer@TextureManager@@IAEJPAUIDirect3DDevice9@@H@Z 00444660 f   Lib_Engine:TextureManager.obj
 0001:00043d40       ?_Min@?$_Tree@V?$_Tmap_traits@V?$basic_string@DU?$char_traits@D@std@@V?$allocator@D@2@@std@@KU?$less@V?$basic_string@DU?$char_traits@D@std@@V?$allocator@D@2@@std@@@2@V?$allocator@U?$pair@$$CBV?$basic_string@DU?$char_traits@D@std@@V?$allocator@D@2@@std@@K@std@@@2@$0A@@std@@@std@@KAPAU_Node@?$_Tree_nod@V?$_Tmap_traits@V?$basic_string@DU?$char_traits@D@std@@V?$allocator@D@2@@std@@KU?$less@V?$basic_string@DU?$char_traits@D@std@@V?$allocator@D@2@@std@@@2@V?$allocator@U?$pair@$$CBV?$basic_string@DU?$char_traits@D@std@@V?$allocator@D@2@@std@@K@std@@@2@$0A@@std@@@2@PAU342@@Z 00444d40 f i Lib_Engine:TextureManager.obj
 0001:00043d40       ?_Min@?$_Tree@V?$_Tmap_traits@V?$basic_string@DU?$char_traits@D@std@@V?$allocator@D@2@@std@@PAUDxSkinPiece@@U?$less@V?$basic_string@DU?$char_traits@D@std@@V?$allocator@D@2@@std@@@2@V?$allocator@U?$pair@$$CBV?$basic_string@DU?$char_traits@D@std@@V?$allocator@D@2@@std@@PAUDxSkinPiece@@@std@@@2@$0A@@std@@@std@@KAPAU_Node@?$_Tree_nod@V?$_Tmap_traits@V?$basic_string@DU?$char_traits@D@std@@V?$allocator@D@2@@std@@PAUDxSkinPiece@@U?$less@V?$basic_string@DU?$char_traits@D@std@@V?$allocator@D@2@@std@@@2@V?$allocator@U?$pair@$$CBV?$basic_string@DU?$char_traits@D@std@@V?$allocator@D@2@@std@@PAUDxSkinPiece@@@std@@@2@$0A@@std@@@2@PAU342@@Z 00444d40 f i Lib_Engine:DxSkinPieceContainer.obj
 0001:00043d40       ?_Min@?$_Tree@V?$_Tmap_traits@V?$basic_string@DU?$char_traits@D@std@@V?$allocator@D@2@@std@@PAVDxSimMesh@@U?$less@V?$basic_string@DU?$char_traits@D@std@@V?$allocator@D@2@@std@@@2@V?$allocator@U?$pair@$$CBV?$basic_string@DU?$char_traits@D@std@@V?$allocator@D@2@@std@@PAVDxSimMesh@@@std@@@2@$0A@@std@@@std@@KAPAU_Node@?$_Tree_nod@V?$_Tmap_traits@V?$basic_string@DU?$char_traits@D@std@@V?$allocator@D@2@@std@@PAVDxSimMesh@@U?$less@V?$basic_string@DU?$char_traits@D@std@@V?$allocator@D@2@@std@@@2@V?$allocator@U?$pair@$$CBV?$basic_string@DU?$char_traits@D@std@@V?$allocator@D@2@@std@@PAVDxSimMesh@@@std@@@2@$0A@@std@@@2@PAU342@@Z 00444d40 f i Lib_Engine:DxSimpleMeshMan.obj
 0001:00043d40       ?_Min@?$_Tree@V?$_Tmap_traits@V?$basic_string@DU?$char_traits@D@std@@V?$allocator@D@2@@std@@PAUSTATICDATA@NSSTATICMESH@@U?$less@V?$basic_string@DU?$char_traits@D@std@@V?$allocator@D@2@@std@@@2@V?$allocator@U?$pair@$$CBV?$basic_string@DU?$char_traits@D@std@@V?$allocator@D@2@@std@@PAUSTATICDATA@NSSTATICMESH@@@std@@@2@$0A@@std@@@std@@KAPAU_Node@?$_Tree_nod@V?$_Tmap_traits@V?$basic_string@DU?$char_traits@D@std@@V?$allocator@D@2@@std@@PAUSTATICDATA@NSSTATICMESH@@U?$less@V?$basic_string@DU?$char_traits@D@std@@V?$allocator@D@2@@std@@@2@V?$allocator@U?$pair@$$CBV?$basic_string@DU?$char_traits@D@std@@V?$allocator@D@2@@std@@PAUSTATICDATA@NSSTATICMESH@@@std@@@2@$0A@@std@@@2@PAU342@@Z 00444d40 f i Lib_Engine:DxStaticMesh.obj
 0001:00043d40       ?_Min@?$_Tree@V?$_Tmap_traits@V?$basic_string@DU?$char_traits@D@std@@V?$allocator@D@2@@std@@PAVTextureContainer@TextureManager@@U?$less@V?$basic_string@DU?$char_traits@D@std@@V?$allocator@D@2@@std@@@2@V?$allocator@U?$pair@$$CBV?$basic_string@DU?$char_traits@D@std@@V?$allocator@D@2@@std@@PAVTextureContainer@TextureManager@@@std@@@2@$0A@@std@@@std@@KAPAU_Node@?$_Tree_nod@V?$_Tmap_traits@V?$basic_string@DU?$char_traits@D@std@@V?$allocator@D@2@@std@@PAVTextureContainer@TextureManager@@U?$less@V?$basic_string@DU?$char_traits@D@std@@V?$allocator@D@2@@std@@@2@V?$allocator@U?$pair@$$CBV?$basic_string@DU?$char_traits@D@std@@V?$allocator@D@2@@std@@PAVTextureContainer@TextureManager@@@std@@@2@$0A@@std@@@2@PAU342@@Z 00444d40 f i Lib_Engine:TextureManager.obj
 0001:00043d60       ?_Dec@const_iterator@?$_Tree@V?$_Tmap_traits@V?$basic_string@DU?$char_traits@D@std@@V?$allocator@D@2@@std@@KU?$less@V?$basic_string@DU?$char_traits@D@std@@V?$allocator@D@2@@std@@@2@V?$allocator@U?$pair@$$CBV?$basic_string@DU?$char_traits@D@std@@V?$allocator@D@2@@std@@K@std@@@2@$0A@@std@@@std@@QAEXXZ 00444d60 f i Lib_Engine:TextureManager.obj
 0001:00043d60       ?_Dec@const_iterator@?$_Tree@V?$_Tmap_traits@V?$basic_string@DU?$char_traits@D@std@@V?$allocator@D@2@@std@@PAVTextureContainer@TextureManager@@U?$less@V?$basic_string@DU?$char_traits@D@std@@V?$allocator@D@2@@std@@@2@V?$allocator@U?$pair@$$CBV?$basic_string@DU?$char_traits@D@std@@V?$allocator@D@2@@std@@PAVTextureContainer@TextureManager@@@std@@@2@$0A@@std@@@std@@QAEXXZ 00444d60 f i Lib_Engine:TextureManager.obj
 0001:00043dc0       ?_Inc@const_iterator@?$_Tree@V?$_Tmap_traits@V?$basic_string@DU?$char_traits@D@std@@V?$allocator@D@2@@std@@PAUDxSkinPiece@@U?$less@V?$basic_string@DU?$char_traits@D@std@@V?$allocator@D@2@@std@@@2@V?$allocator@U?$pair@$$CBV?$basic_string@DU?$char_traits@D@std@@V?$allocator@D@2@@std@@PAUDxSkinPiece@@@std@@@2@$0A@@std@@@std@@QAEXXZ 00444dc0 f i Lib_Engine:DxSkinPieceContainer.obj
 0001:00043dc0       ?_Inc@const_iterator@?$_Tree@V?$_Tmap_traits@V?$basic_string@DU?$char_traits@D@std@@V?$allocator@D@2@@std@@PAVDxSimMesh@@U?$less@V?$basic_string@DU?$char_traits@D@std@@V?$allocator@D@2@@std@@@2@V?$allocator@U?$pair@$$CBV?$basic_string@DU?$char_traits@D@std@@V?$allocator@D@2@@std@@PAVDxSimMesh@@@std@@@2@$0A@@std@@@std@@QAEXXZ 00444dc0 f i Lib_Engine:DxSimpleMeshMan.obj
 0001:00043dc0       ?_Inc@const_iterator@?$_Tree@V?$_Tmap_traits@V?$basic_string@DU?$char_traits@D@std@@V?$allocator@D@2@@std@@PAUSTATICDATA@NSSTATICMESH@@U?$less@V?$basic_string@DU?$char_traits@D@std@@V?$allocator@D@2@@std@@@2@V?$allocator@U?$pair@$$CBV?$basic_string@DU?$char_traits@D@std@@V?$allocator@D@2@@std@@PAUSTATICDATA@NSSTATICMESH@@@std@@@2@$0A@@std@@@std@@QAEXXZ 00444dc0 f i Lib_Engine:DxStaticMesh.obj
 0001:00043dc0       ?_Inc@const_iterator@?$_Tree@V?$_Tmap_traits@V?$basic_string@DU?$char_traits@D@std@@V?$allocator@D@2@@std@@KU?$less@V?$basic_string@DU?$char_traits@D@std@@V?$allocator@D@2@@std@@@2@V?$allocator@U?$pair@$$CBV?$basic_string@DU?$char_traits@D@std@@V?$allocator@D@2@@std@@K@std@@@2@$0A@@std@@@std@@QAEXXZ 00444dc0 f i Lib_Engine:TextureManager.obj
 0001:00043dc0       ?_Inc@const_iterator@?$_Tree@V?$_Tmap_traits@V?$basic_string@DU?$char_traits@D@std@@V?$allocator@D@2@@std@@PAVTextureContainer@TextureManager@@U?$less@V?$basic_string@DU?$char_traits@D@std@@V?$allocator@D@2@@std@@@2@V?$allocator@U?$pair@$$CBV?$basic_string@DU?$char_traits@D@std@@V?$allocator@D@2@@std@@PAVTextureContainer@TextureManager@@@std@@@2@$0A@@std@@@std@@QAEXXZ 00444dc0 f i Lib_Engine:TextureManager.obj
 0001:00043e20       ??1TextureContainer@TextureManager@@QAE@XZ 00444e20 f   Lib_Engine:TextureManager.obj
 0001:00043f20       ?LoadTexture@TextureContainer@TextureManager@@QAEJPBDPAUIDirect3DDevice9@@KK@Z 00444f20 f   Lib_Engine:TextureManager.obj
 0001:00043f50       ?_Buynode@?$_Tree@V?$_Tmap_traits@V?$basic_string@DU?$char_traits@D@std@@V?$allocator@D@2@@std@@PAVTextureContainer@TextureManager@@U?$less@V?$basic_string@DU?$char_traits@D@std@@V?$allocator@D@2@@std@@@2@V?$allocator@U?$pair@$$CBV?$basic_string@DU?$char_traits@D@std@@V?$allocator@D@2@@std@@PAVTextureContainer@TextureManager@@@std@@@2@$0A@@std@@@std@@IAEPAU_Node@?$_Tree_nod@V?$_Tmap_traits@V?$basic_string@DU?$char_traits@D@std@@V?$allocator@D@2@@std@@PAVTextureContainer@TextureManager@@U?$less@V?$basic_string@DU?$char_traits@D@std@@V?$allocator@D@2@@std@@@2@V?$allocator@U?$pair@$$CBV?$basic_string@DU?$char_traits@D@std@@V?$allocator@D@2@@std@@PAVTextureContainer@TextureManager@@@std@@@2@$0A@@std@@@2@PAU342@00ABU?$pair@$$CBV?$basic_string@DU?$char_traits@D@std@@V?$allocator@D@2@@std@@PAVTextureContainer@TextureManager@@@2@D@Z 00444f50 f i Lib_Engine:TextureManager.obj
 0001:00043f50       ?_Buynode@?$_Tree@V?$_Tmap_traits@V?$basic_string@DU?$char_traits@D@std@@V?$allocator@D@2@@std@@KU?$less@V?$basic_string@DU?$char_traits@D@std@@V?$allocator@D@2@@std@@@2@V?$allocator@U?$pair@$$CBV?$basic_string@DU?$char_traits@D@std@@V?$allocator@D@2@@std@@K@std@@@2@$0A@@std@@@std@@IAEPAU_Node@?$_Tree_nod@V?$_Tmap_traits@V?$basic_string@DU?$char_traits@D@std@@V?$allocator@D@2@@std@@KU?$less@V?$basic_string@DU?$char_traits@D@std@@V?$allocator@D@2@@std@@@2@V?$allocator@U?$pair@$$CBV?$basic_string@DU?$char_traits@D@std@@V?$allocator@D@2@@std@@K@std@@@2@$0A@@std@@@2@PAU342@00ABU?$pair@$$CBV?$basic_string@DU?$char_traits@D@std@@V?$allocator@D@2@@std@@K@2@D@Z 00444f50 f i Lib_Engine:TextureManager.obj
 0001:00043ff0       ?_Insert@?$_Tree@V?$_Tmap_traits@V?$basic_string@DU?$char_traits@D@std@@V?$allocator@D@2@@std@@KU?$less@V?$basic_string@DU?$char_traits@D@std@@V?$allocator@D@2@@std@@@2@V?$allocator@U?$pair@$$CBV?$basic_string@DU?$char_traits@D@std@@V?$allocator@D@2@@std@@K@std@@@2@$0A@@std@@@std@@IAE?AViterator@12@_NPAU_Node@?$_Tree_nod@V?$_Tmap_traits@V?$basic_string@DU?$char_traits@D@std@@V?$allocator@D@2@@std@@KU?$less@V?$basic_string@DU?$char_traits@D@std@@V?$allocator@D@2@@std@@@2@V?$allocator@U?$pair@$$CBV?$basic_string@DU?$char_traits@D@std@@V?$allocator@D@2@@std@@K@std@@@2@$0A@@std@@@2@ABU?$pair@$$CBV?$basic_string@DU?$char_traits@D@std@@V?$allocator@D@2@@std@@K@2@@Z 00444ff0 f i Lib_Engine:TextureManager.obj
 0001:00043ff0       ?_Insert@?$_Tree@V?$_Tmap_traits@V?$basic_string@DU?$char_traits@D@std@@V?$allocator@D@2@@std@@PAVTextureContainer@TextureManager@@U?$less@V?$basic_string@DU?$char_traits@D@std@@V?$allocator@D@2@@std@@@2@V?$allocator@U?$pair@$$CBV?$basic_string@DU?$char_traits@D@std@@V?$allocator@D@2@@std@@PAVTextureContainer@TextureManager@@@std@@@2@$0A@@std@@@std@@IAE?AViterator@12@_NPAU_Node@?$_Tree_nod@V?$_Tmap_traits@V?$basic_string@DU?$char_traits@D@std@@V?$allocator@D@2@@std@@PAVTextureContainer@TextureManager@@U?$less@V?$basic_string@DU?$char_traits@D@std@@V?$allocator@D@2@@std@@@2@V?$allocator@U?$pair@$$CBV?$basic_string@DU?$char_traits@D@std@@V?$allocator@D@2@@std@@PAVTextureContainer@TextureManager@@@std@@@2@$0A@@std@@@2@ABU?$pair@$$CBV?$basic_string@DU?$char_traits@D@std@@V?$allocator@D@2@@std@@PAVTextureContainer@TextureManager@@@2@@Z 00444ff0 f i Lib_Engine:TextureManager.obj
 0001:000441b0       ?IsLoading_AddRef@TextureManager@@YAHPBD@Z 004451b0 f   Lib_Engine:TextureManager.obj
 0001:00044280       ?GetCompleteTex_AddRef@TextureManager@@YAPAUIDirect3DTexture9@@PBD@Z 00445280 f   Lib_Engine:TextureManager.obj
 0001:00044350       ?erase@?$_Tree@V?$_Tmap_traits@V?$basic_string@DU?$char_traits@D@std@@V?$allocator@D@2@@std@@PAVTextureContainer@TextureManager@@U?$less@V?$basic_string@DU?$char_traits@D@std@@V?$allocator@D@2@@std@@@2@V?$allocator@U?$pair@$$CBV?$basic_string@DU?$char_traits@D@std@@V?$allocator@D@2@@std@@PAVTextureContainer@TextureManager@@@std@@@2@$0A@@std@@@std@@QAE?AViterator@12@V312@@Z 00445350 f i Lib_Engine:TextureManager.obj
 0001:00044350       ?erase@?$_Tree@V?$_Tmap_traits@V?$basic_string@DU?$char_traits@D@std@@V?$allocator@D@2@@std@@KU?$less@V?$basic_string@DU?$char_traits@D@std@@V?$allocator@D@2@@std@@@2@V?$allocator@U?$pair@$$CBV?$basic_string@DU?$char_traits@D@std@@V?$allocator@D@2@@std@@K@std@@@2@$0A@@std@@@std@@QAE?AViterator@12@V312@@Z 00445350 f i Lib_Engine:TextureManager.obj
 0001:00044630       ?_Erase@?$_Tree@V?$_Tmap_traits@V?$basic_string@DU?$char_traits@D@std@@V?$allocator@D@2@@std@@PAVTextureContainer@TextureManager@@U?$less@V?$basic_string@DU?$char_traits@D@std@@V?$allocator@D@2@@std@@@2@V?$allocator@U?$pair@$$CBV?$basic_string@DU?$char_traits@D@std@@V?$allocator@D@2@@std@@PAVTextureContainer@TextureManager@@@std@@@2@$0A@@std@@@std@@IAEXPAU_Node@?$_Tree_nod@V?$_Tmap_traits@V?$basic_string@DU?$char_traits@D@std@@V?$allocator@D@2@@std@@PAVTextureContainer@TextureManager@@U?$less@V?$basic_string@DU?$char_traits@D@std@@V?$allocator@D@2@@std@@@2@V?$allocator@U?$pair@$$CBV?$basic_string@DU?$char_traits@D@std@@V?$allocator@D@2@@std@@PAVTextureContainer@TextureManager@@@std@@@2@$0A@@std@@@2@@Z 00445630 f i Lib_Engine:TextureManager.obj
 0001:00044670       ?insert@?$_Tree@V?$_Tmap_traits@V?$basic_string@DU?$char_traits@D@std@@V?$allocator@D@2@@std@@KU?$less@V?$basic_string@DU?$char_traits@D@std@@V?$allocator@D@2@@std@@@2@V?$allocator@U?$pair@$$CBV?$basic_string@DU?$char_traits@D@std@@V?$allocator@D@2@@std@@K@std@@@2@$0A@@std@@@std@@QAE?AU?$pair@Viterator@?$_Tree@V?$_Tmap_traits@V?$basic_string@DU?$char_traits@D@std@@V?$allocator@D@2@@std@@KU?$less@V?$basic_string@DU?$char_traits@D@std@@V?$allocator@D@2@@std@@@2@V?$allocator@U?$pair@$$CBV?$basic_string@DU?$char_traits@D@std@@V?$allocator@D@2@@std@@K@std@@@2@$0A@@std@@@std@@_N@2@ABU?$pair@$$CBV?$basic_string@DU?$char_traits@D@std@@V?$allocator@D@2@@std@@K@2@@Z 00445670 f i Lib_Engine:TextureManager.obj
 0001:00044670       ?insert@?$_Tree@V?$_Tmap_traits@V?$basic_string@DU?$char_traits@D@std@@V?$allocator@D@2@@std@@PAVTextureContainer@TextureManager@@U?$less@V?$basic_string@DU?$char_traits@D@std@@V?$allocator@D@2@@std@@@2@V?$allocator@U?$pair@$$CBV?$basic_string@DU?$char_traits@D@std@@V?$allocator@D@2@@std@@PAVTextureContainer@TextureManager@@@std@@@2@$0A@@std@@@std@@QAE?AU?$pair@Viterator@?$_Tree@V?$_Tmap_traits@V?$basic_string@DU?$char_traits@D@std@@V?$allocator@D@2@@std@@PAVTextureContainer@TextureManager@@U?$less@V?$basic_string@DU?$char_traits@D@std@@V?$allocator@D@2@@std@@@2@V?$allocator@U?$pair@$$CBV?$basic_string@DU?$char_traits@D@std@@V?$allocator@D@2@@std@@PAVTextureContainer@TextureManager@@@std@@@2@$0A@@std@@@std@@_N@2@ABU?$pair@$$CBV?$basic_string@DU?$char_traits@D@std@@V?$allocator@D@2@@std@@PAVTextureContainer@TextureManager@@@2@@Z 00445670 f i Lib_Engine:TextureManager.obj
 0001:00044750       ?_Erase@?$_Tree@V?$_Tmap_traits@V?$basic_string@DU?$char_traits@D@std@@V?$allocator@D@2@@std@@KU?$less@V?$basic_string@DU?$char_traits@D@std@@V?$allocator@D@2@@std@@@2@V?$allocator@U?$pair@$$CBV?$basic_string@DU?$char_traits@D@std@@V?$allocator@D@2@@std@@K@std@@@2@$0A@@std@@@std@@IAEXPAU_Node@?$_Tree_nod@V?$_Tmap_traits@V?$basic_string@DU?$char_traits@D@std@@V?$allocator@D@2@@std@@KU?$less@V?$basic_string@DU?$char_traits@D@std@@V?$allocator@D@2@@std@@@2@V?$allocator@U?$pair@$$CBV?$basic_string@DU?$char_traits@D@std@@V?$allocator@D@2@@std@@K@std@@@2@$0A@@std@@@2@@Z 00445750 f i Lib_Engine:TextureManager.obj
 0001:00044790       ?SubLoadingMap@TextureManager@@YAHPBD@Z 00445790 f   Lib_Engine:TextureManager.obj
 0001:000448a0       ?SubCompleteMap@TextureManager@@YAHPBD@Z 004458a0 f   Lib_Engine:TextureManager.obj
 0001:000449b0       ?ReleaseTexture@TextureManager@@YAJPBDAAPAUIDirect3DTexture9@@@Z 004459b0 f   Lib_Engine:TextureManager.obj
 0001:00044a50       ?insert@?$_Tree@V?$_Tmap_traits@V?$basic_string@DU?$char_traits@D@std@@V?$allocator@D@2@@std@@PAVTextureContainer@TextureManager@@U?$less@V?$basic_string@DU?$char_traits@D@std@@V?$allocator@D@2@@std@@@2@V?$allocator@U?$pair@$$CBV?$basic_string@DU?$char_traits@D@std@@V?$allocator@D@2@@std@@PAVTextureContainer@TextureManager@@@std@@@2@$0A@@std@@@std@@QAE?AViterator@12@V312@ABU?$pair@$$CBV?$basic_string@DU?$char_traits@D@std@@V?$allocator@D@2@@std@@PAVTextureContainer@TextureManager@@@2@@Z 00445a50 f i Lib_Engine:TextureManager.obj
 0001:00044a50       ?insert@?$_Tree@V?$_Tmap_traits@V?$basic_string@DU?$char_traits@D@std@@V?$allocator@D@2@@std@@KU?$less@V?$basic_string@DU?$char_traits@D@std@@V?$allocator@D@2@@std@@@2@V?$allocator@U?$pair@$$CBV?$basic_string@DU?$char_traits@D@std@@V?$allocator@D@2@@std@@K@std@@@2@$0A@@std@@@std@@QAE?AViterator@12@V312@ABU?$pair@$$CBV?$basic_string@DU?$char_traits@D@std@@V?$allocator@D@2@@std@@K@2@@Z 00445a50 f i Lib_Engine:TextureManager.obj
 0001:00044c10       ?erase@?$_Tree@V?$_Tmap_traits@V?$basic_string@DU?$char_traits@D@std@@V?$allocator@D@2@@std@@PAVTextureContainer@TextureManager@@U?$less@V?$basic_string@DU?$char_traits@D@std@@V?$allocator@D@2@@std@@@2@V?$allocator@U?$pair@$$CBV?$basic_string@DU?$char_traits@D@std@@V?$allocator@D@2@@std@@PAVTextureContainer@TextureManager@@@std@@@2@$0A@@std@@@std@@QAE?AViterator@12@V312@0@Z 00445c10 f i Lib_Engine:TextureManager.obj
 0001:00044cd0       ??A?$map@V?$basic_string@DU?$char_traits@D@std@@V?$allocator@D@2@@std@@PAVTextureContainer@TextureManager@@U?$less@V?$basic_string@DU?$char_traits@D@std@@V?$allocator@D@2@@std@@@2@V?$allocator@U?$pair@$$CBV?$basic_string@DU?$char_traits@D@std@@V?$allocator@D@2@@std@@PAVTextureContainer@TextureManager@@@std@@@2@@std@@QAEAAPAVTextureContainer@TextureManager@@ABV?$basic_string@DU?$char_traits@D@std@@V?$allocator@D@2@@1@@Z 00445cd0 f i Lib_Engine:TextureManager.obj
 0001:00044cd0       ??A?$map@V?$basic_string@DU?$char_traits@D@std@@V?$allocator@D@2@@std@@KU?$less@V?$basic_string@DU?$char_traits@D@std@@V?$allocator@D@2@@std@@@2@V?$allocator@U?$pair@$$CBV?$basic_string@DU?$char_traits@D@std@@V?$allocator@D@2@@std@@K@std@@@2@@std@@QAEAAKABV?$basic_string@DU?$char_traits@D@std@@V?$allocator@D@2@@1@@Z 00445cd0 f i Lib_Engine:TextureManager.obj
 0001:00044d70       ?erase@?$_Tree@V?$_Tmap_traits@V?$basic_string@DU?$char_traits@D@std@@V?$allocator@D@2@@std@@KU?$less@V?$basic_string@DU?$char_traits@D@std@@V?$allocator@D@2@@std@@@2@V?$allocator@U?$pair@$$CBV?$basic_string@DU?$char_traits@D@std@@V?$allocator@D@2@@std@@K@std@@@2@$0A@@std@@@std@@QAE?AViterator@12@V312@0@Z 00445d70 f i Lib_Engine:TextureManager.obj
 0001:00044e30       ?GetLoading2CompleteTex_AddRef@TextureManager@@YAPAUIDirect3DTexture9@@PBDPAVTextureContainer@1@@Z 00445e30 f   Lib_Engine:TextureManager.obj
 0001:00044f80       ?AddLoadingMap@TextureManager@@YAXPAVTextureContainer@1@PBD@Z 00445f80 f   Lib_Engine:TextureManager.obj
 0001:00045010       ?AddCompleteMap@TextureManager@@YAPAUIDirect3DTexture9@@PAVTextureContainer@1@PBD@Z 00446010 f   Lib_Engine:TextureManager.obj
 0001:000450a0       ?AddTextureID@TextureManager@@YAXPBD@Z 004460a0 f   Lib_Engine:TextureManager.obj
 0001:000451a0       ?LoadTexture@TextureManager@@YAJPBDPAUIDirect3DDevice9@@AAPAUIDirect3DTexture9@@KKH@Z 004461a0 f   Lib_Engine:TextureManager.obj
 0001:000453d0       ??1?$map@V?$basic_string@DU?$char_traits@D@std@@V?$allocator@D@2@@std@@PAVTextureContainer@TextureManager@@U?$less@V?$basic_string@DU?$char_traits@D@std@@V?$allocator@D@2@@std@@@2@V?$allocator@U?$pair@$$CBV?$basic_string@DU?$char_traits@D@std@@V?$allocator@D@2@@std@@PAVTextureContainer@TextureManager@@@std@@@2@@std@@QAE@XZ 004463d0 f i Lib_Engine:TextureManager.obj
 0001:00045400       ??0?$map@V?$basic_string@DU?$char_traits@D@std@@V?$allocator@D@2@@std@@KU?$less@V?$basic_string@DU?$char_traits@D@std@@V?$allocator@D@2@@std@@@2@V?$allocator@U?$pair@$$CBV?$basic_string@DU?$char_traits@D@std@@V?$allocator@D@2@@std@@K@std@@@2@@std@@QAE@XZ 00446400 f i Lib_Engine:TextureManager.obj
 0001:00045400       ??0?$map@V?$basic_string@DU?$char_traits@D@std@@V?$allocator@D@2@@std@@PAVTextureContainer@TextureManager@@U?$less@V?$basic_string@DU?$char_traits@D@std@@V?$allocator@D@2@@std@@@2@V?$allocator@U?$pair@$$CBV?$basic_string@DU?$char_traits@D@std@@V?$allocator@D@2@@std@@PAVTextureContainer@TextureManager@@@std@@@2@@std@@QAE@XZ 00446400 f i Lib_Engine:TextureManager.obj
 0001:00045400       ??0?$map@V?$basic_string@DU?$char_traits@D@std@@V?$allocator@D@2@@std@@PAUSTATICDATA@NSSTATICMESH@@U?$less@V?$basic_string@DU?$char_traits@D@std@@V?$allocator@D@2@@std@@@2@V?$allocator@U?$pair@$$CBV?$basic_string@DU?$char_traits@D@std@@V?$allocator@D@2@@std@@PAUSTATICDATA@NSSTATICMESH@@@std@@@2@@std@@QAE@XZ 00446400 f i Lib_Engine:DxStaticMesh.obj
 0001:00045430       ??1?$map@V?$basic_string@DU?$char_traits@D@std@@V?$allocator@D@2@@std@@KU?$less@V?$basic_string@DU?$char_traits@D@std@@V?$allocator@D@2@@std@@@2@V?$allocator@U?$pair@$$CBV?$basic_string@DU?$char_traits@D@std@@V?$allocator@D@2@@std@@K@std@@@2@@std@@QAE@XZ 00446430 f i Lib_Engine:TextureManager.obj
 0001:00045460       ?FindPathName@CFileFindTree@@QAEPAV?$basic_string@DU?$char_traits@D@std@@V?$allocator@D@2@@std@@AAV23@@Z 00446460 f   Lib_Engine:CFileFind.obj
 0001:00045490       ?FindPathNameNoExtension@CFileFindTree@@QAEPAV?$basic_string@DU?$char_traits@D@std@@V?$allocator@D@2@@std@@AAV23@@Z 00446490 f   Lib_Engine:CFileFind.obj
 0001:000455c0       ??1CFileFindTree@@QAE@XZ   004465c0 f   Lib_Engine:CFileFind.obj
 0001:00045640       ??0CFileFindTree@@QAE@XZ   00446640 f   Lib_Engine:CFileFind.obj
 0001:000456b0       ?_Max@?$_Tree@V?$_Tmap_traits@V?$basic_string@DU?$char_traits@D@std@@V?$allocator@D@2@@std@@KU?$less@V?$basic_string@DU?$char_traits@D@std@@V?$allocator@D@2@@std@@@2@V?$allocator@U?$pair@$$CBV?$basic_string@DU?$char_traits@D@std@@V?$allocator@D@2@@std@@K@std@@@2@$0A@@std@@@std@@KAPAU_Node@?$_Tree_nod@V?$_Tmap_traits@V?$basic_string@DU?$char_traits@D@std@@V?$allocator@D@2@@std@@KU?$less@V?$basic_string@DU?$char_traits@D@std@@V?$allocator@D@2@@std@@@2@V?$allocator@U?$pair@$$CBV?$basic_string@DU?$char_traits@D@std@@V?$allocator@D@2@@std@@K@std@@@2@$0A@@std@@@2@PAU342@@Z 004466b0 f i Lib_Engine:TextureManager.obj
 0001:000456b0       ?_Max@?$_Tree@V?$_Tmap_traits@V?$basic_string@DU?$char_traits@D@std@@V?$allocator@D@2@@std@@PAUSTATICDATA@NSSTATICMESH@@U?$less@V?$basic_string@DU?$char_traits@D@std@@V?$allocator@D@2@@std@@@2@V?$allocator@U?$pair@$$CBV?$basic_string@DU?$char_traits@D@std@@V?$allocator@D@2@@std@@PAUSTATICDATA@NSSTATICMESH@@@std@@@2@$0A@@std@@@std@@KAPAU_Node@?$_Tree_nod@V?$_Tmap_traits@V?$basic_string@DU?$char_traits@D@std@@V?$allocator@D@2@@std@@PAUSTATICDATA@NSSTATICMESH@@U?$less@V?$basic_string@DU?$char_traits@D@std@@V?$allocator@D@2@@std@@@2@V?$allocator@U?$pair@$$CBV?$basic_string@DU?$char_traits@D@std@@V?$allocator@D@2@@std@@PAUSTATICDATA@NSSTATICMESH@@@std@@@2@$0A@@std@@@2@PAU342@@Z 004466b0 f i Lib_Engine:DxStaticMesh.obj
 0001:000456b0       ?_Max@?$_Tree@V?$_Tmap_traits@V?$basic_string@DU?$char_traits@D@std@@V?$allocator@D@2@@std@@PAVDxSimMesh@@U?$less@V?$basic_string@DU?$char_traits@D@std@@V?$allocator@D@2@@std@@@2@V?$allocator@U?$pair@$$CBV?$basic_string@DU?$char_traits@D@std@@V?$allocator@D@2@@std@@PAVDxSimMesh@@@std@@@2@$0A@@std@@@std@@KAPAU_Node@?$_Tree_nod@V?$_Tmap_traits@V?$basic_string@DU?$char_traits@D@std@@V?$allocator@D@2@@std@@PAVDxSimMesh@@U?$less@V?$basic_string@DU?$char_traits@D@std@@V?$allocator@D@2@@std@@@2@V?$allocator@U?$pair@$$CBV?$basic_string@DU?$char_traits@D@std@@V?$allocator@D@2@@std@@PAVDxSimMesh@@@std@@@2@$0A@@std@@@2@PAU342@@Z 004466b0 f i Lib_Engine:DxSimpleMeshMan.obj
 0001:000456b0       ?_Max@?$_Tree@V?$_Tmap_traits@V?$basic_string@DU?$char_traits@D@std@@V?$allocator@D@2@@std@@PAUDxSkinPiece@@U?$less@V?$basic_string@DU?$char_traits@D@std@@V?$allocator@D@2@@std@@@2@V?$allocator@U?$pair@$$CBV?$basic_string@DU?$char_traits@D@std@@V?$allocator@D@2@@std@@PAUDxSkinPiece@@@std@@@2@$0A@@std@@@std@@KAPAU_Node@?$_Tree_nod@V?$_Tmap_traits@V?$basic_string@DU?$char_traits@D@std@@V?$allocator@D@2@@std@@PAUDxSkinPiece@@U?$less@V?$basic_string@DU?$char_traits@D@std@@V?$allocator@D@2@@std@@@2@V?$allocator@U?$pair@$$CBV?$basic_string@DU?$char_traits@D@std@@V?$allocator@D@2@@std@@PAUDxSkinPiece@@@std@@@2@$0A@@std@@@2@PAU342@@Z 004466b0 f i Lib_Engine:DxSkinPieceContainer.obj
 0001:000456b0       ?_Max@?$_Tree@V?$_Tmap_traits@V?$basic_string@DU?$char_traits@D@std@@V?$allocator@D@2@@std@@PAVTextureContainer@TextureManager@@U?$less@V?$basic_string@DU?$char_traits@D@std@@V?$allocator@D@2@@std@@@2@V?$allocator@U?$pair@$$CBV?$basic_string@DU?$char_traits@D@std@@V?$allocator@D@2@@std@@PAVTextureContainer@TextureManager@@@std@@@2@$0A@@std@@@std@@KAPAU_Node@?$_Tree_nod@V?$_Tmap_traits@V?$basic_string@DU?$char_traits@D@std@@V?$allocator@D@2@@std@@PAVTextureContainer@TextureManager@@U?$less@V?$basic_string@DU?$char_traits@D@std@@V?$allocator@D@2@@std@@@2@V?$allocator@U?$pair@$$CBV?$basic_string@DU?$char_traits@D@std@@V?$allocator@D@2@@std@@PAVTextureContainer@TextureManager@@@std@@@2@$0A@@std@@@2@PAU342@@Z 004466b0 f i Lib_Engine:TextureManager.obj
 0001:000456d0       ?_Lrotate@?$_Tree@V?$_Tmap_traits@V?$basic_string@DU?$char_traits@D@std@@V?$allocator@D@2@@std@@PAVDxSimMesh@@U?$less@V?$basic_string@DU?$char_traits@D@std@@V?$allocator@D@2@@std@@@2@V?$allocator@U?$pair@$$CBV?$basic_string@DU?$char_traits@D@std@@V?$allocator@D@2@@std@@PAVDxSimMesh@@@std@@@2@$0A@@std@@@std@@IAEXPAU_Node@?$_Tree_nod@V?$_Tmap_traits@V?$basic_string@DU?$char_traits@D@std@@V?$allocator@D@2@@std@@PAVDxSimMesh@@U?$less@V?$basic_string@DU?$char_traits@D@std@@V?$allocator@D@2@@std@@@2@V?$allocator@U?$pair@$$CBV?$basic_string@DU?$char_traits@D@std@@V?$allocator@D@2@@std@@PAVDxSimMesh@@@std@@@2@$0A@@std@@@2@@Z 004466d0 f i Lib_Engine:DxSimpleMeshMan.obj
 0001:000456d0       ?_Lrotate@?$_Tree@V?$_Tmap_traits@V?$basic_string@DU?$char_traits@D@std@@V?$allocator@D@2@@std@@PAUDxSkinPiece@@U?$less@V?$basic_string@DU?$char_traits@D@std@@V?$allocator@D@2@@std@@@2@V?$allocator@U?$pair@$$CBV?$basic_string@DU?$char_traits@D@std@@V?$allocator@D@2@@std@@PAUDxSkinPiece@@@std@@@2@$0A@@std@@@std@@IAEXPAU_Node@?$_Tree_nod@V?$_Tmap_traits@V?$basic_string@DU?$char_traits@D@std@@V?$allocator@D@2@@std@@PAUDxSkinPiece@@U?$less@V?$basic_string@DU?$char_traits@D@std@@V?$allocator@D@2@@std@@@2@V?$allocator@U?$pair@$$CBV?$basic_string@DU?$char_traits@D@std@@V?$allocator@D@2@@std@@PAUDxSkinPiece@@@std@@@2@$0A@@std@@@2@@Z 004466d0 f i Lib_Engine:DxSkinPieceContainer.obj
 0001:000456d0       ?_Lrotate@?$_Tree@V?$_Tmap_traits@V?$basic_string@DU?$char_traits@D@std@@V?$allocator@D@2@@std@@PAUSTATICDATA@NSSTATICMESH@@U?$less@V?$basic_string@DU?$char_traits@D@std@@V?$allocator@D@2@@std@@@2@V?$allocator@U?$pair@$$CBV?$basic_string@DU?$char_traits@D@std@@V?$allocator@D@2@@std@@PAUSTATICDATA@NSSTATICMESH@@@std@@@2@$0A@@std@@@std@@IAEXPAU_Node@?$_Tree_nod@V?$_Tmap_traits@V?$basic_string@DU?$char_traits@D@std@@V?$allocator@D@2@@std@@PAUSTATICDATA@NSSTATICMESH@@U?$less@V?$basic_string@DU?$char_traits@D@std@@V?$allocator@D@2@@std@@@2@V?$allocator@U?$pair@$$CBV?$basic_string@DU?$char_traits@D@std@@V?$allocator@D@2@@std@@PAUSTATICDATA@NSSTATICMESH@@@std@@@2@$0A@@std@@@2@@Z 004466d0 f i Lib_Engine:DxStaticMesh.obj
 0001:000456d0       ?_Lrotate@?$_Tree@V?$_Tmap_traits@V?$basic_string@DU?$char_traits@D@std@@V?$allocator@D@2@@std@@PAVTextureContainer@TextureManager@@U?$less@V?$basic_string@DU?$char_traits@D@std@@V?$allocator@D@2@@std@@@2@V?$allocator@U?$pair@$$CBV?$basic_string@DU?$char_traits@D@std@@V?$allocator@D@2@@std@@PAVTextureContainer@TextureManager@@@std@@@2@$0A@@std@@@std@@IAEXPAU_Node@?$_Tree_nod@V?$_Tmap_traits@V?$basic_string@DU?$char_traits@D@std@@V?$allocator@D@2@@std@@PAVTextureContainer@TextureManager@@U?$less@V?$basic_string@DU?$char_traits@D@std@@V?$allocator@D@2@@std@@@2@V?$allocator@U?$pair@$$CBV?$basic_string@DU?$char_traits@D@std@@V?$allocator@D@2@@std@@PAVTextureContainer@TextureManager@@@std@@@2@$0A@@std@@@2@@Z 004466d0 f i Lib_Engine:TextureManager.obj
 0001:000456d0       ?_Lrotate@?$_Tree@V?$_Tmap_traits@V?$basic_string@DU?$char_traits@D@std@@V?$allocator@D@2@@std@@KU?$less@V?$basic_string@DU?$char_traits@D@std@@V?$allocator@D@2@@std@@@2@V?$allocator@U?$pair@$$CBV?$basic_string@DU?$char_traits@D@std@@V?$allocator@D@2@@std@@K@std@@@2@$0A@@std@@@std@@IAEXPAU_Node@?$_Tree_nod@V?$_Tmap_traits@V?$basic_string@DU?$char_traits@D@std@@V?$allocator@D@2@@std@@KU?$less@V?$basic_string@DU?$char_traits@D@std@@V?$allocator@D@2@@std@@@2@V?$allocator@U?$pair@$$CBV?$basic_string@DU?$char_traits@D@std@@V?$allocator@D@2@@std@@K@std@@@2@$0A@@std@@@2@@Z 004466d0 f i Lib_Engine:TextureManager.obj
 0001:00045730       ?_Rrotate@?$_Tree@V?$_Tmap_traits@V?$basic_string@DU?$char_traits@D@std@@V?$allocator@D@2@@std@@PAUDxSkinPiece@@U?$less@V?$basic_string@DU?$char_traits@D@std@@V?$allocator@D@2@@std@@@2@V?$allocator@U?$pair@$$CBV?$basic_string@DU?$char_traits@D@std@@V?$allocator@D@2@@std@@PAUDxSkinPiece@@@std@@@2@$0A@@std@@@std@@IAEXPAU_Node@?$_Tree_nod@V?$_Tmap_traits@V?$basic_string@DU?$char_traits@D@std@@V?$allocator@D@2@@std@@PAUDxSkinPiece@@U?$less@V?$basic_string@DU?$char_traits@D@std@@V?$allocator@D@2@@std@@@2@V?$allocator@U?$pair@$$CBV?$basic_string@DU?$char_traits@D@std@@V?$allocator@D@2@@std@@PAUDxSkinPiece@@@std@@@2@$0A@@std@@@2@@Z 00446730 f i Lib_Engine:DxSkinPieceContainer.obj
 0001:00045730       ?_Rrotate@?$_Tree@V?$_Tmap_traits@V?$basic_string@DU?$char_traits@D@std@@V?$allocator@D@2@@std@@PAUSTATICDATA@NSSTATICMESH@@U?$less@V?$basic_string@DU?$char_traits@D@std@@V?$allocator@D@2@@std@@@2@V?$allocator@U?$pair@$$CBV?$basic_string@DU?$char_traits@D@std@@V?$allocator@D@2@@std@@PAUSTATICDATA@NSSTATICMESH@@@std@@@2@$0A@@std@@@std@@IAEXPAU_Node@?$_Tree_nod@V?$_Tmap_traits@V?$basic_string@DU?$char_traits@D@std@@V?$allocator@D@2@@std@@PAUSTATICDATA@NSSTATICMESH@@U?$less@V?$basic_string@DU?$char_traits@D@std@@V?$allocator@D@2@@std@@@2@V?$allocator@U?$pair@$$CBV?$basic_string@DU?$char_traits@D@std@@V?$allocator@D@2@@std@@PAUSTATICDATA@NSSTATICMESH@@@std@@@2@$0A@@std@@@2@@Z 00446730 f i Lib_Engine:DxStaticMesh.obj
 0001:00045730       ?_Rrotate@?$_Tree@V?$_Tmap_traits@V?$basic_string@DU?$char_traits@D@std@@V?$allocator@D@2@@std@@PAVTextureContainer@TextureManager@@U?$less@V?$basic_string@DU?$char_traits@D@std@@V?$allocator@D@2@@std@@@2@V?$allocator@U?$pair@$$CBV?$basic_string@DU?$char_traits@D@std@@V?$allocator@D@2@@std@@PAVTextureContainer@TextureManager@@@std@@@2@$0A@@std@@@std@@IAEXPAU_Node@?$_Tree_nod@V?$_Tmap_traits@V?$basic_string@DU?$char_traits@D@std@@V?$allocator@D@2@@std@@PAVTextureContainer@TextureManager@@U?$less@V?$basic_string@DU?$char_traits@D@std@@V?$allocator@D@2@@std@@@2@V?$allocator@U?$pair@$$CBV?$basic_string@DU?$char_traits@D@std@@V?$allocator@D@2@@std@@PAVTextureContainer@TextureManager@@@std@@@2@$0A@@std@@@2@@Z 00446730 f i Lib_Engine:TextureManager.obj
 0001:00045730       ?_Rrotate@?$_Tree@V?$_Tmap_traits@V?$basic_string@DU?$char_traits@D@std@@V?$allocator@D@2@@std@@KU?$less@V?$basic_string@DU?$char_traits@D@std@@V?$allocator@D@2@@std@@@2@V?$allocator@U?$pair@$$CBV?$basic_string@DU?$char_traits@D@std@@V?$allocator@D@2@@std@@K@std@@@2@$0A@@std@@@std@@IAEXPAU_Node@?$_Tree_nod@V?$_Tmap_traits@V?$basic_string@DU?$char_traits@D@std@@V?$allocator@D@2@@std@@KU?$less@V?$basic_string@DU?$char_traits@D@std@@V?$allocator@D@2@@std@@@2@V?$allocator@U?$pair@$$CBV?$basic_string@DU?$char_traits@D@std@@V?$allocator@D@2@@std@@K@std@@@2@$0A@@std@@@2@@Z 00446730 f i Lib_Engine:TextureManager.obj
 0001:00045730       ?_Rrotate@?$_Tree@V?$_Tmap_traits@V?$basic_string@DU?$char_traits@D@std@@V?$allocator@D@2@@std@@PAVDxSimMesh@@U?$less@V?$basic_string@DU?$char_traits@D@std@@V?$allocator@D@2@@std@@@2@V?$allocator@U?$pair@$$CBV?$basic_string@DU?$char_traits@D@std@@V?$allocator@D@2@@std@@PAVDxSimMesh@@@std@@@2@$0A@@std@@@std@@IAEXPAU_Node@?$_Tree_nod@V?$_Tmap_traits@V?$basic_string@DU?$char_traits@D@std@@V?$allocator@D@2@@std@@PAVDxSimMesh@@U?$less@V?$basic_string@DU?$char_traits@D@std@@V?$allocator@D@2@@std@@@2@V?$allocator@U?$pair@$$CBV?$basic_string@DU?$char_traits@D@std@@V?$allocator@D@2@@std@@PAVDxSimMesh@@@std@@@2@$0A@@std@@@2@@Z 00446730 f i Lib_Engine:DxSimpleMeshMan.obj
 0001:00045790       ?erase@?$_Tree@V?$_Tmap_traits@V?$basic_string@DU?$char_traits@D@std@@V?$allocator@D@2@@std@@PAUSTATICDATA@NSSTATICMESH@@U?$less@V?$basic_string@DU?$char_traits@D@std@@V?$allocator@D@2@@std@@@2@V?$allocator@U?$pair@$$CBV?$basic_string@DU?$char_traits@D@std@@V?$allocator@D@2@@std@@PAUSTATICDATA@NSSTATICMESH@@@std@@@2@$0A@@std@@@std@@QAE?AViterator@12@V312@@Z 00446790 f i Lib_Engine:DxStaticMesh.obj
 0001:00045a70       ?_Erase@?$_Tree@V?$_Tmap_traits@V?$basic_string@DU?$char_traits@D@std@@V?$allocator@D@2@@std@@PAUSTATICDATA@NSSTATICMESH@@U?$less@V?$basic_string@DU?$char_traits@D@std@@V?$allocator@D@2@@std@@@2@V?$allocator@U?$pair@$$CBV?$basic_string@DU?$char_traits@D@std@@V?$allocator@D@2@@std@@PAUSTATICDATA@NSSTATICMESH@@@std@@@2@$0A@@std@@@std@@IAEXPAU_Node@?$_Tree_nod@V?$_Tmap_traits@V?$basic_string@DU?$char_traits@D@std@@V?$allocator@D@2@@std@@PAUSTATICDATA@NSSTATICMESH@@U?$less@V?$basic_string@DU?$char_traits@D@std@@V?$allocator@D@2@@std@@@2@V?$allocator@U?$pair@$$CBV?$basic_string@DU?$char_traits@D@std@@V?$allocator@D@2@@std@@PAUSTATICDATA@NSSTATICMESH@@@std@@@2@$0A@@std@@@2@@Z 00446a70 f i Lib_Engine:DxStaticMesh.obj
 0001:00045ab0       ?erase@?$_Tree@V?$_Tmap_traits@V?$basic_string@DU?$char_traits@D@std@@V?$allocator@D@2@@std@@PAUSTATICDATA@NSSTATICMESH@@U?$less@V?$basic_string@DU?$char_traits@D@std@@V?$allocator@D@2@@std@@@2@V?$allocator@U?$pair@$$CBV?$basic_string@DU?$char_traits@D@std@@V?$allocator@D@2@@std@@PAUSTATICDATA@NSSTATICMESH@@@std@@@2@$0A@@std@@@std@@QAE?AViterator@12@V312@0@Z 00446ab0 f i Lib_Engine:DxStaticMesh.obj
 0001:00045b70       ??1?$map@V?$basic_string@DU?$char_traits@D@std@@V?$allocator@D@2@@std@@PAUSTATICDATA@NSSTATICMESH@@U?$less@V?$basic_string@DU?$char_traits@D@std@@V?$allocator@D@2@@std@@@2@V?$allocator@U?$pair@$$CBV?$basic_string@DU?$char_traits@D@std@@V?$allocator@D@2@@std@@PAUSTATICDATA@NSSTATICMESH@@@std@@@2@@std@@QAE@XZ 00446b70 f i Lib_Engine:DxStaticMesh.obj
 0001:00045ba0       ??1SBIN@DxSkinAniMan@@QAE@XZ 00446ba0 f i Lib_Engine:DxSkinAniManThread.obj
 0001:00045bf0       ??1_Node@?$_List_nod@USBIN@DxSkinAniMan@@V?$allocator@USBIN@DxSkinAniMan@@@std@@@std@@QAE@XZ 00446bf0 f i Lib_Engine:DxSkinAniManThread.obj
 0001:00045c00       ?_Buynode@?$list@USBIN@DxSkinAniMan@@V?$allocator@USBIN@DxSkinAniMan@@@std@@@std@@IAEPAU_Node@?$_List_nod@USBIN@DxSkinAniMan@@V?$allocator@USBIN@DxSkinAniMan@@@std@@@2@XZ 00446c00 f i Lib_Engine:DxSkinAniManThread.obj
 0001:00045c20       ?clear@?$list@USBIN@DxSkinAniMan@@V?$allocator@USBIN@DxSkinAniMan@@@std@@@std@@QAEXXZ 00446c20 f i Lib_Engine:DxSkinAniManThread.obj
 0001:00045c60       ??1SChaSound@@QAE@XZ       00446c60 f   Lib_Engine:CharacterSound.obj
 0001:00045c80       ??0SSound@@QAE@XZ          00446c80 f   Lib_Engine:SuperSound.obj
 0001:00045cb0       ?Stop@SSound@@QAE_NXZ      00446cb0 f   Lib_Engine:SuperSound.obj
 0001:00045cf0       ?SetVolume@SSound@@QAE_NJ@Z 00446cf0 f   Lib_Engine:SuperSound.obj
 0001:00045d50       ?UnLoad@SSound@@QAE_NXZ    00446d50 f   Lib_Engine:SuperSound.obj
 0001:00045e10       ?Play@SSound@@UAE_NXZ      00446e10 f   Lib_Engine:SuperSound.obj
 0001:00045e70       ??1SSound@@UAE@XZ          00446e70 f   Lib_Engine:SuperSound.obj
 0001:00045ed0       ?Load@SSound@@QAE_NV?$basic_string@DU?$char_traits@D@std@@V?$allocator@D@2@@std@@_N1@Z 00446ed0 f   Lib_Engine:SuperSound.obj
 0001:00045fc0       ??_ESSound@@UAEPAXI@Z      00446fc0 f i Lib_Engine:SuperSound.obj
 0001:00045fc0       ??_GSSound@@UAEPAXI@Z      00446fc0 f i Lib_Engine:SuperSound.obj
 0001:00045fe0       ??1DxEffectRain@@UAE@XZ    00446fe0 f   Lib_Engine:DxWeatherManEx.obj
 0001:00046060       ?ReadUserInven@GLEmulatorDBMan@@UAEHPAUSCHARDATA2@@@Z 00447060 f   Lib_Client:GLAgentServer.obj
 0001:00046060       ?LogItemExchange@GLDBMan@@UAEHABUSLOGITEMEXCHANGE@@@Z 00447060 f   Lib_Network:s_COdbcManager.obj
 0001:00046060       ?LogPetAction@GLDBMan@@UAEHABUSLOGPETACTION@@@Z 00447060 f   Lib_Network:s_COdbcManager.obj
 0001:00046060       ?MyUserClassCheck@GLDBMan@@UAEHPBD@Z 00447060 f   Lib_Network:s_COdbcManager.obj
 0001:00046060       ?GetItemShop@GLDBMan@@UAEHAAV?$vector@UITEMSHOP@@V?$allocator@UITEMSHOP@@@std@@@std@@@Z 00447060 f   Lib_Network:s_COdbcManager.obj
 0001:00046060       ?LogItemConversion@GLDBMan@@UAEHABUSLOGITEMCONVERSION@@@Z 00447060 f   Lib_Network:s_COdbcManager.obj
 0001:00046060       ?SaveCharacter@GLEmulatorDBMan@@UAEHPAX@Z 00447060 f   Lib_Client:GLAgentServer.obj
 0001:00046060       ?LogMoneyExchange@GLDBMan@@UAEHABUSLOGMONEYEXCHANGE@@@Z 00447060 f   Lib_Network:s_COdbcManager.obj
 0001:00046060       ?ReSetAllianceBattle@GLDBMan@@UAEHK@Z 00447060 f   Lib_Network:s_COdbcManager.obj
 0001:00046060       ?GetClubInfo@GLDBMan@@UAEHAAV?$vector@UGLCLUBINFO@@V?$allocator@UGLCLUBINFO@@@std@@@std@@@Z 00447060 f   Lib_Network:s_COdbcManager.obj
 0001:00046060       ?GetPlayerRanking@GLDBMan@@UAEHAAV?$map@KUPLAYER_RANKING@@U?$less@K@std@@V?$allocator@U?$pair@$$CBKUPLAYER_RANKING@@@std@@@3@@std@@@Z 00447060 f   Lib_Network:s_COdbcManager.obj
 0001:00046060       ?RestoreDeviceObjects@DxObject@@UAEJPAUIDirect3DDevice9@@@Z 00447060 f   Lib_Engine:DxViewPort.obj
 0001:00046060       ?DeleteClubMember@GLDBMan@@UAEHK@Z 00447060 f   Lib_Network:s_COdbcManager.obj
 0001:00046060       ?LogVehicleAction@GLDBMan@@UAEHABUSLOGVEHICLEACTION@@@Z 00447060 f   Lib_Network:s_COdbcManager.obj
 0001:00046060       ?LogRandomItem@GLDBMan@@UAEHABUSLOGRANDOMOPTION@@@Z 00447060 f   Lib_Network:s_COdbcManager.obj
 0001:00046060       ?ThaiUserClassCheck@GLDBMan@@UAEHPBD@Z 00447060 f   Lib_Network:s_COdbcManager.obj
 0001:00046060       ?GetClubAlliance@GLDBMan@@UAEHAAV?$vector@U?$pair@KK@std@@V?$allocator@U?$pair@KK@std@@@2@@std@@@Z 00447060 f   Lib_Network:s_COdbcManager.obj
 0001:00046060       ?Render_Prev@DxWeatherMan@@UAEJPAUIDirect3DDevice9@@@Z 00447060 f   Lib_Engine:DxWeatherMan.obj
 0001:00046060       ?UserChaNumIncrease@GLDBMan@@UAEHH@Z 00447060 f   Lib_Network:s_COdbcManager.obj
 0001:00046060       ?GetClubRegion@GLDBMan@@UAEHAAV?$vector@UGLGUID_DB@@V?$allocator@UGLGUID_DB@@@std@@@std@@@Z 00447060 f   Lib_Network:s_COdbcManager.obj
 0001:00046060       ?Execute@CDbAction@@UAEHPAVCServer@@@Z 00447060 f   Lib_Network:s_CDbActionUser.obj
 0001:00046060       ?RestoreDeviceObjects@DxEffectRain@@QAEJPAUIDirect3DDevice9@@@Z 00447060 f   Lib_Engine:DxWeatherManEx.obj
 0001:00046060       ?InvalidateDeviceObjects@DxEffectRain@@QAEJPAUIDirect3DDevice9@@@Z 00447060 f   Lib_Engine:DxWeatherManEx.obj
 0001:00046060       ?CreateNewCharacter@GLDBMan@@UAEHPAUSCHARDATA2@@@Z 00447060 f   Lib_Network:s_COdbcManager.obj
 0001:00046060       ?LogAction@GLDBMan@@UAEHABUSLOGACTION@@@Z 00447060 f   Lib_Network:s_COdbcManager.obj
 0001:00046060       ?Render@DxObject@@UAEJPAUIDirect3DDevice9@@@Z 00447060 f   Lib_Engine:DxViewPort.obj
 0001:00046060       ?InitDeviceObjects@DxObject@@UAEJPAUIDirect3DDevice9@@@Z 00447060 f   Lib_Engine:DxViewPort.obj
 0001:00046070       ?DeleteDeviceObjects@DxEffectRain@@QAEJXZ 00447070 f   Lib_Engine:DxWeatherManEx.obj
 0001:00046140       ?StopSound@DxEffectRain@@QAEJXZ 00447140 f   Lib_Engine:DxWeatherManEx.obj
 0001:000461c0       ??1DxEffectCloud@@UAE@XZ   004471c0 f   Lib_Engine:DxWeatherManEx.obj
 0001:000461d0       ??0DxEffectRain@@QAE@XZ    004471d0 f   Lib_Engine:DxWeatherManEx.obj
 0001:00046260       ??_EDxEffectRain@@UAEPAXI@Z 00447260 f i Lib_Engine:DxWeatherManEx.obj
 0001:00046260       ??_GDxEffectRain@@UAEPAXI@Z 00447260 f i Lib_Engine:DxWeatherManEx.obj
 0001:00046280       ?FrameMove@DxEffectRain@@QAEJMUD3DXVECTOR3@@MH@Z 00447280 f   Lib_Engine:DxWeatherManEx.obj
 0001:00046a60       ?Render@DxEffectRain@@QAEJPAUIDirect3DDevice9@@@Z 00447a60 f   Lib_Engine:DxWeatherManEx.obj
 0001:00046d60       ??_GDxEffectCloud@@UAEPAXI@Z 00447d60 f i Lib_Engine:DxWeatherManEx.obj
 0001:00046d60       ??_EDxEffectCloud@@UAEPAXI@Z 00447d60 f i Lib_Engine:DxWeatherManEx.obj
 0001:00046d80       ?InitDeviceObjects@DxEffectRain@@QAEJPAUIDirect3DDevice9@@UD3DXVECTOR3@@M@Z 00447d80 f   Lib_Engine:DxWeatherManEx.obj
 0001:00047510       ??0DxEffectCloud@@QAE@XZ   00448510 f   Lib_Engine:DxWeatherManEx.obj
 0001:00047580       ??0DxEffectSnow@@QAE@XZ    00448580 f   Lib_Engine:DxWeatherManSnow.obj
 0001:000475a0       ??1DxEffectSnow@@UAE@XZ    004485a0 f   Lib_Engine:DxWeatherManSnow.obj
 0001:000475b0       ?FrameMove@DxEffectSnow@@QAEJMUD3DXVECTOR3@@MH@Z 004485b0 f   Lib_Engine:DxWeatherManSnow.obj
 0001:00047690       ??0DxEffectLeaves@@QAE@XZ  00448690 f   Lib_Engine:DxWeatherManSnow.obj
 0001:000476b0       ??1DxEffectLeaves@@UAE@XZ  004486b0 f   Lib_Engine:DxWeatherManSnow.obj
 0001:000476c0       ?FrameMove@DxEffectLeaves@@QAEJMUD3DXVECTOR3@@MH@Z 004486c0 f   Lib_Engine:DxWeatherManSnow.obj
 0001:000477a0       ??_EDxEffectSnow@@UAEPAXI@Z 004487a0 f i Lib_Engine:DxWeatherManSnow.obj
 0001:000477a0       ??_GDxEffectSnow@@UAEPAXI@Z 004487a0 f i Lib_Engine:DxWeatherManSnow.obj
 0001:000477c0       ??_EDxEffectLeaves@@UAEPAXI@Z 004487c0 f i Lib_Engine:DxWeatherManSnow.obj
 0001:000477c0       ??_GDxEffectLeaves@@UAEPAXI@Z 004487c0 f i Lib_Engine:DxWeatherManSnow.obj
 0001:000477e0       ?_Max@?$_Tree@V?$_Tmap_traits@KUCOUNTVERTEXFACE@NSCHARSG@@U?$less@K@std@@V?$allocator@U?$pair@$$CBKUCOUNTVERTEXFACE@NSCHARSG@@@std@@@4@$0A@@std@@@std@@KAPAU_Node@?$_Tree_nod@V?$_Tmap_traits@KUCOUNTVERTEXFACE@NSCHARSG@@U?$less@K@std@@V?$allocator@U?$pair@$$CBKUCOUNTVERTEXFACE@NSCHARSG@@@std@@@4@$0A@@std@@@2@PAU342@@Z 004487e0 f i Lib_Engine:NsSMeshSceneGraph.obj
 0001:000477e0       ?_Max@?$_Tree@V?$_Tmap_traits@KUSMTH@GLPeriod@@U?$less@K@std@@V?$allocator@U?$pair@$$CBKUSMTH@GLPeriod@@@std@@@4@$0A@@std@@@std@@KAPAU_Node@?$_Tree_nod@V?$_Tmap_traits@KUSMTH@GLPeriod@@U?$less@K@std@@V?$allocator@U?$pair@$$CBKUSMTH@GLPeriod@@@std@@@4@$0A@@std@@@2@PAU342@@Z 004487e0 f i Lib_Engine:GLPeriod.obj
 0001:00047800       ?_Rrotate@?$_Tree@V?$_Tmap_traits@KUSMTH@GLPeriod@@U?$less@K@std@@V?$allocator@U?$pair@$$CBKUSMTH@GLPeriod@@@std@@@4@$0A@@std@@@std@@IAEXPAU_Node@?$_Tree_nod@V?$_Tmap_traits@KUSMTH@GLPeriod@@U?$less@K@std@@V?$allocator@U?$pair@$$CBKUSMTH@GLPeriod@@@std@@@4@$0A@@std@@@2@@Z 00448800 f i Lib_Engine:GLPeriod.obj
 0001:00047800       ?_Rrotate@?$_Tree@V?$_Tmap_traits@KUCOUNTVERTEXFACE@NSCHARSG@@U?$less@K@std@@V?$allocator@U?$pair@$$CBKUCOUNTVERTEXFACE@NSCHARSG@@@std@@@4@$0A@@std@@@std@@IAEXPAU_Node@?$_Tree_nod@V?$_Tmap_traits@KUCOUNTVERTEXFACE@NSCHARSG@@U?$less@K@std@@V?$allocator@U?$pair@$$CBKUCOUNTVERTEXFACE@NSCHARSG@@@std@@@4@$0A@@std@@@2@@Z 00448800 f i Lib_Engine:NsSMeshSceneGraph.obj
 0001:00047860       ?_Max@?$_Tree@V?$_Tmap_traits@KUIDFACE@@U?$less@K@std@@V?$allocator@U?$pair@$$CBKUIDFACE@@@std@@@3@$00@std@@@std@@KAPAU_Node@?$_Tree_nod@V?$_Tmap_traits@KUIDFACE@@U?$less@K@std@@V?$allocator@U?$pair@$$CBKUIDFACE@@@std@@@3@$00@std@@@2@PAU342@@Z 00448860 f i Lib_Engine:NsSMeshSceneGraph.obj
 0001:00047880       ?_Min@?$_Tree@V?$_Tmap_traits@KUIDFACE@@U?$less@K@std@@V?$allocator@U?$pair@$$CBKUIDFACE@@@std@@@3@$00@std@@@std@@KAPAU_Node@?$_Tree_nod@V?$_Tmap_traits@KUIDFACE@@U?$less@K@std@@V?$allocator@U?$pair@$$CBKUIDFACE@@@std@@@3@$00@std@@@2@PAU342@@Z 00448880 f i Lib_Engine:NsSMeshSceneGraph.obj
 0001:000478a0       ?_Inc@const_iterator@?$_Tree@V?$_Tmap_traits@KUIDFACE@@U?$less@K@std@@V?$allocator@U?$pair@$$CBKUIDFACE@@@std@@@3@$00@std@@@std@@QAEXXZ 004488a0 f i Lib_Engine:NsSMeshSceneGraph.obj
 0001:00047900       ?_Lrotate@?$_Tree@V?$_Tmap_traits@KUCOUNTVERTEXFACE@NSCHARSG@@U?$less@K@std@@V?$allocator@U?$pair@$$CBKUCOUNTVERTEXFACE@NSCHARSG@@@std@@@4@$0A@@std@@@std@@IAEXPAU_Node@?$_Tree_nod@V?$_Tmap_traits@KUCOUNTVERTEXFACE@NSCHARSG@@U?$less@K@std@@V?$allocator@U?$pair@$$CBKUCOUNTVERTEXFACE@NSCHARSG@@@std@@@4@$0A@@std@@@2@@Z 00448900 f i Lib_Engine:NsSMeshSceneGraph.obj
 0001:00047900       ?_Lrotate@?$_Tree@V?$_Tmap_traits@KUSMTH@GLPeriod@@U?$less@K@std@@V?$allocator@U?$pair@$$CBKUSMTH@GLPeriod@@@std@@@4@$0A@@std@@@std@@IAEXPAU_Node@?$_Tree_nod@V?$_Tmap_traits@KUSMTH@GLPeriod@@U?$less@K@std@@V?$allocator@U?$pair@$$CBKUSMTH@GLPeriod@@@std@@@4@$0A@@std@@@2@@Z 00448900 f i Lib_Engine:GLPeriod.obj
 0001:00047960       ?_Lrotate@?$_Tree@V?$_Tmap_traits@KUIDFACE@@U?$less@K@std@@V?$allocator@U?$pair@$$CBKUIDFACE@@@std@@@3@$00@std@@@std@@IAEXPAU_Node@?$_Tree_nod@V?$_Tmap_traits@KUIDFACE@@U?$less@K@std@@V?$allocator@U?$pair@$$CBKUIDFACE@@@std@@@3@$00@std@@@2@@Z 00448960 f i Lib_Engine:NsSMeshSceneGraph.obj
 0001:000479c0       ?_Rrotate@?$_Tree@V?$_Tmap_traits@KUIDFACE@@U?$less@K@std@@V?$allocator@U?$pair@$$CBKUIDFACE@@@std@@@3@$00@std@@@std@@IAEXPAU_Node@?$_Tree_nod@V?$_Tmap_traits@KUIDFACE@@U?$less@K@std@@V?$allocator@U?$pair@$$CBKUIDFACE@@@std@@@3@$00@std@@@2@@Z 004489c0 f i Lib_Engine:NsSMeshSceneGraph.obj
 0001:00047a20       ?_Erase@?$_Tree@V?$_Tmap_traits@KUIDFACE@@U?$less@K@std@@V?$allocator@U?$pair@$$CBKUIDFACE@@@std@@@3@$00@std@@@std@@IAEXPAU_Node@?$_Tree_nod@V?$_Tmap_traits@KUIDFACE@@U?$less@K@std@@V?$allocator@U?$pair@$$CBKUIDFACE@@@std@@@3@$00@std@@@2@@Z 00448a20 f i Lib_Engine:NsSMeshSceneGraph.obj
 0001:00047a60       ?_Erase@?$_Tree@V?$_Tmap_traits@KUCOUNTVERTEXFACE@NSCHARSG@@U?$less@K@std@@V?$allocator@U?$pair@$$CBKUCOUNTVERTEXFACE@NSCHARSG@@@std@@@4@$0A@@std@@@std@@IAEXPAU_Node@?$_Tree_nod@V?$_Tmap_traits@KUCOUNTVERTEXFACE@NSCHARSG@@U?$less@K@std@@V?$allocator@U?$pair@$$CBKUCOUNTVERTEXFACE@NSCHARSG@@@std@@@4@$0A@@std@@@2@@Z 00448a60 f i Lib_Engine:NsSMeshSceneGraph.obj
 0001:00047aa0       ?_Buynode@?$_Tree@V?$_Tmap_traits@KUIDFACE@@U?$less@K@std@@V?$allocator@U?$pair@$$CBKUIDFACE@@@std@@@3@$00@std@@@std@@IAEPAU_Node@?$_Tree_nod@V?$_Tmap_traits@KUIDFACE@@U?$less@K@std@@V?$allocator@U?$pair@$$CBKUIDFACE@@@std@@@3@$00@std@@@2@XZ 00448aa0 f i Lib_Engine:NsSMeshSceneGraph.obj
 0001:00047ae0       ??$for_each@Viterator@?$vector@PAUAttributeIB@@V?$allocator@PAUAttributeIB@@@std@@@std@@UDeleteObject@std_afunc@@@std@@YA?AUDeleteObject@std_afunc@@Viterator@?$vector@PAUAttributeIB@@V?$allocator@PAUAttributeIB@@@std@@@0@0U12@@Z 00448ae0 f i Lib_Engine:NsSMeshSceneGraph.obj
 0001:00047b20       ?erase@?$_Tree@V?$_Tmap_traits@KUCOUNTVERTEXFACE@NSCHARSG@@U?$less@K@std@@V?$allocator@U?$pair@$$CBKUCOUNTVERTEXFACE@NSCHARSG@@@std@@@4@$0A@@std@@@std@@QAE?AViterator@12@V312@@Z 00448b20 f i Lib_Engine:NsSMeshSceneGraph.obj
 0001:00047df0       ?find@?$_Tree@V?$_Tmap_traits@KUCOUNTVERTEXFACE@NSCHARSG@@U?$less@K@std@@V?$allocator@U?$pair@$$CBKUCOUNTVERTEXFACE@NSCHARSG@@@std@@@4@$0A@@std@@@std@@QAE?AViterator@12@ABK@Z 00448df0 f i Lib_Engine:NsSMeshSceneGraph.obj
 0001:00047e60       ?erase@?$_Tree@V?$_Tmap_traits@KUCOUNTVERTEXFACE@NSCHARSG@@U?$less@K@std@@V?$allocator@U?$pair@$$CBKUCOUNTVERTEXFACE@NSCHARSG@@@std@@@4@$0A@@std@@@std@@QAE?AViterator@12@V312@0@Z 00448e60 f i Lib_Engine:NsSMeshSceneGraph.obj
 0001:00047f20       ?erase@?$_Tree@V?$_Tmap_traits@KUIDFACE@@U?$less@K@std@@V?$allocator@U?$pair@$$CBKUIDFACE@@@std@@@3@$00@std@@@std@@QAE?AViterator@12@V312@@Z 00448f20 f i Lib_Engine:NsSMeshSceneGraph.obj
 0001:000481f0       ?ReleaseTexture@NSCHARSG@@YAXK@Z 004491f0 f   Lib_Engine:NsSMeshSceneGraph.obj
 0001:00048230       ?erase@?$_Tree@V?$_Tmap_traits@KUIDFACE@@U?$less@K@std@@V?$allocator@U?$pair@$$CBKUIDFACE@@@std@@@3@$00@std@@@std@@QAE?AViterator@12@V312@0@Z 00449230 f i Lib_Engine:NsSMeshSceneGraph.obj
 0001:000482f0       ?CleanUp@DxDynamicMesh@@AAEXXZ 004492f0 f   Lib_Engine:NsSMeshSceneGraph.obj
 0001:00048340       ??1DxDynamicMesh@@QAE@XZ   00449340 f   Lib_Engine:NsSMeshSceneGraph.obj
 0001:000483a0       ??1?$map@KUCOUNTVERTEXFACE@NSCHARSG@@U?$less@K@std@@V?$allocator@U?$pair@$$CBKUCOUNTVERTEXFACE@NSCHARSG@@@std@@@4@@std@@QAE@XZ 004493a0 f i Lib_Engine:NsSMeshSceneGraph.obj
 0001:000483d0       ??0?$map@KUCOUNTVERTEXFACE@NSCHARSG@@U?$less@K@std@@V?$allocator@U?$pair@$$CBKUCOUNTVERTEXFACE@NSCHARSG@@@std@@@4@@std@@QAE@XZ 004493d0 f i Lib_Engine:NsSMeshSceneGraph.obj
 0001:00048400       ??1?$multimap@KUIDFACE@@U?$less@K@std@@V?$allocator@U?$pair@$$CBKUIDFACE@@@std@@@3@@std@@QAE@XZ 00449400 f i Lib_Engine:NsSMeshSceneGraph.obj
 0001:00048430       ??0?$multimap@KUIDFACE@@U?$less@K@std@@V?$allocator@U?$pair@$$CBKUIDFACE@@@std@@@3@@std@@QAE@XZ 00449430 f i Lib_Engine:NsSMeshSceneGraph.obj
 0001:00048460       ??0SMeshDynamicRenderMan@@QAE@XZ 00449460 f   Lib_Engine:NsSMeshSceneGraph.obj
 0001:000484d0       ??$for_each@Viterator@?$vector@PAVDxDynamicMesh@@V?$allocator@PAVDxDynamicMesh@@@std@@@std@@UDeleteObject@std_afunc@@@std@@YA?AUDeleteObject@std_afunc@@Viterator@?$vector@PAVDxDynamicMesh@@V?$allocator@PAVDxDynamicMesh@@@std@@@0@0U12@@Z 004494d0 f i Lib_Engine:NsSMeshSceneGraph.obj
 0001:00048510       ??1SMeshDynamicRenderMan@@QAE@XZ 00449510 f   Lib_Engine:NsSMeshSceneGraph.obj
 0001:000485d0       ?D3DUtil_InitMaterial@@YAXAAU_D3DMATERIAL9@@MMMM@Z 004495d0 f   Lib_Engine:DXUTmisc.obj
 0001:00048620       ?D3DUtil_InitLight@@YAXAAU_D3DLIGHT9@@W4_D3DLIGHTTYPE@@MMM@Z 00449620 f   Lib_Engine:DXUTmisc.obj
 0001:00048690       ?_Erase@?$_Tree@V?$_Tmap_traits@KUOBJQUADTemp@@U?$less@K@std@@V?$allocator@U?$pair@$$CBKUOBJQUADTemp@@@std@@@3@$0A@@std@@@std@@IAEXPAU_Node@?$_Tree_nod@V?$_Tmap_traits@KUOBJQUADTemp@@U?$less@K@std@@V?$allocator@U?$pair@$$CBKUOBJQUADTemp@@@std@@@3@$0A@@std@@@2@@Z 00449690 f i Lib_Engine:DxMapEditMan.obj
 0001:000486d0       ?CameraLimitCheck@DxViewPort@@QAE_NXZ 004496d0 f   Lib_Engine:DxViewPortSetCamera.obj
 0001:000488a0       ?RestoreBuffer@CSound@@IAEJPAUIDirectSoundBuffer@@PAH@Z 004498a0 f   Lib_Engine:dsutil.obj
 0001:00048920       ?GetFreeBuffer@CSound@@QAEPAUIDirectSoundBuffer@@AAK@Z 00449920 f   Lib_Engine:dsutil.obj
 0001:00048970       ?GetBuffer@CSound@@QAEPAUIDirectSoundBuffer@@K@Z 00449970 f   Lib_Engine:dsutil.obj
 0001:00048990       ?Stop@CSound@@QAEJXZ       00449990 f   Lib_Engine:dsutil.obj
 0001:000489d0       ?StopBuffer@CSound@@QAEJK@Z 004499d0 f   Lib_Engine:dsutil.obj
 0001:00048a20       ?Reset@CSound@@QAEJXZ      00449a20 f   Lib_Engine:dsutil.obj
 0001:00048a60       ?ResetBuffer@CSound@@QAEJK@Z 00449a60 f   Lib_Engine:dsutil.obj
 0001:00048aa0       ?IsSoundPlayingBuffer@CSound@@QAEHK@Z 00449aa0 f   Lib_Engine:dsutil.obj
 0001:00048af0       ?ReadMMIO@CWaveFile@@IAEJXZ 00449af0 f   Lib_Engine:dsutil.obj
 0001:00048c70       ?ResetFile@CWaveFile@@QAEJXZ 00449c70 f   Lib_Engine:dsutil.obj
 0001:00048d20       ?Read@CWaveFile@@QAEJPAEKPAK@Z 00449d20 f   Lib_Engine:dsutil.obj
 0001:00048e80       ?Close@CWaveFile@@QAEJXZ   00449e80 f   Lib_Engine:dsutil.obj
 0001:00048fa0       ?WriteMMIO@CWaveFile@@IAEJPAUtWAVEFORMATEX@@@Z 00449fa0 f   Lib_Engine:dsutil.obj
 0001:000490d0       ?FillBufferWithSound@CSound@@QAEJPAUIDirectSoundBuffer@@H@Z 0044a0d0 f   Lib_Engine:dsutil.obj
 0001:00049280       ?PlayBuffer@CSound@@QAEJAAKKK@Z 0044a280 f   Lib_Engine:dsutil.obj
 0001:00049310       ?Open@CWaveFile@@QAEJPADPAUtWAVEFORMATEX@@K@Z 0044a310 f   Lib_Engine:dsutil.obj
 0001:00049500       ??_GCWaveFile@@QAEPAXI@Z   0044a500 f i Lib_Engine:dsutil.obj
 0001:00049540       ??0CSound@@QAE@PAPAUIDirectSoundBuffer@@KKPAVCWaveFile@@@Z 0044a540 f   Lib_Engine:dsutil.obj
 0001:000495d0       ??1CSound@@UAE@XZ          0044a5d0 f   Lib_Engine:dsutil.obj
 0001:00049680       ?Create@CSoundManager@@QAEJPAPAVCSound@@PADKU_GUID@@K@Z 0044a680 f   Lib_Engine:dsutil.obj
 0001:000498a0       ??_ECSound@@UAEPAXI@Z      0044a8a0 f i Lib_Engine:dsutil.obj
 0001:000498a0       ??_GCSound@@UAEPAXI@Z      0044a8a0 f i Lib_Engine:dsutil.obj
 0001:000498c0       ??0CMemoryTexture@@QAE@XZ  0044a8c0 f   Lib_Engine:MemoryTexture.obj
 0001:000498d0       ??1CMemoryTexture@@QAE@XZ  0044a8d0 f   Lib_Engine:MemoryTexture.obj
 0001:000498f0       ?DecryptTexture@CMemoryTexture@@QAE_NPAU_iobuf@@AAH@Z 0044a8f0 f   Lib_Engine:MemoryTexture.obj
 0001:000499c0       ?LoadFileDec@CMemoryTexture@@QAE_NPBD@Z 0044a9c0 f   Lib_Engine:MemoryTexture.obj
 0001:00049a40       ?_Inc@const_iterator@?$_Tree@V?$_Tmap_traits@KPAVGLQUESTPROG@@U?$less@K@std@@V?$allocator@U?$pair@$$CBKPAVGLQUESTPROG@@@std@@@3@$0A@@std@@@std@@QAEXXZ 0044aa40 f i Lib_Client:GLCharEx.obj
 0001:00049a40       ?_Inc@const_iterator@?$_Tree@V?$_Tmap_traits@HHU?$less@H@std@@V?$allocator@U?$pair@$$CBHH@std@@@2@$0A@@std@@@std@@QAEXXZ 0044aa40 f i Lib_Network:s_CClientManager.obj
 0001:00049a40       ?_Inc@const_iterator@?$_Tree@V?$_Tmap_traits@U?$pair@GG@std@@PAUSINVENITEM@@U?$less@U?$pair@GG@std@@@2@V?$allocator@U?$pair@$$CBU?$pair@GG@std@@PAUSINVENITEM@@@std@@@2@$0A@@std@@@std@@QAEXXZ 0044aa40 f i Lib_Client:GLCharData.obj
 0001:00049a40       ?_Inc@const_iterator@?$_Tree@V?$_Tmap_traits@MPAVDXLIGHT@@U?$less@M@std@@V?$allocator@U?$pair@$$CBMPAVDXLIGHT@@@std@@@3@$00@std@@@std@@QAEXXZ 0044aa40 f i Lib_Engine:DxShadowMap.obj
 0001:00049a40       ?_Inc@const_iterator@?$_Tree@V?$_Tmap_traits@KKU?$less@K@std@@V?$allocator@U?$pair@$$CBKK@std@@@2@$00@std@@@std@@QAEXXZ 0044aa40 f i Lib_Client:GLQuestMan.obj
 0001:00049a40       ?_Inc@const_iterator@?$_Tree@V?$_Tmap_traits@KUOBJQUADTemp@@U?$less@K@std@@V?$allocator@U?$pair@$$CBKUOBJQUADTemp@@@std@@@3@$0A@@std@@@std@@QAEXXZ 0044aa40 f i Lib_Engine:DxMapEditManThread.obj
 0001:00049aa0       ?erase@?$_Tree@V?$_Tmap_traits@KUOBJQUADTemp@@U?$less@K@std@@V?$allocator@U?$pair@$$CBKUOBJQUADTemp@@@std@@@3@$0A@@std@@@std@@QAE?AViterator@12@V312@@Z 0044aaa0 f i Lib_Engine:DxMapEditManThread.obj
 0001:00049d70       ?erase@?$_Tree@V?$_Tmap_traits@KUOBJQUADTemp@@U?$less@K@std@@V?$allocator@U?$pair@$$CBKUOBJQUADTemp@@@std@@@3@$0A@@std@@@std@@QAE?AViterator@12@V312@0@Z 0044ad70 f i Lib_Engine:DxQUADTree.obj
 0001:00049e30       ??1?$map@KUOBJQUADTemp@@U?$less@K@std@@V?$allocator@U?$pair@$$CBKUOBJQUADTemp@@@std@@@3@@std@@QAE@XZ 0044ae30 f i Lib_Engine:DxQUADTree.obj
 0001:00049e60       ??0?$map@KUOBJQUADTemp@@U?$less@K@std@@V?$allocator@U?$pair@$$CBKUOBJQUADTemp@@@std@@@3@@std@@QAE@XZ 0044ae60 f i Lib_Engine:DxQUADTree.obj
 0001:0004af40       _DXGetErrorString9A@4      0044bf40 f   DxErr9:dxerr9.obj
 0001:0005cbee       _D3DXVec3Normalize@8       0045dbee f   d3dx9:d3dx9_35.dll
 0001:0005cbf4       _D3DXMatrixMultiply@12     0045dbf4 f   d3dx9:d3dx9_35.dll
 0001:0005cbfa       _D3DXMatrixTranslation@16  0045dbfa f   d3dx9:d3dx9_35.dll
 0001:0005cc00       _D3DXMatrixScaling@16      0045dc00 f   d3dx9:d3dx9_35.dll
 0001:0005cc06       _D3DXGetFVFVertexSize@4    0045dc06 f   d3dx9:d3dx9_35.dll
 0001:0005cc0c       _D3DXVec3Project@24        0045dc0c f   d3dx9:d3dx9_35.dll
 0001:0005cc12       _D3DXMatrixLookAtLH@16     0045dc12 f   d3dx9:d3dx9_35.dll
 0001:0005cc18       _D3DXCreateTextureFromFileExA@56 0045dc18 f   d3dx9:d3dx9_35.dll
 0001:0005cc1e       _D3DXCreateTextureFromFileInMemoryEx@60 0045dc1e f   d3dx9:d3dx9_35.dll
 0001:0005cc24       _D3DXCreateCubeTextureFromFileExA@52 0045dc24 f   d3dx9:d3dx9_35.dll
 0001:0005cc2a       _D3DXCreateCubeTextureFromFileInMemoryEx@56 0045dc2a f   d3dx9:d3dx9_35.dll
 0001:0005cc30       ??0CCSAuth2@@QAE@XZ        0045dc30 f   ggsrvlib:ggsrv.obj
 0001:0005cc40       ??1CCSAuth2@@QAE@XZ        0045dc40 f   ggsrvlib:ggsrv.obj
 0001:0005cc50       ?Init@CCSAuth2@@QAEXXZ     0045dc50 f   ggsrvlib:ggsrv.obj
 0001:0005ccb0       ?Close@CCSAuth2@@QAEXXZ    0045dcb0 f   ggsrvlib:ggsrv.obj
 0001:0005cd40       __lzo_config_check         0045dd40 f   lzo2:lzo_init.obj
 0001:0005cd90       ___lzo_init_v2             0045dd90 f   lzo2:lzo_init.obj
 0001:0005ce30       _lzo1x_decompress_safe     0045de30 f   lzo2:lzo1x_d2.obj
 0001:0005d220       __vorbis_block_alloc       0045e220 f   vorbisfile_static:block.obj
 0001:0005d290       __vp_remove_floor          0045e290 f   vorbisfile_static:psy.obj
 0001:0005d2f0       __vp_noisemask             0045e2f0 f   vorbisfile_static:psy.obj
 0001:0005d9b0       __vp_tonemask              0045e9b0 f   vorbisfile_static:psy.obj
 0001:0005dea0       __vp_offset_and_mix        0045eea0 f   vorbisfile_static:psy.obj
 0001:0005df30       __vp_quantize_couple_memo  0045ef30 f   vorbisfile_static:psy.obj
 0001:0005e1e0       __vp_quantize_couple_sort  0045f1e0 f   vorbisfile_static:psy.obj
 0001:0005e390       __vp_noise_normalize_sort  0045f390 f   vorbisfile_static:psy.obj
 0001:0005e460       __vp_noise_normalize       0045f460 f   vorbisfile_static:psy.obj
 0001:0005e6d0       __vp_couple                0045f6d0 f   vorbisfile_static:psy.obj
 0001:0005ec00       __ilog                     0045fc00 f   vorbisfile_static:sharedbook.obj
 0001:0005ec10       _vorbis_book_encode        0045fc10 f   vorbisfile_static:codebook.obj
 0001:0005ec50       _vorbis_book_decode        0045fc50 f   vorbisfile_static:codebook.obj
 0001:0005ede0       _vorbis_book_decodevs_add  0045fde0 f   vorbisfile_static:codebook.obj
 0001:0005efe0       _vorbis_book_decodev_add   0045ffe0 f   vorbisfile_static:codebook.obj
 0001:0005f370       _vorbis_book_decodev_set   00460370 f   vorbisfile_static:codebook.obj
 0001:0005f4f0       _vorbis_book_decodevv_add  004604f0 f   vorbisfile_static:codebook.obj
 0001:0005f6b0       _vorbis_bitrate_managed    004606b0 f   vorbisfile_static:bitrate.obj
 0001:0005f6d0       _drft_forward              004606d0 f   vorbisfile_static:smallft.obj
 0001:00060a90       _mdct_backward             00461a90 f   vorbisfile_static:mdct.obj
 0001:00061650       _mdct_forward              00462650 f   vorbisfile_static:mdct.obj
 0001:00061ad0       __vorbis_apply_window      00462ad0 f   vorbisfile_static:window.obj
 0001:00062c80       _res0_free_info            00463c80 f   vorbisfile_static:res0.obj
 0001:00062ca0       _res0_free_look            00463ca0 f   vorbisfile_static:res0.obj
 0001:00062d20       _res0_pack                 00463d20 f   vorbisfile_static:res0.obj
 0001:00062e30       _res0_unpack               00463e30 f   vorbisfile_static:res0.obj
 0001:00062f70       _res0_look                 00463f70 f   vorbisfile_static:res0.obj
 0001:00063150       _res0_inverse              00464150 f   vorbisfile_static:res0.obj
 0001:000633d0       _res1_forward              004643d0 f   vorbisfile_static:res0.obj
 0001:00063980       _res1_class                00464980 f   vorbisfile_static:res0.obj
 0001:00063c10       _res1_inverse              00464c10 f   vorbisfile_static:res0.obj
 0001:00063c70       _res2_class                00464c70 f   vorbisfile_static:res0.obj
 0001:00063e50       _res2_forward              00464e50 f   vorbisfile_static:res0.obj
 0001:00063fb0       _res2_inverse              00464fb0 f   vorbisfile_static:res0.obj
 0001:000647c0       _floor1_fit                004657c0 f   vorbisfile_static:floor1.obj
 0001:00065360       _floor1_interpolate_fit    00466360 f   vorbisfile_static:floor1.obj
 0001:00065410       _floor1_encode             00466410 f   vorbisfile_static:floor1.obj
 0001:000663e0       _vorbis_lsp_to_curve       004673e0 f   vorbisfile_static:lsp.obj
 0001:00066560       _vorbis_coslook            00467560 f   vorbisfile_static:lsp.obj
 0001:000665b0       _vorbis_invsqlook          004675b0 f   vorbisfile_static:lsp.obj
 0001:00066600       _vorbis_invsq2explook      00467600 f   vorbisfile_static:lsp.obj
 0001:00066610       _vorbis_fromdBlook         00467610 f   vorbisfile_static:lsp.obj
 0001:00066670       _oggpack_write             00467670 f   ogg_static:bitwise.obj
 0001:00066770       _oggpack_writealign        00467770 f   ogg_static:bitwise.obj
 0001:00066790       _oggpack_look              00467790 f   ogg_static:bitwise.obj
 0001:00066840       _oggpack_adv               00467840 f   ogg_static:bitwise.obj
 0001:00066870       _oggpack_read              00467870 f   ogg_static:bitwise.obj
 0001:00066940       _oggpack_bytes             00467940 f   ogg_static:bitwise.obj
 0001:00066960       ?AfxThrowInvalidArgException@@YGXXZ 00467960 f   mfc71:MFC71.DLL
 0001:00066966       ?AfxGetModuleState@@YGPAVAFX_MODULE_STATE@@XZ 00467966 f   mfc71:MFC71.DLL
 0001:0006696c       ??3@YAXPAX@Z               0046796c f   mfc71:MFC71.DLL
 0001:00066972       ??2@YAPAXI@Z               00467972 f   mfc71:MFC71.DLL
 0001:00066978       ??1CStringArray@@UAE@XZ    00467978 f   mfc71:MFC71.DLL
 0001:0006697e       ??0CStringArray@@QAE@XZ    0046797e f   mfc71:MFC71.DLL
 0001:00066984       ?AfxWinInit@@YGHPAUHINSTANCE__@@0PADH@Z 00467984 f   mfc71:MFC71.DLL
 0001:0006698a       ??0CWinApp@@QAE@PBD@Z      0046798a f   mfc71:MFC71.DLL
 0001:00066990       ??1CWinApp@@UAE@XZ         00467990 f   mfc71:MFC71.DLL
 0001:00066996       ?AfxThrowOleException@@YGXJ@Z 00467996 f   mfc71:MFC71.DLL
 0001:0006699c       ?AfxThrowMemoryException@@YGXXZ 0046799c f   mfc71:MFC71.DLL
 0001:000669a2       ?RemoveKey@CMapStringToPtr@@QAEHPBD@Z 004679a2 f   mfc71:MFC71.DLL
 0001:000669a8       ??0CMapStringToPtr@@QAE@H@Z 004679a8 f   mfc71:MFC71.DLL
 0001:000669ae       ?GetNextAssoc@CMapStringToPtr@@QBEXAAPAU__POSITION@@AAV?$CStringT@DV?$StrTraitMFC_DLL@DV?$ChTraitsCRT@D@ATL@@@@@ATL@@AAPAX@Z 004679ae f   mfc71:MFC71.DLL
 0001:000669b4       ??_V@YAXPAX@Z              004679b4 f   mfc71:MFC71.DLL
 0001:000669ba       ??_U@YAPAXI@Z              004679ba f   mfc71:MFC71.DLL
 0001:000669c0       ??1CMapStringToPtr@@UAE@XZ 004679c0 f   mfc71:MFC71.DLL
 0001:000669c6       ?SetSize@CStringArray@@QAEXHH@Z 004679c6 f   mfc71:MFC71.DLL
 0001:000669cc       ?SetAtGrow@CStringArray@@QAEXHABV?$CStringT@DV?$StrTraitMFC_DLL@DV?$ChTraitsCRT@D@ATL@@@@@ATL@@@Z 004679cc f   mfc71:MFC71.DLL
 0001:000669e0       ??0CComCriticalSection@ATL@@QAE@XZ 004679e0 f i mfcs71:stdafx.obj
 0001:000669f4       ?Init@CComCriticalSection@ATL@@QAEJXZ 004679f4 f i mfcs71:stdafx.obj
 0001:00066a44       ___CxxFrameHandler         00467a44 f   msvcrt:MSVCR71.dll
 0001:00066a50       __onexit                   00467a50 f   msvcrt:atonexit.obj
 0001:00066a76       _atexit                    00467a76 f   msvcrt:atonexit.obj
 0001:00066a88       _malloc                    00467a88 f   msvcrt:MSVCR71.dll
 0001:00066a8e       _free                      00467a8e f   msvcrt:MSVCR71.dll
 0001:00066a94       __except_handler3          00467a94 f   msvcrt:MSVCR71.dll
 0001:00066aa0       __chkstk                   00467aa0 f   msvcrt:chkstk.obj
 0001:00066aa0       __alloca_probe             00467aa0     msvcrt:chkstk.obj
 0001:00066ade       ??0exception@@QAE@ABV0@@Z  00467ade f   msvcrt:MSVCR71.dll
 0001:00066ae4       ??_Etype_info@@UAEPAXI@Z   00467ae4 f i msvcrt:ti_inst.obj
 0001:00066b30       __CxxThrowException@8      00467b30 f   msvcrt:MSVCR71.dll
 0001:00066b36       _WinMainCRTStartup         00467b36 f   msvcrt:crtexew.obj
 0001:00066d38       __ftol2                    00467d38 f   msvcrt:ftol2.obj
 0001:00066dae       __purecall                 00467dae f   msvcrt:MSVCR71.dll
 0001:00066dc0       __alldiv                   00467dc0 f   msvcrt:lldiv.obj
 0001:00066e6a       ?__ArrayUnwind@@YGXPAXIHP6EX0@Z@Z 00467e6a f   msvcrt:ehvecdtr.obj
 0001:00066ec8       ??_M@YGXPAXIHP6EX0@Z@Z     00467ec8 f   msvcrt:ehvecdtr.obj
 0001:00066f28       ??_L@YGXPAXIHP6EX0@Z1@Z    00467f28 f   msvcrt:ehvecctr.obj
 0001:00066f8a       _sprintf                   00467f8a f   msvcrt:MSVCR71.dll
 0001:00066f90       __allshr                   00467f90 f   msvcrt:llshr.obj
 0001:00066fc0       __allmul                   00467fc0 f   msvcrt:llmul.obj
 0001:00066ff4       _floor                     00467ff4 f   msvcrt:MSVCR71.dll
 0001:00066ffa       __controlfp                00467ffa f   msvcrt:MSVCR71.dll
 0001:00067000       __alldvrm                  00468000 f   msvcrt:lldvrm.obj
 0001:000670e0       __CIacos                   004680e0 f   msvcrt:MSVCR71.dll
 0001:000670e6       __CIasin                   004680e6 f   msvcrt:MSVCR71.dll
 0001:000670f0       __allrem                   004680f0 f   msvcrt:llrem.obj
 0001:000671a2       __CIpow                    004681a2 f   msvcrt:MSVCR71.dll
 0001:000671a8       _realloc                   004681a8 f   msvcrt:MSVCR71.dll
 0001:000671ae       _qsort                     004681ae f   msvcrt:MSVCR71.dll
 0001:000671e5       @__security_check_cookie@4 004681e5 f   msvcrt:secchk.obj
 0001:000671f4       __ftol                     004681f4 f   msvcrt:MSVCR71.dll
 0001:000671fa       _calloc                    004681fa f   msvcrt:MSVCR71.dll
 0001:00067200       _exit                      00468200 f   msvcrt:MSVCR71.dll
 0001:00067206       _frexp                     00468206 f   msvcrt:MSVCR71.dll
 0001:00067210       __allshl                   00468210 f   msvcrt:llshl.obj
 0001:00067230       __SEH_prolog               00468230 f   msvcrt:sehprolg.obj
 0001:0006726b       __SEH_epilog               0046826b f   msvcrt:sehprolg.obj
 0001:0006727c       _memset                    0046827c f   msvcrt:MSVCR71.dll
 0001:00067284       __EH_prolog                00468284 f   msvcrt:ehprolog.obj
 0001:000672a4       ___dllonexit               004682a4 f   msvcrt:MSVCR71.dll
 0001:000672aa       ??1type_info@@UAE@XZ       004682aa f   msvcrt:MSVCR71.dll
 0001:000672b0       __XcptFilter               004682b0 f   msvcrt:MSVCR71.dll
 0001:000672b6       __amsg_exit                004682b6 f   msvcrt:MSVCR71.dll
 0001:000672bc       __RTC_Initialize           004682bc f   msvcrt:initsect.obj
 0001:00067300       __RTC_Terminate            00468300 f   msvcrt:initsect.obj
 0001:00067344       __initterm                 00468344 f   msvcrt:MSVCR71.dll
 0001:0006734a       __setdefaultprecision      0046834a f   msvcrt:fp8.obj
 0001:0006735c       __setargv                  0046835c f   msvcrt:dllargv.obj
 0001:0006735c       __matherr                  0046835c f   msvcrt:merr.obj
 0001:00067360       ?terminate@@YAXXZ          00468360 f   msvcrt:MSVCR71.dll
 0001:00067366       ___security_init_cookie    00468366 f   msvcrt:seccinit.obj
 0001:000673cc       ___security_error_handler  004683cc f   msvcrt:MSVCR71.dll
 0001:000673d2       ?imbue@?$basic_streambuf@DU?$char_traits@D@std@@@std@@MAEXABVlocale@2@@Z 004683d2 f   msvcprt:MSVCP71.dll
 0001:000673d8       ?sync@?$basic_streambuf@DU?$char_traits@D@std@@@std@@MAEHXZ 004683d8 f   msvcprt:MSVCP71.dll
 0001:000673de       ?setbuf@?$basic_streambuf@DU?$char_traits@D@std@@@std@@MAEPAV12@PADH@Z 004683de f   msvcprt:MSVCP71.dll
 0001:000673e4       ?seekpos@strstreambuf@std@@MAE?AV?$fpos@H@2@V32@H@Z 004683e4 f   msvcprt:MSVCP71.dll
 0001:000673ea       ?seekoff@strstreambuf@std@@MAE?AV?$fpos@H@2@JHH@Z 004683ea f   msvcprt:MSVCP71.dll
 0001:000673f0       ?xsputn@?$basic_streambuf@DU?$char_traits@D@std@@@std@@MAEHPBDH@Z 004683f0 f   msvcprt:MSVCP71.dll
 0001:000673f6       ?xsgetn@?$basic_streambuf@DU?$char_traits@D@std@@@std@@MAEHPADH@Z 004683f6 f   msvcprt:MSVCP71.dll
 0001:000673fc       ?uflow@?$basic_streambuf@DU?$char_traits@D@std@@@std@@MAEHXZ 004683fc f   msvcprt:MSVCP71.dll
 0001:00067402       ?underflow@strstreambuf@std@@MAEHXZ 00468402 f   msvcprt:MSVCP71.dll
 0001:00067408       ?showmanyc@?$basic_streambuf@DU?$char_traits@D@std@@@std@@MAEHXZ 00468408 f   msvcprt:MSVCP71.dll
 0001:0006740e       ?pbackfail@strstreambuf@std@@MAEHH@Z 0046840e f   msvcprt:MSVCP71.dll
 0001:00067414       ?overflow@strstreambuf@std@@MAEHH@Z 00468414 f   msvcprt:MSVCP71.dll
 0001:0006741a       _SQLGetDiagRec@32          0046841a f   odbc32:ODBC32.dll
 0001:00067420       _SQLGetDiagField@28        00468420 f   odbc32:ODBC32.dll
 0001:00067426       _SQLGetData@24             00468426 f   odbc32:ODBC32.dll
 0001:0006742c       _SQLFetch@4                0046842c f   odbc32:ODBC32.dll
 0001:00067432       _SQLExecDirect@12          00468432 f   odbc32:ODBC32.dll
 0001:00067438       _SQLConnect@28             00468438 f   odbc32:ODBC32.dll
 0001:0006743e       _SQLFreeHandle@8           0046843e f   odbc32:ODBC32.dll
 0001:00067444       _SQLSetConnectAttr@16      00468444 f   odbc32:ODBC32.dll
 0001:0006744a       _SQLAllocHandle@12         0046844a f   odbc32:ODBC32.dll
 0001:00067450       _SQLDisconnect@4           00468450 f   odbc32:ODBC32.dll
 0001:00067456       _SQLCloseCursor@4          00468456 f   odbc32:ODBC32.dll
 0001:0006745c       _SQLExecute@4              0046845c f   odbc32:ODBC32.dll
 0001:00067462       _SQLPrepare@12             00468462 f   odbc32:ODBC32.dll
 0001:00067468       _SQLBindParameter@40       00468468 f   odbc32:ODBC32.dll
 0001:0006746e       _SQLPutData@12             0046846e f   odbc32:ODBC32.dll
 0001:00067474       _SQLParamData@8            00468474 f   odbc32:ODBC32.dll
 0001:0006747a       _SQLSetEnvAttr@16          0046847a f   odbc32:ODBC32.dll
 0001:00067480       ?_com_issue_error@@YGXJ@Z  00468480 f   comsupp:comsupp.obj
 0001:00067490       ?_com_raise_error@@YGXJPAUIErrorInfo@@@Z 00468490 f   comsupp:comraise.obj
 0001:000674d0       ??0_com_error@@QAE@ABV0@@Z 004684d0 f i comsupp:comraise.obj
 0001:000677f0       _crc32@12                  004687f0 f   Unzip:crc32.obj
 0001:00068490       _inflate_fast              00469490     Unzip:inffas32.obj
 0001:00068c30       _adler32@12                00469c30 f   Unzip:adler32.obj
 0001:0006a1e0       __tr_stored_block          0046b1e0 f   Unzip:trees.obj
 0001:0006a280       __tr_flush_block           0046b280 f   Unzip:trees.obj
 0001:0006a470       _longest_match_c           0046b470 f   Unzip:gvmat32c.obj
 0001:0006a5b0       _longest_match             0046b5b0 f   Unzip:gvmat32c.obj
 0001:0006a61c       _longest_match_7fff        0046b61c f   Unzip:gvmat32.obj
 0001:0006aafd       _cpudetect32               0046bafd f   Unzip:gvmat32.obj
 0001:0006ab3b       _longest_match_686         0046bb3b f   Unzip:gvmat32.obj
 0001:0006ad25       ?RemoveAll@?$CSimpleArray@PAUHINSTANCE__@@V?$CSimpleArrayEqualHelper@PAUHINSTANCE__@@@ATL@@@ATL@@QAEXXZ 0046bd25 f i atls:atlbase.obj
 0001:0006ad42       ??0_ATL_BASE_MODULE70@ATL@@QAE@XZ 0046bd42 f i atls:atlbase.obj
 0001:0006ad5c       ??1CAtlBaseModule@ATL@@QAE@XZ 0046bd5c f   atls:atlbase.obj
 0001:0006ad72       ??0CAtlBaseModule@ATL@@QAE@XZ 0046bd72 f   atls:atlbase.obj
 0001:0006ae20       _NpLog                     0046be20 f   Lib_Network:ggsrv.obj
 0002:00000000       __imp__BT_SetSupportURL@4  004f9000     BugTrap:BugTrap.dll
 0002:00000004       __imp__BT_SetFlags@4       004f9004     BugTrap:BugTrap.dll
 0002:00000008       __imp__BT_SetSupportEMail@4 004f9008     BugTrap:BugTrap.dll
 0002:0000000c       __imp__BT_SetAppName@4     004f900c     BugTrap:BugTrap.dll
 0002:00000010       __imp__BT_InstallSehFilter@0 004f9010     BugTrap:BugTrap.dll
 0002:00000014       __imp__BT_SetSupportServer@8 004f9014     BugTrap:BugTrap.dll
 0002:00000018       \177BugTrap_NULL_THUNK_DATA 004f9018     BugTrap:BugTrap.dll
 0002:0000001c       __imp__ExitProcess@4       004f901c     kernel32:KERNEL32.dll
 0002:00000020       __imp__GetStartupInfoA@4   004f9020     kernel32:KERNEL32.dll
 0002:00000024       __imp__FindResourceA@12    004f9024     kernel32:KERNEL32.dll
 0002:00000028       __imp__LoadResource@8      004f9028     kernel32:KERNEL32.dll
 0002:0000002c       __imp__SizeofResource@8    004f902c     kernel32:KERNEL32.dll
 0002:00000030       __imp__LockResource@4      004f9030     kernel32:KERNEL32.dll
 0002:00000034       __imp__IsDBCSLeadByteEx@8  004f9034     kernel32:KERNEL32.dll
 0002:00000038       __imp__GetSystemTimeAsFileTime@4 004f9038     kernel32:KERNEL32.dll
 0002:0000003c       __imp__GetCurrentThreadId@0 004f903c     kernel32:KERNEL32.dll
 0002:00000040       __imp__GetCurrentProcessId@0 004f9040     kernel32:KERNEL32.dll
 0002:00000044       __imp__GlobalAlloc@8       004f9044     kernel32:KERNEL32.dll
 0002:00000048       __imp__GlobalLock@4        004f9048     kernel32:KERNEL32.dll
 0002:0000004c       __imp__GlobalUnlock@4      004f904c     kernel32:KERNEL32.dll
 0002:00000050       __imp__OutputDebugStringA@4 004f9050     kernel32:KERNEL32.dll
 0002:00000054       __imp__QueryPerformanceFrequency@4 004f9054     kernel32:KERNEL32.dll
 0002:00000058       __imp__QueryPerformanceCounter@4 004f9058     kernel32:KERNEL32.dll
 0002:0000005c       __imp__LocalFree@4         004f905c     kernel32:KERNEL32.dll
 0002:00000060       __imp__GetCurrentProcess@0 004f9060     kernel32:KERNEL32.dll
 0002:00000064       __imp__GetPriorityClass@4  004f9064     kernel32:KERNEL32.dll
 0002:00000068       __imp__SetPriorityClass@8  004f9068     kernel32:KERNEL32.dll
 0002:0000006c       __imp__GetSystemInfo@4     004f906c     kernel32:KERNEL32.dll
 0002:00000070       __imp__InitializeCriticalSection@4 004f9070     kernel32:KERNEL32.dll
 0002:00000074       __imp__DeleteCriticalSection@4 004f9074     kernel32:KERNEL32.dll
 0002:00000078       __imp__HeapFree@12         004f9078     kernel32:KERNEL32.dll
 0002:0000007c       __imp__GetProcessHeap@0    004f907c     kernel32:KERNEL32.dll
 0002:00000080       __imp__HeapAlloc@12        004f9080     kernel32:KERNEL32.dll
 0002:00000084       __imp__PostQueuedCompletionStatus@16 004f9084     kernel32:KERNEL32.dll
 0002:00000088       __imp__CreateEventA@16     004f9088     kernel32:KERNEL32.dll
 0002:0000008c       __imp__SetThreadPriority@8 004f908c     kernel32:KERNEL32.dll
 0002:00000090       __imp__ResumeThread@4      004f9090     kernel32:KERNEL32.dll
 0002:00000094       __imp__SetThreadIdealProcessor@8 004f9094     kernel32:KERNEL32.dll
 0002:00000098       __imp__GetTickCount@0      004f9098     kernel32:KERNEL32.dll
 0002:0000009c       __imp__GetQueuedCompletionStatus@20 004f909c     kernel32:KERNEL32.dll
 0002:000000a0       __imp__CreateIoCompletionPort@16 004f90a0     kernel32:KERNEL32.dll
 0002:000000a4       __imp__EnterCriticalSection@4 004f90a4     kernel32:KERNEL32.dll
 0002:000000a8       __imp__LeaveCriticalSection@4 004f90a8     kernel32:KERNEL32.dll
 0002:000000ac       __imp__SetEvent@4          004f90ac     kernel32:KERNEL32.dll
 0002:000000b0       __imp__WaitForSingleObject@8 004f90b0     kernel32:KERNEL32.dll
 0002:000000b4       __imp__CloseHandle@4       004f90b4     kernel32:KERNEL32.dll
 0002:000000b8       __imp__Sleep@4             004f90b8     kernel32:KERNEL32.dll
 0002:000000bc       __imp__GetLastError@0      004f90bc     kernel32:KERNEL32.dll
 0002:000000c0       __imp__GetCommandLineA@0   004f90c0     kernel32:KERNEL32.dll
 0002:000000c4       __imp__GetModuleHandleA@4  004f90c4     kernel32:KERNEL32.dll
 0002:000000c8       __imp__lstrcpyA@8          004f90c8     kernel32:KERNEL32.dll
 0002:000000cc       __imp__GetModuleFileNameA@12 004f90cc     kernel32:KERNEL32.dll
 0002:000000d0       __imp__GetCurrentDirectoryA@8 004f90d0     kernel32:KERNEL32.dll
 0002:000000d4       __imp__GetVersionExA@4     004f90d4     kernel32:KERNEL32.dll
 0002:000000d8       \177KERNEL32_NULL_THUNK_DATA 004f90d8     kernel32:KERNEL32.dll
 0002:000000dc       __imp_?AfxThrowInvalidArgException@@YGXXZ 004f90dc     mfc71:MFC71.DLL
 0002:000000e0       __imp_?AfxGetModuleState@@YGPAVAFX_MODULE_STATE@@XZ 004f90e0     mfc71:MFC71.DLL
 0002:000000e4       __imp_??0?$CStringT@DV?$StrTraitMFC_DLL@DV?$ChTraitsCRT@D@ATL@@@@@ATL@@QAE@ABV01@@Z 004f90e4     mfc71:MFC71.DLL
 0002:000000e8       __imp_??0?$CStringT@DV?$StrTraitMFC_DLL@DV?$ChTraitsCRT@D@ATL@@@@@ATL@@QAE@PBD@Z 004f90e8     mfc71:MFC71.DLL
 0002:000000ec       __imp_?Right@?$CStringT@DV?$StrTraitMFC_DLL@DV?$ChTraitsCRT@D@ATL@@@@@ATL@@QBE?AV12@H@Z 004f90ec     mfc71:MFC71.DLL
 0002:000000f0       __imp_?GetLength@?$CSimpleStringT@D$00@ATL@@QBEHXZ 004f90f0     mfc71:MFC71.DLL
 0002:000000f4       __imp_?GetAt@?$CSimpleStringT@D$00@ATL@@QBEDH@Z 004f90f4     mfc71:MFC71.DLL
 0002:000000f8       __imp_??1?$CStringT@DV?$StrTraitMFC_DLL@DV?$ChTraitsCRT@D@ATL@@@@@ATL@@QAE@XZ 004f90f8     mfc71:MFC71.DLL
 0002:000000fc       __imp_??4?$CStringT@DV?$StrTraitMFC_DLL@DV?$ChTraitsCRT@D@ATL@@@@@ATL@@QAEAAV01@ABV01@@Z 004f90fc     mfc71:MFC71.DLL
 0002:00000100       __imp_?Left@?$CStringT@DV?$StrTraitMFC_DLL@DV?$ChTraitsCRT@D@ATL@@@@@ATL@@QBE?AV12@H@Z 004f9100     mfc71:MFC71.DLL
 0002:00000104       __imp_?ReverseFind@?$CStringT@DV?$StrTraitMFC_DLL@DV?$ChTraitsCRT@D@ATL@@@@@ATL@@QBEHD@Z 004f9104     mfc71:MFC71.DLL
 0002:00000108       __imp_?IsEmpty@?$CSimpleStringT@D$00@ATL@@QBE_NXZ 004f9108     mfc71:MFC71.DLL
 0002:0000010c       __imp_??4?$CStringT@DV?$StrTraitMFC_DLL@DV?$ChTraitsCRT@D@ATL@@@@@ATL@@QAEAAV01@PBD@Z 004f910c     mfc71:MFC71.DLL
 0002:00000110       __imp_??0?$CStringT@DV?$StrTraitMFC_DLL@DV?$ChTraitsCRT@D@ATL@@@@@ATL@@QAE@XZ 004f9110     mfc71:MFC71.DLL
 0002:00000114       __imp_??3@YAXPAX@Z         004f9114     mfc71:MFC71.DLL
 0002:00000118       __imp_??2@YAPAXI@Z         004f9118     mfc71:MFC71.DLL
 0002:0000011c       __imp_?Compare@?$CStringT@DV?$StrTraitMFC_DLL@DV?$ChTraitsCRT@D@ATL@@@@@ATL@@QBEHPBD@Z 004f911c     mfc71:MFC71.DLL
 0002:00000120       __imp_??1CStringArray@@UAE@XZ 004f9120     mfc71:MFC71.DLL
 0002:00000124       __imp_??0CStringArray@@QAE@XZ 004f9124     mfc71:MFC71.DLL
 0002:00000128       __imp_?AfxWinInit@@YGHPAUHINSTANCE__@@0PADH@Z 004f9128     mfc71:MFC71.DLL
 0002:0000012c       __imp_??0CWinApp@@QAE@PBD@Z 004f912c     mfc71:MFC71.DLL
 0002:00000130       __imp_??1CWinApp@@UAE@XZ   004f9130     mfc71:MFC71.DLL
 0002:00000134       __imp_?AfxThrowOleException@@YGXJ@Z 004f9134     mfc71:MFC71.DLL
 0002:00000138       __imp_?AfxThrowMemoryException@@YGXXZ 004f9138     mfc71:MFC71.DLL
 0002:0000013c       __imp_??B?$CSimpleStringT@D$00@ATL@@QBEPBDXZ 004f913c     mfc71:MFC71.DLL
 0002:00000140       __imp_?RemoveKey@CMapStringToPtr@@QAEHPBD@Z 004f9140     mfc71:MFC71.DLL
 0002:00000144       __imp_??0CMapStringToPtr@@QAE@H@Z 004f9144     mfc71:MFC71.DLL
 0002:00000148       __imp_?GetNextAssoc@CMapStringToPtr@@QBEXAAPAU__POSITION@@AAV?$CStringT@DV?$StrTraitMFC_DLL@DV?$ChTraitsCRT@D@ATL@@@@@ATL@@AAPAX@Z 004f9148     mfc71:MFC71.DLL
 0002:0000014c       __imp_?GetString@?$CSimpleStringT@D$00@ATL@@QBEPBDXZ 004f914c     mfc71:MFC71.DLL
 0002:00000150       __imp_?Format@?$CStringT@DV?$StrTraitMFC_DLL@DV?$ChTraitsCRT@D@ATL@@@@@ATL@@QAAXPBDZZ 004f9150     mfc71:MFC71.DLL
 0002:00000154       __imp_??Y?$CStringT@DV?$StrTraitMFC_DLL@DV?$ChTraitsCRT@D@ATL@@@@@ATL@@QAEAAV01@PBD@Z 004f9154     mfc71:MFC71.DLL
 0002:00000158       __imp_??_V@YAXPAX@Z        004f9158     mfc71:MFC71.DLL
 0002:0000015c       __imp_??_U@YAPAXI@Z        004f915c     mfc71:MFC71.DLL
 0002:00000160       __imp_?GetBuffer@?$CSimpleStringT@D$00@ATL@@QAEPADXZ 004f9160     mfc71:MFC71.DLL
 0002:00000164       __imp_?Trim@?$CStringT@DV?$StrTraitMFC_DLL@DV?$ChTraitsCRT@D@ATL@@@@@ATL@@QAEAAV12@PBD@Z 004f9164     mfc71:MFC71.DLL
 0002:00000168       __imp_??1CMapStringToPtr@@UAE@XZ 004f9168     mfc71:MFC71.DLL
 0002:0000016c       __imp_?Replace@?$CStringT@DV?$StrTraitMFC_DLL@DV?$ChTraitsCRT@D@ATL@@@@@ATL@@QAEHPBD0@Z 004f916c     mfc71:MFC71.DLL
 0002:00000170       __imp_??0?$CStringT@DV?$StrTraitMFC_DLL@DV?$ChTraitsCRT@D@ATL@@@@@ATL@@QAE@PBE@Z 004f9170     mfc71:MFC71.DLL
 0002:00000174       __imp_??4?$CStringT@DV?$StrTraitMFC_DLL@DV?$ChTraitsCRT@D@ATL@@@@@ATL@@QAEAAV01@PBE@Z 004f9174     mfc71:MFC71.DLL
 0002:00000178       __imp_?Concatenate@?$CSimpleStringT@D$00@ATL@@KAXAAV12@PBDH1H@Z 004f9178     mfc71:MFC71.DLL
 0002:0000017c       __imp_?StringLength@?$CSimpleStringT@D$00@ATL@@SAHPBD@Z 004f917c     mfc71:MFC71.DLL
 0002:00000180       __imp_??0?$CStringT@DV?$StrTraitMFC_DLL@DV?$ChTraitsCRT@D@ATL@@@@@ATL@@QAE@PAUIAtlStringMgr@1@@Z 004f9180     mfc71:MFC71.DLL
 0002:00000184       __imp_?GetManager@?$CSimpleStringT@D$00@ATL@@QBEPAUIAtlStringMgr@2@XZ 004f9184     mfc71:MFC71.DLL
 0002:00000188       __imp_??Y?$CStringT@DV?$StrTraitMFC_DLL@DV?$ChTraitsCRT@D@ATL@@@@@ATL@@QAEAAV01@D@Z 004f9188     mfc71:MFC71.DLL
 0002:0000018c       __imp_?SetSize@CStringArray@@QAEXHH@Z 004f918c     mfc71:MFC71.DLL
 0002:00000190       __imp_?SetAtGrow@CStringArray@@QAEXHABV?$CStringT@DV?$StrTraitMFC_DLL@DV?$ChTraitsCRT@D@ATL@@@@@ATL@@@Z 004f9190     mfc71:MFC71.DLL
 0002:00000194       \177MFC71_NULL_THUNK_DATA  004f9194     mfc71:MFC71.DLL
 0002:00000198       __imp_?erase@?$basic_string@DU?$char_traits@D@std@@V?$allocator@D@2@@std@@QAEAAV12@II@Z 004f9198     msvcprt:MSVCP71.dll
 0002:0000019c       __imp_?npos@?$basic_string@DU?$char_traits@D@std@@V?$allocator@D@2@@std@@2IB 004f919c     msvcprt:MSVCP71.dll
 0002:000001a0       __imp_?size@?$basic_string@DU?$char_traits@D@std@@V?$allocator@D@2@@std@@QBEIXZ 004f91a0     msvcprt:MSVCP71.dll
 0002:000001a4       __imp_??A?$basic_string@DU?$char_traits@D@std@@V?$allocator@D@2@@std@@QBEABDI@Z 004f91a4     msvcprt:MSVCP71.dll
 0002:000001a8       __imp_?c_str@?$basic_string@DU?$char_traits@D@std@@V?$allocator@D@2@@std@@QBEPBDXZ 004f91a8     msvcprt:MSVCP71.dll
 0002:000001ac       __imp_?compare@?$basic_string@DU?$char_traits@D@std@@V?$allocator@D@2@@std@@QBEHABV12@@Z 004f91ac     msvcprt:MSVCP71.dll
 0002:000001b0       __imp_?rfind@?$basic_string@DU?$char_traits@D@std@@V?$allocator@D@2@@std@@QBEIDI@Z 004f91b0     msvcprt:MSVCP71.dll
 0002:000001b4       __imp_?find_last_of@?$basic_string@DU?$char_traits@D@std@@V?$allocator@D@2@@std@@QBEIPBDI@Z 004f91b4     msvcprt:MSVCP71.dll
 0002:000001b8       __imp_??$?MDU?$char_traits@D@std@@V?$allocator@D@1@@std@@YA_NABV?$basic_string@DU?$char_traits@D@std@@V?$allocator@D@2@@0@0@Z 004f91b8     msvcprt:MSVCP71.dll
 0002:000001bc       __imp_??4?$basic_string@DU?$char_traits@D@std@@V?$allocator@D@2@@std@@QAEAAV01@ABV01@@Z 004f91bc     msvcprt:MSVCP71.dll
 0002:000001c0       __imp_?imbue@?$basic_streambuf@DU?$char_traits@D@std@@@std@@MAEXABVlocale@2@@Z 004f91c0     msvcprt:MSVCP71.dll
 0002:000001c4       __imp_?sync@?$basic_streambuf@DU?$char_traits@D@std@@@std@@MAEHXZ 004f91c4     msvcprt:MSVCP71.dll
 0002:000001c8       __imp_?setbuf@?$basic_streambuf@DU?$char_traits@D@std@@@std@@MAEPAV12@PADH@Z 004f91c8     msvcprt:MSVCP71.dll
 0002:000001cc       __imp_?seekpos@strstreambuf@std@@MAE?AV?$fpos@H@2@V32@H@Z 004f91cc     msvcprt:MSVCP71.dll
 0002:000001d0       __imp_?seekoff@strstreambuf@std@@MAE?AV?$fpos@H@2@JHH@Z 004f91d0     msvcprt:MSVCP71.dll
 0002:000001d4       __imp_?xsputn@?$basic_streambuf@DU?$char_traits@D@std@@@std@@MAEHPBDH@Z 004f91d4     msvcprt:MSVCP71.dll
 0002:000001d8       __imp_?xsgetn@?$basic_streambuf@DU?$char_traits@D@std@@@std@@MAEHPADH@Z 004f91d8     msvcprt:MSVCP71.dll
 0002:000001dc       __imp_?uflow@?$basic_streambuf@DU?$char_traits@D@std@@@std@@MAEHXZ 004f91dc     msvcprt:MSVCP71.dll
 0002:000001e0       __imp_?underflow@strstreambuf@std@@MAEHXZ 004f91e0     msvcprt:MSVCP71.dll
 0002:000001e4       __imp_?showmanyc@?$basic_streambuf@DU?$char_traits@D@std@@@std@@MAEHXZ 004f91e4     msvcprt:MSVCP71.dll
 0002:000001e8       __imp_?pbackfail@strstreambuf@std@@MAEHH@Z 004f91e8     msvcprt:MSVCP71.dll
 0002:000001ec       __imp_?overflow@strstreambuf@std@@MAEHH@Z 004f91ec     msvcprt:MSVCP71.dll
 0002:000001f0       __imp_??1?$basic_streambuf@DU?$char_traits@D@std@@@std@@UAE@XZ 004f91f0     msvcprt:MSVCP71.dll
 0002:000001f4       __imp_?_Init@strstreambuf@std@@IAEXHPAD0H@Z 004f91f4     msvcprt:MSVCP71.dll
 0002:000001f8       __imp_??0?$basic_streambuf@DU?$char_traits@D@std@@@std@@IAE@XZ 004f91f8     msvcprt:MSVCP71.dll
 0002:000001fc       __imp_??1strstreambuf@std@@UAE@XZ 004f91fc     msvcprt:MSVCP71.dll
 0002:00000200       __imp_??1?$basic_iostream@DU?$char_traits@D@std@@@std@@UAE@XZ 004f9200     msvcprt:MSVCP71.dll
 0002:00000204       __imp_??1?$basic_ios@DU?$char_traits@D@std@@@std@@UAE@XZ 004f9204     msvcprt:MSVCP71.dll
 0002:00000208       __imp_??0?$basic_iostream@DU?$char_traits@D@std@@@std@@QAE@PAV?$basic_streambuf@DU?$char_traits@D@std@@@1@@Z 004f9208     msvcprt:MSVCP71.dll
 0002:0000020c       __imp_??0?$basic_ios@DU?$char_traits@D@std@@@std@@IAE@XZ 004f920c     msvcprt:MSVCP71.dll
 0002:00000210       __imp_??1strstream@std@@UAE@XZ 004f9210     msvcprt:MSVCP71.dll
 0002:00000214       __imp_??4?$basic_string@DU?$char_traits@D@std@@V?$allocator@D@2@@std@@QAEAAV01@PBD@Z 004f9214     msvcprt:MSVCP71.dll
 0002:00000218       __imp_??0?$basic_string@DU?$char_traits@D@std@@V?$allocator@D@2@@std@@QAE@XZ 004f9218     msvcprt:MSVCP71.dll
 0002:0000021c       __imp_?gptr@?$basic_streambuf@DU?$char_traits@D@std@@@std@@IBEPADXZ 004f921c     msvcprt:MSVCP71.dll
 0002:00000220       __imp_?freeze@strstreambuf@std@@QAEX_N@Z 004f9220     msvcprt:MSVCP71.dll
 0002:00000224       __imp_??6?$basic_ostream@DU?$char_traits@D@std@@@std@@QAEAAV01@P6AAAV01@AAV01@@Z@Z 004f9224     msvcprt:MSVCP71.dll
 0002:00000228       __imp_?ends@std@@YAAAV?$basic_ostream@DU?$char_traits@D@std@@@1@AAV21@@Z 004f9228     msvcprt:MSVCP71.dll
 0002:0000022c       __imp_??$?6U?$char_traits@D@std@@@std@@YAAAV?$basic_ostream@DU?$char_traits@D@std@@@0@AAV10@PBD@Z 004f922c     msvcprt:MSVCP71.dll
 0002:00000230       __imp_??6?$basic_ostream@DU?$char_traits@D@std@@@std@@QAEAAV01@H@Z 004f9230     msvcprt:MSVCP71.dll
 0002:00000234       __imp_?find@?$basic_string@DU?$char_traits@D@std@@V?$allocator@D@2@@std@@QBEIPBDI@Z 004f9234     msvcprt:MSVCP71.dll
 0002:00000238       __imp_??$?8DU?$char_traits@D@std@@V?$allocator@D@1@@std@@YA_NABV?$basic_string@DU?$char_traits@D@std@@V?$allocator@D@2@@0@0@Z 004f9238     msvcprt:MSVCP71.dll
 0002:0000023c       __imp_??$?8DU?$char_traits@D@std@@V?$allocator@D@1@@std@@YA_NABV?$basic_string@DU?$char_traits@D@std@@V?$allocator@D@2@@0@PBD@Z 004f923c     msvcprt:MSVCP71.dll
 0002:00000240       __imp_?clear@?$basic_string@DU?$char_traits@D@std@@V?$allocator@D@2@@std@@QAEXXZ 004f9240     msvcprt:MSVCP71.dll
 0002:00000244       __imp_??_D?$basic_ifstream@DU?$char_traits@D@std@@@std@@QAEXXZ 004f9244     msvcprt:MSVCP71.dll
 0002:00000248       __imp_??_D?$basic_ofstream@DU?$char_traits@D@std@@@std@@QAEXXZ 004f9248     msvcprt:MSVCP71.dll
 0002:0000024c       __imp_?close@?$basic_ofstream@DU?$char_traits@D@std@@@std@@QAEXXZ 004f924c     msvcprt:MSVCP71.dll
 0002:00000250       __imp_?close@?$basic_ifstream@DU?$char_traits@D@std@@@std@@QAEXXZ 004f9250     msvcprt:MSVCP71.dll
 0002:00000254       __imp_?write@?$basic_ostream@DU?$char_traits@D@std@@@std@@QAEAAV12@PBDH@Z 004f9254     msvcprt:MSVCP71.dll
 0002:00000258       __imp_??0?$basic_ofstream@DU?$char_traits@D@std@@@std@@QAE@PBDHH@Z 004f9258     msvcprt:MSVCP71.dll
 0002:0000025c       __imp_??7ios_base@std@@QBE_NXZ 004f925c     msvcprt:MSVCP71.dll
 0002:00000260       __imp_??0?$basic_ifstream@DU?$char_traits@D@std@@@std@@QAE@PBDHH@Z 004f9260     msvcprt:MSVCP71.dll
 0002:00000264       __imp_?read@?$basic_istream@DU?$char_traits@D@std@@@std@@QAEAAV12@PADH@Z 004f9264     msvcprt:MSVCP71.dll
 0002:00000268       __imp_?append@?$basic_string@DU?$char_traits@D@std@@V?$allocator@D@2@@std@@QAEAAV12@PBDI@Z 004f9268     msvcprt:MSVCP71.dll
 0002:0000026c       __imp_?find@?$basic_string@DU?$char_traits@D@std@@V?$allocator@D@2@@std@@QBEIDI@Z 004f926c     msvcprt:MSVCP71.dll
 0002:00000270       __imp_?good@ios_base@std@@QBE_NXZ 004f9270     msvcprt:MSVCP71.dll
 0002:00000274       __imp_??0?$basic_string@GU?$char_traits@G@std@@V?$allocator@G@2@@std@@QAE@PBG@Z 004f9274     msvcprt:MSVCP71.dll
 0002:00000278       __imp_??1?$basic_string@GU?$char_traits@G@std@@V?$allocator@G@2@@std@@QAE@XZ 004f9278     msvcprt:MSVCP71.dll
 0002:0000027c       __imp_??Y?$basic_string@DU?$char_traits@D@std@@V?$allocator@D@2@@std@@QAEAAV01@D@Z 004f927c     msvcprt:MSVCP71.dll
 0002:00000280       __imp_??Y?$basic_string@DU?$char_traits@D@std@@V?$allocator@D@2@@std@@QAEAAV01@PBD@Z 004f9280     msvcprt:MSVCP71.dll
 0002:00000284       __imp_??0?$basic_string@DU?$char_traits@D@std@@V?$allocator@D@2@@std@@QAE@ABV01@@Z 004f9284     msvcprt:MSVCP71.dll
 0002:00000288       __imp_??Y?$basic_string@DU?$char_traits@D@std@@V?$allocator@D@2@@std@@QAEAAV01@ABV01@@Z 004f9288     msvcprt:MSVCP71.dll
 0002:0000028c       __imp_??0?$basic_string@DU?$char_traits@D@std@@V?$allocator@D@2@@std@@QAE@PBD@Z 004f928c     msvcprt:MSVCP71.dll
 0002:00000290       __imp_??1?$basic_string@DU?$char_traits@D@std@@V?$allocator@D@2@@std@@QAE@XZ 004f9290     msvcprt:MSVCP71.dll
 0002:00000294       __imp_?rfind@?$basic_string@DU?$char_traits@D@std@@V?$allocator@D@2@@std@@QBEIPBDI@Z 004f9294     msvcprt:MSVCP71.dll
 0002:00000298       __imp_?append@?$basic_string@DU?$char_traits@D@std@@V?$allocator@D@2@@std@@QAEAAV12@PBD@Z 004f9298     msvcprt:MSVCP71.dll
 0002:0000029c       __imp_?bad@ios_base@std@@QBE_NXZ 004f929c     msvcprt:MSVCP71.dll
 0002:000002a0       __imp_?eof@ios_base@std@@QBE_NXZ 004f92a0     msvcprt:MSVCP71.dll
 0002:000002a4       __imp_?get@?$basic_istream@DU?$char_traits@D@std@@@std@@QAEHXZ 004f92a4     msvcprt:MSVCP71.dll
 0002:000002a8       __imp_?peek@?$basic_istream@DU?$char_traits@D@std@@@std@@QAEHXZ 004f92a8     msvcprt:MSVCP71.dll
 0002:000002ac       __imp_?assign@?$basic_string@DU?$char_traits@D@std@@V?$allocator@D@2@@std@@QAEAAV12@PBDI@Z 004f92ac     msvcprt:MSVCP71.dll
 0002:000002b0       __imp_?at@?$basic_string@DU?$char_traits@D@std@@V?$allocator@D@2@@std@@QAEAADI@Z 004f92b0     msvcprt:MSVCP71.dll
 0002:000002b4       __imp_??A?$basic_string@DU?$char_traits@D@std@@V?$allocator@D@2@@std@@QAEAADI@Z 004f92b4     msvcprt:MSVCP71.dll
 0002:000002b8       \177MSVCP71_NULL_THUNK_DATA 004f92b8     msvcprt:MSVCP71.dll
 0002:000002bc       __imp___mbstok             004f92bc     msvcrt:MSVCR71.dll
 0002:000002c0       __imp____CxxFrameHandler   004f92c0     msvcrt:MSVCR71.dll
 0002:000002c4       __imp__malloc              004f92c4     msvcrt:MSVCR71.dll
 0002:000002c8       __imp__free                004f92c8     msvcrt:MSVCR71.dll
 0002:000002cc       __imp___except_handler3    004f92cc     msvcrt:MSVCR71.dll
 0002:000002d0       __imp_??0exception@@QAE@ABV0@@Z 004f92d0     msvcrt:MSVCR71.dll
 0002:000002d4       __imp___CxxThrowException@8 004f92d4     msvcrt:MSVCR71.dll
 0002:000002d8       __imp__strstr              004f92d8     msvcrt:MSVCR71.dll
 0002:000002dc       __imp__strtok              004f92dc     msvcrt:MSVCR71.dll
 0002:000002e0       __imp___vsnprintf          004f92e0     msvcrt:MSVCR71.dll
 0002:000002e4       __imp_??1exception@@UAE@XZ 004f92e4     msvcrt:MSVCR71.dll
 0002:000002e8       __imp_??0exception@@QAE@XZ 004f92e8     msvcrt:MSVCR71.dll
 0002:000002ec       __imp___beginthreadex      004f92ec     msvcrt:MSVCR71.dll
 0002:000002f0       __imp___purecall           004f92f0     msvcrt:MSVCR71.dll
 0002:000002f4       __imp__atoi                004f92f4     msvcrt:MSVCR71.dll
 0002:000002f8       __imp__fclose              004f92f8     msvcrt:MSVCR71.dll
 0002:000002fc       __imp__fgets               004f92fc     msvcrt:MSVCR71.dll
 0002:00000300       __imp__fopen               004f9300     msvcrt:MSVCR71.dll
 0002:00000304       __imp__memmove             004f9304     msvcrt:MSVCR71.dll
 0002:00000308       __imp___time64             004f9308     msvcrt:MSVCR71.dll
 0002:0000030c       __imp__srand               004f930c     msvcrt:MSVCR71.dll
 0002:00000310       __imp__time                004f9310     msvcrt:MSVCR71.dll
 0002:00000314       __imp__fwrite              004f9314     msvcrt:MSVCR71.dll
 0002:00000318       __imp___mktime64           004f9318     msvcrt:MSVCR71.dll
 0002:0000031c       __imp__strftime            004f931c     msvcrt:MSVCR71.dll
 0002:00000320       __imp___localtime64        004f9320     msvcrt:MSVCR71.dll
 0002:00000324       __imp___snprintf           004f9324     msvcrt:MSVCR71.dll
 0002:00000328       __imp__sprintf             004f9328     msvcrt:MSVCR71.dll
 0002:0000032c       __imp__localtime           004f932c     msvcrt:MSVCR71.dll
 0002:00000330       __imp__fprintf             004f9330     msvcrt:MSVCR71.dll
 0002:00000334       __imp__difftime            004f9334     msvcrt:MSVCR71.dll
 0002:00000338       __imp__strncpy             004f9338     msvcrt:MSVCR71.dll
 0002:0000033c       __imp__floor               004f933c     msvcrt:MSVCR71.dll
 0002:00000340       __imp__rand                004f9340     msvcrt:MSVCR71.dll
 0002:00000344       __imp___controlfp          004f9344     msvcrt:MSVCR71.dll
 0002:00000348       __imp___CIacos             004f9348     msvcrt:MSVCR71.dll
 0002:0000034c       __imp___CIasin             004f934c     msvcrt:MSVCR71.dll
 0002:00000350       __imp__tolower             004f9350     msvcrt:MSVCR71.dll
 0002:00000354       __imp___strlwr             004f9354     msvcrt:MSVCR71.dll
 0002:00000358       __imp__fread               004f9358     msvcrt:MSVCR71.dll
 0002:0000035c       __imp__ftell               004f935c     msvcrt:MSVCR71.dll
 0002:00000360       __imp__fseek               004f9360     msvcrt:MSVCR71.dll
 0002:00000364       __imp__isspace             004f9364     msvcrt:MSVCR71.dll
 0002:00000368       __imp__isalpha             004f9368     msvcrt:MSVCR71.dll
 0002:0000036c       __imp__isalnum             004f936c     msvcrt:MSVCR71.dll
 0002:00000370       __imp__strncmp             004f9370     msvcrt:MSVCR71.dll
 0002:00000374       __imp__strchr              004f9374     msvcrt:MSVCR71.dll
 0002:00000378       __imp___CIpow              004f9378     msvcrt:MSVCR71.dll
 0002:0000037c       __imp__realloc             004f937c     msvcrt:MSVCR71.dll
 0002:00000380       __imp__qsort               004f9380     msvcrt:MSVCR71.dll
 0002:00000384       __imp___ftol               004f9384     msvcrt:MSVCR71.dll
 0002:00000388       __imp__calloc              004f9388     msvcrt:MSVCR71.dll
 0002:0000038c       __imp__exit                004f938c     msvcrt:MSVCR71.dll
 0002:00000390       __imp__frexp               004f9390     msvcrt:MSVCR71.dll
 0002:00000394       __imp__memset              004f9394     msvcrt:MSVCR71.dll
 0002:00000398       __imp____dllonexit         004f9398     msvcrt:MSVCR71.dll
 0002:0000039c       __imp___onexit             004f939c     msvcrt:MSVCR71.dll
 0002:000003a0       __imp_??1type_info@@UAE@XZ 004f93a0     msvcrt:MSVCR71.dll
 0002:000003a4       __imp___c_exit             004f93a4     msvcrt:MSVCR71.dll
 0002:000003a8       __imp___exit               004f93a8     msvcrt:MSVCR71.dll
 0002:000003ac       __imp___XcptFilter         004f93ac     msvcrt:MSVCR71.dll
 0002:000003b0       __imp___ismbblead          004f93b0     msvcrt:MSVCR71.dll
 0002:000003b4       __imp___cexit              004f93b4     msvcrt:MSVCR71.dll
 0002:000003b8       __imp___acmdln             004f93b8     msvcrt:MSVCR71.dll
 0002:000003bc       __imp___amsg_exit          004f93bc     msvcrt:MSVCR71.dll
 0002:000003c0       __imp____getmainargs       004f93c0     msvcrt:MSVCR71.dll
 0002:000003c4       __imp___initterm           004f93c4     msvcrt:MSVCR71.dll
 0002:000003c8       __imp____setusermatherr    004f93c8     msvcrt:MSVCR71.dll
 0002:000003cc       __imp___adjust_fdiv        004f93cc     msvcrt:MSVCR71.dll
 0002:000003d0       __imp____p__commode        004f93d0     msvcrt:MSVCR71.dll
 0002:000003d4       __imp____p__fmode          004f93d4     msvcrt:MSVCR71.dll
 0002:000003d8       __imp____set_app_type      004f93d8     msvcrt:MSVCR71.dll
 0002:000003dc       __imp_?terminate@@YAXXZ    004f93dc     msvcrt:MSVCR71.dll
 0002:000003e0       __imp____security_error_handler 004f93e0     msvcrt:MSVCR71.dll
 0002:000003e4       __imp___mbscmp             004f93e4     msvcrt:MSVCR71.dll
 0002:000003e8       \177MSVCR71_NULL_THUNK_DATA 004f93e8     msvcrt:MSVCR71.dll
 0002:000003ec       __imp__SQLGetDiagField@28  004f93ec     odbc32:ODBC32.dll
 0002:000003f0       __imp__SQLSetEnvAttr@16    004f93f0     odbc32:ODBC32.dll
 0002:000003f4       __imp__SQLParamData@8      004f93f4     odbc32:ODBC32.dll
 0002:000003f8       __imp__SQLPutData@12       004f93f8     odbc32:ODBC32.dll
 0002:000003fc       __imp__SQLBindParameter@40 004f93fc     odbc32:ODBC32.dll
 0002:00000400       __imp__SQLPrepare@12       004f9400     odbc32:ODBC32.dll
 0002:00000404       __imp__SQLExecute@4        004f9404     odbc32:ODBC32.dll
 0002:00000408       __imp__SQLCloseCursor@4    004f9408     odbc32:ODBC32.dll
 0002:0000040c       __imp__SQLDisconnect@4     004f940c     odbc32:ODBC32.dll
 0002:00000410       __imp__SQLAllocHandle@12   004f9410     odbc32:ODBC32.dll
 0002:00000414       __imp__SQLSetConnectAttr@16 004f9414     odbc32:ODBC32.dll
 0002:00000418       __imp__SQLFreeHandle@8     004f9418     odbc32:ODBC32.dll
 0002:0000041c       __imp__SQLConnect@28       004f941c     odbc32:ODBC32.dll
 0002:00000420       __imp__SQLExecDirect@12    004f9420     odbc32:ODBC32.dll
 0002:00000424       __imp__SQLFetch@4          004f9424     odbc32:ODBC32.dll
 0002:00000428       __imp__SQLGetData@24       004f9428     odbc32:ODBC32.dll
 0002:0000042c       __imp__SQLGetDiagRec@32    004f942c     odbc32:ODBC32.dll
 0002:00000430       \177ODBC32_NULL_THUNK_DATA 004f9430     odbc32:ODBC32.dll
 0002:00000434       __imp__VariantClear@4      004f9434     oleaut32:OLEAUT32.dll
 0002:00000438       \177OLEAUT32_NULL_THUNK_DATA 004f9438     oleaut32:OLEAUT32.dll
 0002:0000043c       __imp__Shell_NotifyIconA@8 004f943c     shell32:SHELL32.dll
 0002:00000440       \177SHELL32_NULL_THUNK_DATA 004f9440     shell32:SHELL32.dll
 0002:00000444       __imp__CloseClipboard@0    004f9444     user32:USER32.dll
 0002:00000448       __imp__SetClipboardData@8  004f9448     user32:USER32.dll
 0002:0000044c       __imp__EmptyClipboard@0    004f944c     user32:USER32.dll
 0002:00000450       __imp__DestroyMenu@4       004f9450     user32:USER32.dll
 0002:00000454       __imp__TrackPopupMenu@28   004f9454     user32:USER32.dll
 0002:00000458       __imp__SetForegroundWindow@4 004f9458     user32:USER32.dll
 0002:0000045c       __imp__GetCursorPos@4      004f945c     user32:USER32.dll
 0002:00000460       __imp__OpenClipboard@4     004f9460     user32:USER32.dll
 0002:00000464       __imp__wsprintfA           004f9464     user32:USER32.dll
 0002:00000468       __imp__GetWindowRect@8     004f9468     user32:USER32.dll
 0002:0000046c       __imp__SetCursorPos@8      004f946c     user32:USER32.dll
 0002:00000470       __imp__GetSubMenu@8        004f9470     user32:USER32.dll
 0002:00000474       __imp__ShowCursor@4        004f9474     user32:USER32.dll
 0002:00000478       __imp__LoadIconA@8         004f9478     user32:USER32.dll
 0002:0000047c       __imp__ShowWindow@8        004f947c     user32:USER32.dll
 0002:00000480       __imp__SetFocus@4          004f9480     user32:USER32.dll
 0002:00000484       __imp__LoadMenuA@8         004f9484     user32:USER32.dll
 0002:00000488       __imp__SetTimer@16         004f9488     user32:USER32.dll
 0002:0000048c       __imp__SetWindowTextA@8    004f948c     user32:USER32.dll
 0002:00000490       __imp__EndDialog@8         004f9490     user32:USER32.dll
 0002:00000494       __imp__MessageBoxA@16      004f9494     user32:USER32.dll
 0002:00000498       __imp__KillTimer@8         004f9498     user32:USER32.dll
 0002:0000049c       __imp__DialogBoxParamA@20  004f949c     user32:USER32.dll
 0002:000004a0       __imp__SendMessageA@16     004f94a0     user32:USER32.dll
 0002:000004a4       __imp__SendMessageTimeoutA@28 004f94a4     user32:USER32.dll
 0002:000004a8       __imp__SendMessageCallbackA@24 004f94a8     user32:USER32.dll
 0002:000004ac       __imp__GetDlgItemTextA@16  004f94ac     user32:USER32.dll
 0002:000004b0       __imp__GetDlgItem@8        004f94b0     user32:USER32.dll
 0002:000004b4       __imp__EnableWindow@8      004f94b4     user32:USER32.dll
 0002:000004b8       __imp__ModifyMenuA@20      004f94b8     user32:USER32.dll
 0002:000004bc       __imp__SetDlgItemTextA@12  004f94bc     user32:USER32.dll
 0002:000004c0       \177USER32_NULL_THUNK_DATA 004f94c0     user32:USER32.dll
 0002:000004c4       __imp__mmioRead@12         004f94c4     winmm:WINMM.dll
 0002:000004c8       __imp__mmioCreateChunk@12  004f94c8     winmm:WINMM.dll
 0002:000004cc       __imp__mmioSeek@12         004f94cc     winmm:WINMM.dll
 0002:000004d0       __imp__mmioAscend@12       004f94d0     winmm:WINMM.dll
 0002:000004d4       __imp__mmioGetInfo@12      004f94d4     winmm:WINMM.dll
 0002:000004d8       __imp__mmioDescend@16      004f94d8     winmm:WINMM.dll
 0002:000004dc       __imp__timeGetTime@0       004f94dc     winmm:WINMM.dll
 0002:000004e0       __imp__mmioOpenA@12        004f94e0     winmm:WINMM.dll
 0002:000004e4       __imp__mmioClose@8         004f94e4     winmm:WINMM.dll
 0002:000004e8       __imp__mmioWrite@12        004f94e8     winmm:WINMM.dll
 0002:000004ec       __imp__mmioAdvance@12      004f94ec     winmm:WINMM.dll
 0002:000004f0       __imp__mmioSetInfo@12      004f94f0     winmm:WINMM.dll
 0002:000004f4       \177WINMM_NULL_THUNK_DATA  004f94f4     winmm:WINMM.dll
 0002:000004f8       __imp__closesocket@4       004f94f8     ws2_32:WS2_32.dll
 0002:000004fc       __imp__WSARecv@28          004f94fc     ws2_32:WS2_32.dll
 0002:00000500       __imp__shutdown@8          004f9500     ws2_32:WS2_32.dll
 0002:00000504       __imp__WSAGetLastError@0   004f9504     ws2_32:WS2_32.dll
 0002:00000508       __imp__WSAAccept@20        004f9508     ws2_32:WS2_32.dll
 0002:0000050c       __imp__listen@8            004f950c     ws2_32:WS2_32.dll
 0002:00000510       __imp__gethostbyname@4     004f9510     ws2_32:WS2_32.dll
 0002:00000514       __imp__gethostname@8       004f9514     ws2_32:WS2_32.dll
 0002:00000518       __imp__bind@12             004f9518     ws2_32:WS2_32.dll
 0002:0000051c       __imp__htons@4             004f951c     ws2_32:WS2_32.dll
 0002:00000520       __imp__htonl@4             004f9520     ws2_32:WS2_32.dll
 0002:00000524       __imp__inet_addr@4         004f9524     ws2_32:WS2_32.dll
 0002:00000528       __imp__WSACleanup@0        004f9528     ws2_32:WS2_32.dll
 0002:0000052c       __imp__WSASocketA@24       004f952c     ws2_32:WS2_32.dll
 0002:00000530       __imp__inet_ntoa@4         004f9530     ws2_32:WS2_32.dll
 0002:00000534       __imp__getpeername@12      004f9534     ws2_32:WS2_32.dll
 0002:00000538       __imp__WSASend@28          004f9538     ws2_32:WS2_32.dll
 0002:0000053c       __imp__WSAStartup@8        004f953c     ws2_32:WS2_32.dll
 0002:00000540       __imp__ntohs@4             004f9540     ws2_32:WS2_32.dll
 0002:00000544       \177WS2_32_NULL_THUNK_DATA 004f9544     ws2_32:WS2_32.dll
 0002:00000548       __imp__D3DXVec3Normalize@8 004f9548     d3dx9:d3dx9_35.dll
 0002:0000054c       __imp__D3DXCreateCubeTextureFromFileInMemoryEx@56 004f954c     d3dx9:d3dx9_35.dll
 0002:00000550       __imp__D3DXCreateCubeTextureFromFileExA@52 004f9550     d3dx9:d3dx9_35.dll
 0002:00000554       __imp__D3DXCreateTextureFromFileInMemoryEx@60 004f9554     d3dx9:d3dx9_35.dll
 0002:00000558       __imp__D3DXCreateTextureFromFileExA@56 004f9558     d3dx9:d3dx9_35.dll
 0002:0000055c       __imp__D3DXMatrixLookAtLH@16 004f955c     d3dx9:d3dx9_35.dll
 0002:00000560       __imp__D3DXVec3Project@24  004f9560     d3dx9:d3dx9_35.dll
 0002:00000564       __imp__D3DXGetFVFVertexSize@4 004f9564     d3dx9:d3dx9_35.dll
 0002:00000568       __imp__D3DXMatrixScaling@16 004f9568     d3dx9:d3dx9_35.dll
 0002:0000056c       __imp__D3DXMatrixTranslation@16 004f956c     d3dx9:d3dx9_35.dll
 0002:00000570       __imp__D3DXMatrixMultiply@12 004f9570     d3dx9:d3dx9_35.dll
 0002:00000574       \177d3dx9_35_NULL_THUNK_DATA 004f9574     d3dx9:d3dx9_35.dll
 0002:0000059c       ??_C@_07LDHOHMPD@restart?$AA@ 004f959c     ServerSession.obj
 0002:000005a4       ??_C@_04MKNBDEPB@exit?$AA@ 004f95a4     ServerSession.obj
 0002:000005ac       ??_C@_04PEGFANN@stop?$AA@  004f95ac     ServerSession.obj
 0002:000005b4       ??_C@_05FAGFPHJG@start?$AA@ 004f95b4     ServerSession.obj
 0002:000005bc       ??_C@_0M@KAKCAIPD@LoginServer?$AA@ 004f95bc     ServerSession.obj
 0002:000005c8       ??_C@_0O@ONPIIGBA@SessionServer?$AA@ 004f95c8     ServerSession.obj
 0002:000005d8       ??_C@_0M@HNICKDGL@FieldServer?$AA@ 004f95d8     ServerSession.obj
 0002:000005e4       ??_C@_0M@JCBHIEP@AgentServer?$AA@ 004f95e4     ServerSession.obj
 0002:000005f0       ??_C@_0BA@OAEGKFCM@LoginServer?4exe?$AA@ 004f95f0     ServerSession.obj
 0002:00000600       ??_C@_0BC@IHBOPFID@SessionServer?4exe?$AA@ 004f9600     ServerSession.obj
 0002:00000614       ??_C@_0BA@CAHJFECN@FieldServer?4exe?$AA@ 004f9614     ServerSession.obj
 0002:00000624       ??_C@_0BA@FMLHOMJK@AgentServer?4exe?$AA@ 004f9624     ServerSession.obj
 0002:00000634       ??_C@_04MOIHHPNJ@Stop?$AA@ 004f9634     ServerSession.obj
 0002:0000063c       ??_C@_05FHMJPCKA@Start?$AA@ 004f963c     ServerSession.obj
 0002:00000644       ??_C@_05PEDNBBBD@Pause?$AA@ 004f9644     ServerSession.obj
 0002:0000064c       ??_C@_06DEPGELNG@Resume?$AA@ 004f964c     ServerSession.obj
 0002:00000654       ??_C@_0O@JOLHKCCF@ServerSession?$AA@ 004f9654     ServerSession.obj
 0002:00000662       ??_C@_00CNPNBAHC@?$AA@     004f9662     ServerSession.obj
 0002:00000664       ??_C@_0BM@KJNPOHFD@Do?5you?5really?5want?5to?5exit?$DP?$AA@ 004f9664     ServerSession.obj
 0002:00000680       ??_C@_07KGMMFLDN@Warning?$AA@ 004f9680     ServerSession.obj
 0002:00000688       ??_C@_07LIHMAFKN@USE_RCC?$AA@ 004f9688     ServerSession.obj
 0002:00000690       ??_C@_07IEOAJGCN@use_rcc?$AA@ 004f9690     ServerSession.obj
 0002:00000698       ??_C@_01CLKCMJKC@?5?$AA@   004f9698     ServerSession.obj
 0002:0000069c       ??_C@_01KMDKNFGN@?1?$AA@   004f969c     ServerSession.obj
 0002:000006a0       ??_C@_0CH@DLPJBCIK@Fatal?5Error?3?5MFC?5initialization?5@ 004f96a0     ServerSession.obj
 0002:000006c8       ??_C@_05MBDEGLCK@ERROR?$AA@ 004f96c8     ServerSession.obj
 0002:000006d0       ??_7CSessionServer@@6B@    004f96d0     Lib_Network:s_CSessionServer.obj
 0002:0000070c       ??_C@_0CP@NHONACNC@ERROR?3StartClientManager?5m_pClie@ 004f970c     Lib_Network:s_CSessionServer.obj
 0002:0000073c       ??_C@_0BA@NGKGEHMN@Thai?5DB?5Open?5OK?$AA@ 004f973c     Lib_Network:s_CSessionServer.obj
 0002:0000074c       ??_C@_0BJ@NEKAGBDM@ERROR?3Thai?5DB?5Open?5Error?$AA@ 004f974c     Lib_Network:s_CSessionServer.obj
 0002:00000768       ??_C@_0BJ@EEADDJDO@ERROR?3Gsp?5db?5open?5failed?$AA@ 004f9768     Lib_Network:s_CSessionServer.obj
 0002:00000784       ??_C@_0BL@DJMCPMDA@ERROR?3Terra?5db?5open?5failed?$AA@ 004f9784     Lib_Network:s_CSessionServer.obj
 0002:000007a0       ??_C@_0BJ@OLGNGCDG@ERROR?3Log?5db?5open?5failed?$AA@ 004f97a0     Lib_Network:s_CSessionServer.obj
 0002:000007bc       ??_C@_0BK@GBOAMBEG@ERROR?3User?5db?5open?5failed?$AA@ 004f97bc     Lib_Network:s_CSessionServer.obj
 0002:000007d8       ??_C@_0BA@HFLKIFP@Server?5Start?5OK?$AA@ 004f97d8     Lib_Network:s_CSessionServer.obj
 0002:000007e8       ??_C@_0CB@HHHLKEEB@?$DN?$DN?$DN?$DN?$DN?$DN?$DN?$DN?$DN?$DN?$DN?$DN?$DN?$DN?$DN?$DN?$DN?$DN?$DN?$DN?$DN?$DN?$DN?$DN?$DN?$DN?$DN?$DN?$DN?$DN?$DN?$DN@ 004f97e8     Lib_Network:s_CSessionServer.obj
 0002:0000080c       ??_C@_0BF@GOOHNPAC@Server?5Resume?5Failed?$AA@ 004f980c     Lib_Network:s_CSessionServer.obj
 0002:00000824       ??_C@_0BB@JHJIHPDE@Server?5Resume?5OK?$AA@ 004f9824     Lib_Network:s_CSessionServer.obj
 0002:00000838       ??_C@_0M@GANEACFD@PROFILE?5OFF?$AA@ 004f9838     Lib_Network:s_CSessionServer.obj
 0002:00000844       ??_C@_0L@DDOKOIDC@PROFILE?5ON?$AA@ 004f9844     Lib_Network:s_CSessionServer.obj
 0002:00000850       ??_C@_0L@JBIAMFIF@svrcurinfo?$AA@ 004f9850     Lib_Network:s_CSessionServer.obj
 0002:0000085c       ??_C@_0M@CKNIHMBN@svrfullinfo?$AA@ 004f985c     Lib_Network:s_CSessionServer.obj
 0002:00000868       ??_C@_0BE@FBPHOAME@iplimit_exclude_del?$AA@ 004f9868     Lib_Network:s_CSessionServer.obj
 0002:0000087c       ??_C@_0BE@KPDCPAMJ@iplimit_exclude_add?$AA@ 004f987c     Lib_Network:s_CSessionServer.obj
 0002:00000890       ??_C@_0BB@CHOOIHDA@iplimit_ip_clear?$AA@ 004f9890     Lib_Network:s_CSessionServer.obj
 0002:000008a4       ??_C@_0BC@PHEBDFF@iplimit_ip_remove?$AA@ 004f98a4     Lib_Network:s_CSessionServer.obj
 0002:000008b8       ??_C@_0M@JHGANJIM@iplimit_off?$AA@ 004f98b8     Lib_Network:s_CSessionServer.obj
 0002:000008c4       ??_C@_0L@NOAIEKGO@iplimit_on?$AA@ 004f98c4     Lib_Network:s_CSessionServer.obj
 0002:000008d0       ??_C@_0O@FHGDMJCB@ipfilter_save?$AA@ 004f98d0     Lib_Network:s_CSessionServer.obj
 0002:000008e0       ??_C@_0BD@LMMNOMKM@ipfilter_del_known?$AA@ 004f98e0     Lib_Network:s_CSessionServer.obj
 0002:000008f4       ??_C@_0BD@IHFKBBON@ipfilter_del_block?$AA@ 004f98f4     Lib_Network:s_CSessionServer.obj
 0002:00000908       ??_C@_0BD@JOHKCIBO@ipfilter_add_known?$AA@ 004f9908     Lib_Network:s_CSessionServer.obj
 0002:0000091c       ??_C@_0BD@KFONNFFP@ipfilter_add_block?$AA@ 004f991c     Lib_Network:s_CSessionServer.obj
 0002:00000930       ??_C@_0M@HEMLDDJB@profile_off?$AA@ 004f9930     Lib_Network:s_CSessionServer.obj
 0002:0000093c       ??_C@_0L@BGOJEFOG@profile_on?$AA@ 004f993c     Lib_Network:s_CSessionServer.obj
 0002:00000948       ??_C@_0N@ICFNLKKJ@chat?5system?5?$AA@ 004f9948     Lib_Network:s_CSessionServer.obj
 0002:00000958       ??_C@_06FHFOAHML@system?$AA@ 004f9958     Lib_Network:s_CSessionServer.obj
 0002:00000960       ??_C@_04BLJLMHHG@chat?$AA@ 004f9960     Lib_Network:s_CSessionServer.obj
 0002:00000968       ??_C@_04CCHAHKJA@user?$AA@ 004f9968     Lib_Network:s_CSessionServer.obj
 0002:00000970       ??_C@_0L@FDBFPAFL@print_user?$AA@ 004f9970     Lib_Network:s_CSessionServer.obj
 0002:0000097c       ??_C@_08NMPFAJNH@print_ip?$AA@ 004f997c     Lib_Network:s_CSessionServer.obj
 0002:00000988       ??_C@_03GHLFAJII@req?$AA@  004f9988     Lib_Network:s_CSessionServer.obj
 0002:0000098c       ??_C@_0CJ@FKOLHGAC@?$CI?$CFs?$CJRAN?5?$CFd?5SERVER?5CLOSE?5CLIENT?5T@ 004f998c     Lib_Network:s_CSessionServer.obj
 0002:000009b8       ??_C@_0BO@HCAGCEBI@IPFILTER?5Drop?5Client?3?$CFd?5IP?3?$CFs?$AA@ 004f99b8     Lib_Network:s_CSessionServer.obj
 0002:000009d8       ??_C@_0P@PECADNOA@Server?5Stop?5OK?$AA@ 004f99d8     Lib_Network:s_CSessionServer.obj
 0002:000009e8       ??_C@_08IPKAMICC@Stop?5CFG?$AA@ 004f99e8     Lib_Network:s_CSessionServer.obj
 0002:000009f4       ??_C@_0O@EPPONEHL@Stop?5DataBase?$AA@ 004f99f4     Lib_Network:s_CSessionServer.obj
 0002:00000a04       ??_C@_0BD@MIFNNGPN@Stop?5Message?5Queue?$AA@ 004f9a04     Lib_Network:s_CSessionServer.obj
 0002:00000a18       ??_C@_09FPOFEDIP@Stop?5IOCP?$AA@ 004f9a18     Lib_Network:s_CSessionServer.obj
 0002:00000a24       ??_C@_0CC@PANINPEN@?$DN?$DN?5Please?5wait?5until?5server?5stop@ 004f9a24     Lib_Network:s_CSessionServer.obj
 0002:00000a48       ??_C@_0BA@PMAHOJP@Server?5Pause?5OK?$AA@ 004f9a48     Lib_Network:s_CSessionServer.obj
 0002:00000a58       ??_C@_0CD@BOCOJLJE@CSessionServer?3?3DatabaseProc?$CI?$CJ?5E@ 004f9a58     Lib_Network:s_CSessionServerThread.obj
 0002:00000a7c       ??_C@_0CM@LFKIPOI@CSessionServer?3?3DatabaseProc?5Exe@ 004f9a7c     Lib_Network:s_CSessionServerThread.obj
 0002:00000aa8       ??_C@_0BG@ILKKAKAM@Listen?5Thread?5Stopped?$AA@ 004f9aa8     Lib_Network:s_CSessionServerThread.obj
 0002:00000ac0       ??_C@_0DI@IJHJNLMK@CSessionServer?3?3ListenProc?5Creat@ 004f9ac0     Lib_Network:s_CSessionServerThread.obj
 0002:00000af8       ??_C@_0DF@JEEAAEMM@CSessionServer?3?3ListenProc?5Not?5a@ 004f9af8     Lib_Network:s_CSessionServerThread.obj
 0002:00000b30       ??_C@_0BD@IFDNICLM@ERROR?3WSAAccept?5?$CFd?$AA@ 004f9b30     Lib_Network:s_CSessionServerThread.obj
 0002:00000b44       ??_C@_0CO@MNEKCIF@ERROR?3WorkProc?5have?5bytes?0?5not?5s@ 004f9b44     Lib_Network:s_CSessionServerThread.obj
 0002:00000b74       ??_C@_0BK@JOEGCIAA@WorkProc?5WSARecv?5?$CFd?5ERROR?$AA@ 004f9b74     Lib_Network:s_CSessionServerThread.obj
 0002:00000b90       ??_C@_0BI@JOKPIMGN@Client?5?$CFd?5Unknown?5State?$AA@ 004f9b90     Lib_Network:s_CSessionServerThread.obj
 0002:00000ba8       ??_C@_0BN@LILPPDDI@?$DN?5Last?5Database?5Job?5Executed?$AA@ 004f9ba8     Lib_Network:s_CSessionServerThread.obj
 0002:00000bc8       __real@3f800000            004f9bc8     Lib_Network:s_CSessionServerThread.obj
 0002:00000bc8       __real@4@3fff8000000000000000 004f9bc8     vorbisfile_static:psy.obj
 0002:00000bcc       ??_C@_01LFCBOECM@?4?$AA@   004f9bcc     Lib_Network:s_CSessionServerThread.obj
 0002:00000bd0       ??_C@_02DJGKEECL@?4?4?$AA@ 004f9bd0     Lib_Network:s_CSessionServerThread.obj
 0002:00000bd4       ??_C@_03KHICJKCI@?4?4?4?$AA@ 004f9bd4     Lib_Network:s_CSessionServerThread.obj
 0002:00000bd8       ??_C@_0DB@GOHILDEK@IPLIMIT?5IP?3?$CFu?5Client?3?$CFu?5Excluded@ 004f9bd8     Lib_Network:s_CSessionServerThread.obj
 0002:00000c0c       ??_C@_0CE@GDOGFPGP@IPFILTER?5IPBlock?5?3?$CFu?5BlockRef?3?$CFI@ 004f9c0c     Lib_Network:s_CSessionServerThread.obj
 0002:00000c30       ??_C@_0CE@KCHNGHLO@IPFILTER?5IPKnown?5?3?$CFu?5KnownRef?3?$CFI@ 004f9c30     Lib_Network:s_CSessionServerThread.obj
 0002:00000c54       ??_C@_0CI@DCIFHHBN@Msg?5Queue?5Size?5?$CFd?5Send?5?$CFd?1?$CFd?5Rec@ 004f9c54     Lib_Network:s_CSessionServerThread.obj
 0002:00000c7c       ??_C@_0CO@HFKCAFKC@Out?5Packet?5Count?5?$CFd?1sec?5Traffic?5@ 004f9c7c     Lib_Network:s_CSessionServerThread.obj
 0002:00000cac       ??_C@_0CN@NABDCCKM@In?5Packet?5Count?5?$CFd?1sec?5Traffic?5?$CF@ 004f9cac     Lib_Network:s_CSessionServerThread.obj
 0002:00000cdc       ??_C@_0CF@JFLPNFGA@Update?5?$CFd?5FPS?5Avg?5?$CFd?5msec?5User?5?$CF@ 004f9cdc     Lib_Network:s_CSessionServerThread.obj
 0002:00000d04       __real@3c888889            004f9d04     Lib_Network:s_CSessionServerThread.obj
 0002:00000d08       __real@476a6000            004f9d08     Lib_Network:s_CSessionServerThread.obj
 0002:00000d0c       __real@4f800000            004f9d0c     Lib_Network:s_CSessionServerThread.obj
 0002:00000d10       ??_C@_0CL@BLOBFFNO@?$CI?$CFs?$CJRAN?5?$CFd?5SERVER?5ERROR?5DETECTED@ 004f9d10     Lib_Network:s_CSessionServerThread.obj
 0002:00000d3c       ??_C@_0BA@HMIOPMHF@Check?5Heartbeat?$AA@ 004f9d3c     Lib_Network:s_CSessionServerThread.obj
 0002:00000d4c       ??_C@_0BH@PNPMMNDA@Send?5Heartbeat?5Request?$AA@ 004f9d4c     Lib_Network:s_CSessionServerThread.obj
 0002:00000d68       __real@3f50624de0000000    004f9d68     Lib_Network:s_CSessionServerThread.obj
 0002:00000d70       __real@8@00000000000000000000 004f9d70     vorbisfile_static:vorbisfile.obj
 0002:00000d70       __real@0000000000000000    004f9d70     Lib_Network:s_CSessionServerThread.obj
 0002:00000d78       ??_7logic_error@std@@6B@   004f9d78     Lib_Network:s_CServer.obj
 0002:00000d80       ??_7length_error@std@@6B@  004f9d80     Lib_Network:s_CServer.obj
 0002:00000d88       ??_C@_0BK@MBANLDIP@CreateIoCompletionPort?5OK?$AA@ 004f9d88     Lib_Network:s_CServer.obj
 0002:00000da4       ??_C@_0BN@MJCONLFF@CreateIoCompletionPort?5Error?$AA@ 004f9da4     Lib_Network:s_CServer.obj
 0002:00000dc4       ??_C@_0CI@LOMIPIGO@?$CFd?5Worker?5Thread?5Create?5Error?5co@ 004f9dc4     Lib_Network:s_CServer.obj
 0002:00000dec       ??_C@_0BO@JCMCOKAM@?$CFd?5st?5Worker?5Thread?5Create?5OK?$AA@ 004f9dec     Lib_Network:s_CServer.obj
 0002:00000e0c       ??_C@_0BB@LNNHPCAD@?$CFd?5Worker?5Thread?$AA@ 004f9e0c     Lib_Network:s_CServer.obj
 0002:00000e20       ??_C@_0DH@KFDEPHPJ@?9?9?9?9?9?9?9?9?9?9?9?9?9?9?9?9?9?9?9?9?9?9?9?9?9?9?9?9?9?9?9?9@ 004f9e20     Lib_Network:s_CServer.obj
 0002:00000e58       ??_C@_0BN@MADCNPIG@?$CFu?5System?5Processor?5Detected?$AA@ 004f9e58     Lib_Network:s_CServer.obj
 0002:00000e78       ??_C@_09HIJIOMBC@?$CFs?5?$CFu?5Mhz?$AA@ 004f9e78     Lib_Network:s_CServer.obj
 0002:00000e84       ??_C@_02DKCKIIND@?$CFs?$AA@ 004f9e84     Lib_Network:s_CServer.obj
 0002:00000e88       ??_C@_0DH@FLGPGHKE@?9?9?9?9?9?9?9?9?9?9?9?9?9?9?9?5System?5Informati@ 004f9e88     Lib_Network:s_CServer.obj
 0002:00000ec0       ??_C@_0BP@MACCEFKD@Server?5Update?5Thread?5Create?5OK?$AA@ 004f9ec0     Lib_Network:s_CServer.obj
 0002:00000ee0       ??_C@_0DD@PFGCDEBA@Server?5Update?5Thread?5Create?5Fail@ 004f9ee0     Lib_Network:s_CServer.obj
 0002:00000f14       ??_C@_0BK@GPJKHKI@Database?5Thread?5Create?5OK?$AA@ 004f9f14     Lib_Network:s_CServer.obj
 0002:00000f30       ??_C@_0CH@NPNNDBJJ@Database?5Thread?5Create?5Error?5cod@ 004f9f30     Lib_Network:s_CServer.obj
 0002:00000f58       ??_C@_0BD@OLBABOEK@vector?$DMT?$DO?5too?5long?$AA@ 004f9f58     Lib_Network:s_CServer.obj
 0002:00000f6c       ??_C@_0BP@JCECDHBH@Service?5Provider?3MINCOMS?5KOREA?$AA@ 004f9f6c     Lib_Network:s_CServer.obj
 0002:00000f8c       ??_C@_0CA@FPBMOHE@Service?5Provider?3Global?5Service?$AA@ 004f9f8c     Lib_Network:s_CServer.obj
 0002:00000fac       ??_C@_0BK@BPGABHIK@Service?5Provider?3MALAYSIA?$AA@ 004f9fac     Lib_Network:s_CServer.obj
 0002:00000fc8       ??_C@_0CJ@KFIPFELK@Service?5Provider?3Global?5Service?5@ 004f9fc8     Lib_Network:s_CServer.obj
 0002:00000ff4       ??_C@_0BK@KHOAHOAA@Service?5Provider?3THAILAND?$AA@ 004f9ff4     Lib_Network:s_CServer.obj
 0002:00001010       ??_C@_0CF@DNANIAGG@Service?5Provider?3Philippines?1Vie@ 004fa010     Lib_Network:s_CServer.obj
 0002:00001038       ??_C@_0BH@CGNAJKGC@Service?5Provider?3JAPAN?$AA@ 004fa038     Lib_Network:s_CServer.obj
 0002:00001050       ??_C@_0BH@KNBKOKDM@Service?5Provider?3CHINA?$AA@ 004fa050     Lib_Network:s_CServer.obj
 0002:00001068       ??_C@_0BI@OJFPOPHL@Service?5Provider?3TAIWAN?$AA@ 004fa068     Lib_Network:s_CServer.obj
 0002:00001080       ??_C@_0BH@HICEILDO@Service?5Provider?3KOREA?$AA@ 004fa080     Lib_Network:s_CServer.obj
 0002:00001098       ??_C@_0BF@JPHOJJNK@ERROR?3MaxClient?5?$DO?5?$CFd?$AA@ 004fa098     Lib_Network:s_CServer.obj
 0002:000010b0       ??_C@_0CI@IJAMBCOH@ERROR?3CFG?5file?5load?5error?0?5cant?5@ 004fa0b0     Lib_Network:s_CServer.obj
 0002:000010d8       ??_C@_04IFJILJI@?4cfg?$AA@ 004fa0d8     Lib_Network:s_CServer.obj
 0002:000010e0       ??_C@_02HHAEMJFE@?2?1?$AA@ 004fa0e0     Lib_Network:s_CServer.obj
 0002:000010e4       ??_C@_0DK@POECDBCH@ERROR?3CFG?5file?5load?5error?0?5faile@ 004fa0e4     Lib_Network:s_CServer.obj
 0002:00001120       ??_C@_0BP@FMLFHBEA@Server?5Accept?5Thread?5Create?5OK?$AA@ 004fa120     Lib_Network:s_CServer.obj
 0002:00001140       ??_C@_0DD@JLLDADCO@Server?5Accept?5Thread?5Create?5Fail@ 004fa140     Lib_Network:s_CServer.obj
 0002:00001174       ??_C@_0BM@JOLDHBKP@Listen?5error?4?5Error?5code?3?$CFd?$AA@ 004fa174     Lib_Network:s_CServer.obj
 0002:00001190       ??_C@_05HKPGCKL@?$CFs?3?$CFd?$AA@ 004fa190     Lib_Network:s_CServer.obj
 0002:00001198       ??_C@_02GMHACPFF@?$CFu?$AA@ 004fa198     Lib_Network:s_CServer.obj
 0002:0000119c       ??_C@_07HJHOKAJK@Bind?5OK?$AA@ 004fa19c     Lib_Network:s_CServer.obj
 0002:000011a4       ??_C@_0BK@LILACMI@bind?5Error?4?5Error?5Code?3?$CFd?$AA@ 004fa1a4     Lib_Network:s_CServer.obj
 0002:000011c0       ??_C@_0BA@EJGBBIFN@inet_addr?5error?$AA@ 004fa1c0     Lib_Network:s_CServer.obj
 0002:000011d0       ??_C@_0N@ECGPCBBF@WSASocket?5OK?$AA@ 004fa1d0     Lib_Network:s_CServer.obj
 0002:000011e0       ??_C@_0DN@DCBNGBBB@CServer?3?3StartListenThread?5WSASo@ 004fa1e0     Lib_Network:s_CServer.obj
 0002:00001220       ??_7CServer@@6B@           004fa220     Lib_Network:s_CServer.obj
 0002:0000125c       ??_7DxConsoleMsg@@6B@      004fa25c     Lib_Network:s_CConsoleMessage.obj
 0002:00001264       ??_C@_08CCBDCKHL@CharSave?$AA@ 004fa264     Lib_Network:s_CConsoleMessage.obj
 0002:00001270       ??_C@_04JDHAOOMO@APEX?$AA@ 004fa270     Lib_Network:s_CConsoleMessage.obj
 0002:00001278       ??_C@_02LFGCCOHG@DB?$AA@   004fa278     Lib_Network:s_CConsoleMessage.obj
 0002:0000127c       ??_C@_08NNJGOKOI@NPROTECT?$AA@ 004fa27c     Lib_Network:s_CConsoleMessage.obj
 0002:00001288       ??_C@_07BCBHNHNG@NETWORK?$AA@ 004fa288     Lib_Network:s_CConsoleMessage.obj
 0002:00001290       ??_7CConsoleMessage@@6BCLock@@@ 004fa290     Lib_Network:s_CConsoleMessage.obj
 0002:00001294       ??_7CConsoleMessage@@6BDxConsoleMsg@@@ 004fa294     Lib_Network:s_CConsoleMessage.obj
 0002:000012b0       ??_C@_02PCIJFNDE@?$AN?6?$AA@ 004fa2b0     Lib_Network:s_CConsoleMessage.obj
 0002:000012b4       ??_7CClientSession@@6B@    004fa2b4     Lib_Network:s_CClientSession.obj
 0002:000012b8       ??_C@_0P@KDBMINGH@?$LM?$KN?$LJ?v?5?C?$KD?$LB?b?5?$LN?C?$MA?$NL?$AA@ 004fa2b8     Lib_Network:s_CClientSession.obj
 0002:000012c8       ??_C@_0BG@ELJANMMC@?$CI?$CFs?3?$CFd?$CJ?$CI?$CFd?3?$CFd?$CJ?$CI?$CFd?3?$CFd?$CJ?$AA@ 004fa2c8     Lib_Network:s_CClientSession.obj
 0002:000012e0       ??_7GLDBMan@@6B@           004fa2e0     Lib_Network:s_COdbcManager.obj
 0002:000014c0       ??_C@_05FNMFKLPE@DB?3?$CFs?$AA@ 004fa4c0     Lib_Network:s_COdbcManager.obj
 0002:000014c8       ??_C@_0BH@MGBIAGAH@?$CFs?0?5NativeError?3?$CFd?0?5?$CFs?$AA@ 004fa4c8     Lib_Network:s_COdbcManager.obj
 0002:000014e0       ??_C@_0BF@NDFOBMOB@_VerifyTimeValid?4txt?$AA@ 004fa4e0     Lib_Network:s_COdbcManager.obj
 0002:000014f8       ??_C@_0FI@PJBHFPLJ@Time?5Error?5Function?3?$CFs?5Variable?3@ 004fa4f8     Lib_Network:s_COdbcManager.obj
 0002:00001550       ??_7COdbcManager@@6BCLock@@@ 004fa550     Lib_Network:s_COdbcManager.obj
 0002:00001558       ??_7COdbcManager@@6BGLDBMan@@@ 004fa558     Lib_Network:s_COdbcManager.obj
 0002:00001738       ??_7CCfg@@6B@              004fa738     Lib_Network:s_CCfg.obj
 0002:00001740       ??_C@_0GA@JHDBAGFL@field_server?5?$FLChannel?$FN?5?$FLserverID@ 004fa740     Lib_Network:s_CCfg.obj
 0002:000017a0       ??_C@_0N@KBEHDIJK@ipclient_max?$AA@ 004fa7a0     Lib_Network:s_CCfg.obj
 0002:000017b0       ??_C@_0N@JHFNAPCO@field_server?$AA@ 004fa7b0     Lib_Network:s_CCfg.obj
 0002:000017c0       ??_C@_0N@KLCKEICE@agent_server?$AA@ 004fa7c0     Lib_Network:s_CCfg.obj
 0002:000017d0       ??_C@_07MFOHDNMP@channel?$AA@ 004fa7d0     Lib_Network:s_CCfg.obj
 0002:000017d8       ??_C@_0P@GLKBKINE@session_server?$AA@ 004fa7d8     Lib_Network:s_CCfg.obj
 0002:000017e8       ??_C@_0N@GJFEDEPD@login_server?$AA@ 004fa7e8     Lib_Network:s_CCfg.obj
 0002:000017f8       ??_C@_0BG@GAKOADMO@my_odbc_response_time?$AA@ 004fa7f8     Lib_Network:s_CCfg.obj
 0002:00001810       ??_C@_0BC@OCPBBJAB@my_odbc_pool_size?$AA@ 004fa810     Lib_Network:s_CCfg.obj
 0002:00001824       ??_C@_0BB@DGBAJBKA@my_odbc_database?$AA@ 004fa824     Lib_Network:s_CCfg.obj
 0002:00001838       ??_C@_0N@DHDHNJIG@my_odbc_pass?$AA@ 004fa838     Lib_Network:s_CCfg.obj
 0002:00001848       ??_C@_0N@EHHCHGB@my_odbc_user?$AA@ 004fa848     Lib_Network:s_CCfg.obj
 0002:00001858       ??_C@_0N@OCMHMLMI@my_odbc_name?$AA@ 004fa858     Lib_Network:s_CCfg.obj
 0002:00001868       ??_C@_0BH@LLOILLMM@kor_odbc_response_time?$AA@ 004fa868     Lib_Network:s_CCfg.obj
 0002:00001880       ??_C@_0BD@COMHGBKK@kor_odbc_pool_size?$AA@ 004fa880     Lib_Network:s_CCfg.obj
 0002:00001894       ??_C@_0BC@MBPKPBE@kor_odbc_database?$AA@ 004fa894     Lib_Network:s_CCfg.obj
 0002:000018a8       ??_C@_0O@DLNDEDEC@kor_odbc_pass?$AA@ 004fa8a8     Lib_Network:s_CCfg.obj
 0002:000018b8       ??_C@_0O@IJDLNKF@kor_odbc_user?$AA@ 004fa8b8     Lib_Network:s_CCfg.obj
 0002:000018c8       ??_C@_0O@OOCDFBAM@kor_odbc_name?$AA@ 004fa8c8     Lib_Network:s_CCfg.obj
 0002:000018d8       ??_C@_0BH@BDNMKHEF@gsp_odbc_response_time?$AA@ 004fa8d8     Lib_Network:s_CCfg.obj
 0002:000018f0       ??_C@_0BD@CIGIMEBI@gsp_odbc_pool_size?$AA@ 004fa8f0     Lib_Network:s_CCfg.obj
 0002:00001904       ??_C@_0BC@BFAPACFB@gsp_odbc_database?$AA@ 004fa904     Lib_Network:s_CCfg.obj
 0002:00001918       ??_C@_0O@NDKAFDNB@gsp_odbc_pass?$AA@ 004fa918     Lib_Network:s_CCfg.obj
 0002:00001928       ??_C@_0O@OAOAKNDG@gsp_odbc_user?$AA@ 004fa928     Lib_Network:s_CCfg.obj
 0002:00001938       ??_C@_0O@GFAEBJP@gsp_odbc_name?$AA@ 004fa938     Lib_Network:s_CCfg.obj
 0002:00001948       ??_C@_0BJ@EJHIPCDA@terra_odbc_response_time?$AA@ 004fa948     Lib_Network:s_CCfg.obj
 0002:00001964       ??_C@_0BF@NPLDMEOP@terra_odbc_pool_size?$AA@ 004fa964     Lib_Network:s_CCfg.obj
 0002:0000197c       ??_C@_0BE@KMFIKIMF@terra_odbc_database?$AA@ 004fa97c     Lib_Network:s_CCfg.obj
 0002:00001990       ??_C@_0BA@DMHEEPKC@terra_odbc_pass?$AA@ 004fa990     Lib_Network:s_CCfg.obj
 0002:000019a0       ??_C@_0BA@PDELBEF@terra_odbc_user?$AA@ 004fa9a0     Lib_Network:s_CCfg.obj
 0002:000019b0       ??_C@_0BA@OJIEFNOM@terra_odbc_name?$AA@ 004fa9b0     Lib_Network:s_CCfg.obj
 0002:000019c0       ??_C@_0BI@HNHLPDC@shop_odbc_response_time?$AA@ 004fa9c0     Lib_Network:s_CCfg.obj
 0002:000019d8       ??_C@_0BE@OMBLDDNE@shop_odbc_pool_size?$AA@ 004fa9d8     Lib_Network:s_CCfg.obj
 0002:000019ec       ??_C@_0BD@HLCHGKI@shop_odbc_database?$AA@ 004fa9ec     Lib_Network:s_CCfg.obj
 0002:00001a00       ??_C@_0P@LKMADCPD@shop_odbc_pass?$AA@ 004faa00     Lib_Network:s_CCfg.obj
 0002:00001a10       ??_C@_0P@IJIAMMBE@shop_odbc_user?$AA@ 004faa10     Lib_Network:s_CCfg.obj
 0002:00001a20       ??_C@_0P@GPDACALN@shop_odbc_name?$AA@ 004faa20     Lib_Network:s_CCfg.obj
 0002:00001a30       ??_C@_0BH@LJGLGKL@log_odbc_response_time?$AA@ 004faa30     Lib_Network:s_CCfg.obj
 0002:00001a48       ??_C@_0BD@IHAGJPBA@log_odbc_pool_size?$AA@ 004faa48     Lib_Network:s_CCfg.obj
 0002:00001a5c       ??_C@_0BC@HBEPEGPI@log_odbc_database?$AA@ 004faa5c     Lib_Network:s_CCfg.obj
 0002:00001a70       ??_C@_0O@MKKFHDGO@log_odbc_pass?$AA@ 004faa70     Lib_Network:s_CCfg.obj
 0002:00001a80       ??_C@_0O@PJOFINIJ@log_odbc_user?$AA@ 004faa80     Lib_Network:s_CCfg.obj
 0002:00001a90       ??_C@_0O@BPFFGBCA@log_odbc_name?$AA@ 004faa90     Lib_Network:s_CCfg.obj
 0002:00001aa0       ??_C@_0BJ@ILDGHBBN@board_odbc_response_time?$AA@ 004faaa0     Lib_Network:s_CCfg.obj
 0002:00001abc       ??_C@_0BF@HBMFCCNE@board_odbc_pool_size?$AA@ 004faabc     Lib_Network:s_CCfg.obj
 0002:00001ad4       ??_C@_0BE@LNENJCN@board_odbc_database?$AA@ 004faad4     Lib_Network:s_CCfg.obj
 0002:00001ae8       ??_C@_0BA@GMLNALGJ@board_odbc_pass?$AA@ 004faae8     Lib_Network:s_CCfg.obj
 0002:00001af8       ??_C@_0BA@FPPNPFIO@board_odbc_user?$AA@ 004faaf8     Lib_Network:s_CCfg.obj
 0002:00001b08       ??_C@_0BA@LJENBJCH@board_odbc_name?$AA@ 004fab08     Lib_Network:s_CCfg.obj
 0002:00001b18       ??_C@_0BI@GCOHKLOL@game_odbc_response_time?$AA@ 004fab18     Lib_Network:s_CCfg.obj
 0002:00001b30       ??_C@_0BE@HKFIPAAH@game_odbc_pool_size?$AA@ 004fab30     Lib_Network:s_CCfg.obj
 0002:00001b44       ??_C@_0BD@ENNJCLOC@game_odbc_database?$AA@ 004fab44     Lib_Network:s_CCfg.obj
 0002:00001b58       ??_C@_0P@COGPBIDI@game_odbc_pass?$AA@ 004fab58     Lib_Network:s_CCfg.obj
 0002:00001b68       ??_C@_0P@BNCPOGNP@game_odbc_user?$AA@ 004fab68     Lib_Network:s_CCfg.obj
 0002:00001b78       ??_C@_0P@PLJPAKHG@game_odbc_name?$AA@ 004fab78     Lib_Network:s_CCfg.obj
 0002:00001b88       ??_C@_0BI@LDBDPPMI@user_odbc_response_time?$AA@ 004fab88     Lib_Network:s_CCfg.obj
 0002:00001ba0       ??_C@_0BE@BHDEFLGP@user_odbc_pool_size?$AA@ 004faba0     Lib_Network:s_CCfg.obj
 0002:00001bb4       ??_C@_0BD@PMJGKIPH@user_odbc_database?$AA@ 004fabb4     Lib_Network:s_CCfg.obj
 0002:00001bc8       ??_C@_0P@GHNEBJDJ@user_odbc_pass?$AA@ 004fabc8     Lib_Network:s_CCfg.obj
 0002:00001bd8       ??_C@_0P@FEJEOHNO@user_odbc_user?$AA@ 004fabd8     Lib_Network:s_CCfg.obj
 0002:00001be8       ??_C@_0P@LCCEALHH@user_odbc_name?$AA@ 004fabe8     Lib_Network:s_CCfg.obj
 0002:00001bf8       ??_C@_0BG@FDCENANN@game_db_response_time?$AA@ 004fabf8     Lib_Network:s_CCfg.obj
 0002:00001c10       ??_C@_0BC@MPCMPLBA@game_db_pool_size?$AA@ 004fac10     Lib_Network:s_CCfg.obj
 0002:00001c24       ??_C@_0BB@OJBNANFP@game_db_database?$AA@ 004fac24     Lib_Network:s_CCfg.obj
 0002:00001c38       ??_C@_0N@KMCEBKIK@game_db_pass?$AA@ 004fac38     Lib_Network:s_CCfg.obj
 0002:00001c48       ??_C@_0N@JPGEOEGN@game_db_user?$AA@ 004fac48     Lib_Network:s_CCfg.obj
 0002:00001c58       ??_C@_0P@MPNMLGCJ@game_db_server?$AA@ 004fac58     Lib_Network:s_CCfg.obj
 0002:00001c68       ??_C@_0BG@LPAECGHO@user_db_response_time?$AA@ 004fac68     Lib_Network:s_CCfg.obj
 0002:00001c80       ??_C@_0BC@ILEGMKCL@user_db_pool_size?$AA@ 004fac80     Lib_Network:s_CCfg.obj
 0002:00001c94       ??_C@_0BB@IHABEFDD@user_db_database?$AA@ 004fac94     Lib_Network:s_CCfg.obj
 0002:00001ca8       ??_C@_0N@OHONABKM@user_db_pass?$AA@ 004faca8     Lib_Network:s_CCfg.obj
 0002:00001cb8       ??_C@_0N@NEKNPPEL@user_db_user?$AA@ 004facb8     Lib_Network:s_CCfg.obj
 0002:00001cc8       ??_C@_0P@IGGHLHCI@user_db_server?$AA@ 004facc8     Lib_Network:s_CCfg.obj
 0002:00001cd8       ??_C@_0N@JAHHHAOE@language_set?$AA@ 004facd8     Lib_Network:s_CCfg.obj
 0002:00001ce8       ??_C@_0L@MNIOLIOA@max_thread?$AA@ 004face8     Lib_Network:s_CCfg.obj
 0002:00001cf4       ??_C@_0P@FIIGPBBF@whiterock_port?$AA@ 004facf4     Lib_Network:s_CCfg.obj
 0002:00001d04       ??_C@_0P@CDCKGIJI@whiterock_name?$AA@ 004fad04     Lib_Network:s_CCfg.obj
 0002:00001d14       ??_C@_0BB@IMEHDBCE@service_provider?$AA@ 004fad14     Lib_Network:s_CCfg.obj
 0002:00001d28       ??_C@_0BG@KAJEPOED@server_channel_number?$AA@ 004fad28     Lib_Network:s_CCfg.obj
 0002:00001d40       ??_C@_0P@HECLMHD@server_channel?$AA@ 004fad40     Lib_Network:s_CCfg.obj
 0002:00001d50       ??_C@_0N@DBGKAFDH@server_field?$AA@ 004fad50     Lib_Network:s_CCfg.obj
 0002:00001d60       ??_C@_0O@DDBDAODM@server_number?$AA@ 004fad60     Lib_Network:s_CCfg.obj
 0002:00001d70       ??_C@_0N@LPOCNPMP@server_group?$AA@ 004fad70     Lib_Network:s_CCfg.obj
 0002:00001d80       ??_C@_0M@MPECDEEA@server_type?$AA@ 004fad80     Lib_Network:s_CCfg.obj
 0002:00001d8c       ??_C@_0BE@KCDILIOF@server_control_port?$AA@ 004fad8c     Lib_Network:s_CCfg.obj
 0002:00001da0       ??_C@_0BE@LALDPMFP@server_service_port?$AA@ 004fada0     Lib_Network:s_CCfg.obj
 0002:00001db4       ??_C@_09FGEOKFOO@server_ip?$AA@ 004fadb4     Lib_Network:s_CCfg.obj
 0002:00001dc0       ??_C@_0BK@NGGMFHBH@server_max_channel_client?$AA@ 004fadc0     Lib_Network:s_CCfg.obj
 0002:00001ddc       ??_C@_0BC@OKKIFCJC@server_max_client?$AA@ 004faddc     Lib_Network:s_CCfg.obj
 0002:00001df0       ??_C@_0M@GEEBPEDA@server_name?$AA@ 004fadf0     Lib_Network:s_CCfg.obj
 0002:00001dfc       ??_C@_0O@CDBNAJAK@patch_version?$AA@ 004fadfc     Lib_Network:s_CCfg.obj
 0002:00001e0c       ??_C@_0P@ONIKBOBH@server_version?$AA@ 004fae0c     Lib_Network:s_CCfg.obj
 0002:00001e1c       ??_C@_09HILBJOJ@gameguard?$AA@ 004fae1c     Lib_Network:s_CCfg.obj
 0002:00001e28       ??_C@_09NCPIAHOP@heartbeat?$AA@ 004fae28     Lib_Network:s_CCfg.obj
 0002:00001e34       ??_C@_0L@BHJDMKCD@testserver?$AA@ 004fae34     Lib_Network:s_CCfg.obj
 0002:00001e40       ??_C@_0BB@HMCDFNCD@use_event_thread?$AA@ 004fae40     Lib_Network:s_CCfg.obj
 0002:00001e54       ??_C@_0O@GJHGEGJP@use_intel_tbb?$AA@ 004fae54     Lib_Network:s_CCfg.obj
 0002:00001e64       ??_C@_05LHFIINDG@adult?$AA@ 004fae64     Lib_Network:s_CCfg.obj
 0002:00001e6c       ??_C@_02NCEGPMNB@pk?$AA@   004fae6c     Lib_Network:s_CCfg.obj
 0002:00001e70       ??_C@_06OOFHGOHC@pkless?$AA@ 004fae70     Lib_Network:s_CCfg.obj
 0002:00001e78       ??_C@_02CBLDBPFN@?1?1?$AA@ 004fae78     Lib_Network:s_CCfg.obj
 0002:00001e7c       ??_C@_04OHMGOEGF@?5?0?7?6?$AA@ 004fae7c     Lib_Network:s_CCfg.obj
 0002:00001e84       ??_C@_01KDCPPGHE@r?$AA@    004fae84     Lib_Network:s_CCfg.obj
 0002:00001e88       ??_C@_05KODIPMGP@?2cfg?2?$AA@ 004fae88     Lib_Network:s_CCfg.obj
 0002:00001e90       ??_C@_0BC@KBDMBKEH@deque?$DMT?$DO?5too?5long?$AA@ 004fae90     Lib_Network:s_CDbAction.obj
 0002:00001ea4       ??_7CLogDbExecuter@@6B@    004faea4     Lib_Network:s_CDbAction.obj
 0002:00001ea8       ??_7CUserDbExecuter@@6B@   004faea8     Lib_Network:s_CDbAction.obj
 0002:00001eac       ??_7CWebDbExecuter@@6B@    004faeac     Lib_Network:s_CDbAction.obj
 0002:00001eb0       ??_7CDbExecuter@@6B@       004faeb0     Lib_Network:s_CDbAction.obj
 0002:00001eb4       ??_7out_of_range@std@@6B@  004faeb4     Lib_Network:s_CClientManager.obj
 0002:00001ebc       ??_C@_0BO@CLNIENND@IPLimit?5Max?5client?5per?5ip?5?3?$CFd?$AA@ 004faebc     Lib_Network:s_CClientManager.obj
 0002:00001edc       ??_C@_0BI@LGLMFMC@IPLimit?5set?5to?5no?5limit?$AA@ 004faedc     Lib_Network:s_CClientManager.obj
 0002:00001ef4       ??_C@_0BM@PAPJHAGI@invalid?5map?1set?$DMT?$DO?5iterator?$AA@ 004faef4     Lib_Network:s_CClientManager.obj
 0002:00001f10       ??_C@_0BE@JONHPENG@map?1set?$DMT?$DO?5too?5long?$AA@ 004faf10     Lib_Network:s_CClientManager.obj
 0002:00001f24       ??_C@_0CI@IFIBGBKA@INFO?3ResetPreSleepCID?5Error?5Slee@ 004faf24     Lib_Network:s_CClientManager.obj
 0002:00001f4c       ??_C@_0BN@LPCOHFMK@ERROR?3Already?5CloseClient?5?$CFd?$AA@ 004faf4c     Lib_Network:s_CClientManager.obj
 0002:00001f6c       ??_C@_0BN@EDMIFDGF@IPLimit?5exclude?5remove?5IP?3?$CFs?$AA@ 004faf6c     Lib_Network:s_CClientManager.obj
 0002:00001f8c       ??_C@_0CA@CPLHFKOK@IPLimit?5reached?5max?5client?5IP?$CFs?$AA@ 004faf8c     Lib_Network:s_CClientManager.obj
 0002:00001fac       ??_C@_0BF@FAOCHIJG@IPLimit?5Remove?5IP?3?$CFs?$AA@ 004fafac     Lib_Network:s_CClientManager.obj
 0002:00001fc4       ??_C@_0BK@BLIILPIE@IPLimit?5exclude?5add?5IP?3?$CFs?$AA@ 004fafc4     Lib_Network:s_CClientManager.obj
 0002:00001fe0       ??_C@_0CM@ILACDOON@Accept?5Client?5Failed?5?$CIClient?5ID?3@ 004fafe0     Lib_Network:s_CClientManager.obj
 0002:0000200c       ??_C@_0BH@JBBFFCIA@?$CIClient?5ID?3?$CFd?$CJ?5?$CI?$CFs?3?$CFd?$CJ?$AA@ 004fb00c     Lib_Network:s_CClientManager.obj
 0002:00002024       ??_C@_0BF@JODDHHMP@IPLimit?5clear?5all?5IP?$AA@ 004fb024     Lib_Network:s_CClientManager.obj
 0002:0000203c       ??_C@_0DD@HEDAFONM@ERROR?3CClientManager?3?3SendClient@ 004fb03c     Lib_Network:s_CClientManager.obj
 0002:00002070       ??_7CClientManager@@6B@    004fb070     Lib_Network:s_CClientManager.obj
 0002:00002074       ??_C@_0CP@BOFAGFLP@ERROR?3SendClient?5dwSndBytes?5?$DO?5NE@ 004fb074     Lib_Network:s_CClientManager.obj
 0002:000020a4       ??_C@_0BO@IANJOGAJ@ERROR?3SendClient?5pBuffer?5NULL?$AA@ 004fb0a4     Lib_Network:s_CClientManager.obj
 0002:000020c4       ??_C@_0CJ@OJFFAKHL@IPFilter?5SaveList?5Known?$CI?$CFd?$CJ?5Bloc@ 004fb0c4     Lib_Network:s_CIPFilter.obj
 0002:000020f0       ??_C@_08GLPNPBCD@block?5?$CFs?$AA@ 004fb0f0     Lib_Network:s_CIPFilter.obj
 0002:000020fc       ??_C@_01EEMJAFIK@?6?$AA@   004fb0fc     Lib_Network:s_CIPFilter.obj
 0002:00002100       ??_C@_08LBEKGNID@allow?5?$CFs?$AA@ 004fb100     Lib_Network:s_CIPFilter.obj
 0002:0000210c       ??_C@_01NOFIACDB@w?$AA@    004fb10c     Lib_Network:s_CIPFilter.obj
 0002:00002110       ??_C@_0N@NJEKCFAM@IPFilter?4cfg?$AA@ 004fb110     Lib_Network:s_CIPFilter.obj
 0002:00002120       ??_C@_0CD@BOHGDBFK@IPFilter?5IP?$CI?$CFs?$CJ?5Added?5To?5BlockLi@ 004fb120     Lib_Network:s_CIPFilter.obj
 0002:00002144       ??_C@_0BI@ICNPDKAJ@IPFilter?5IP?$CI?$CFs?$CJ?5Invalid?$AA@ 004fb144     Lib_Network:s_CIPFilter.obj
 0002:0000215c       ??_C@_0CD@PMJBLHI@IPFilter?5IP?$CI?$CFs?$CJ?5Added?5To?5KnownLi@ 004fb15c     Lib_Network:s_CIPFilter.obj
 0002:00002180       ??_C@_0CH@FOBONELA@IPFilter?5IP?$CI?$CFs?$CJ?5Removed?5From?5Blo@ 004fb180     Lib_Network:s_CIPFilter.obj
 0002:000021a8       ??_C@_0CH@EPKBPOJC@IPFilter?5IP?$CI?$CFs?$CJ?5Removed?5From?5Kno@ 004fb1a8     Lib_Network:s_CIPFilter.obj
 0002:000021d0       ??_C@_0CA@LOKEGEAC@IPFilter?5Session?5to?5save?5iplist?$AA@ 004fb1d0     Lib_Network:s_CIPFilter.obj
 0002:000021f0       ??_C@_0CJ@FICLDKCD@IPFilter?5LoadList?5Known?$CI?$CFd?$CJ?5Bloc@ 004fb1f0     Lib_Network:s_CIPFilter.obj
 0002:0000221c       ??_C@_05PIBOEKAB@block?$AA@ 004fb21c     Lib_Network:s_CIPFilter.obj
 0002:00002224       ??_C@_05IDFCDDHI@allow?$AA@ 004fb224     Lib_Network:s_CIPFilter.obj
 0002:0000222c       ??_C@_0BC@GBFBDDPN@Can?8t?5Find?5Server?$AA@ 004fb22c     Lib_Network:s_CSessionServerMsg.obj
 0002:00002240       ??_C@_0P@NKGPAPDM@Find?5Server?5?$CFd?$AA@ 004fb240     Lib_Network:s_CSessionServerMsg.obj
 0002:00002250       ??_C@_0BE@ECOMJPBJ@MsgSndCurSvrInfo?5?$CFs?$AA@ 004fb250     Lib_Network:s_CSessionServerMsg.obj
 0002:00002264       ??_C@_0BK@MDDCCDHE@MsgSndAllSvrInfo?5?$CFs?5?$CFd?5?$CFd?$AA@ 004fb264     Lib_Network:s_CSessionServerMsg.obj
 0002:00002280       __real@3f733333            004fb280     Lib_Network:s_CSessionServerMsg.obj
 0002:00002284       ??_C@_0CL@HDBLBHIH@INFO?3Server?5state?5change?5?8STOP?8?5@ 004fb284     Lib_Network:s_CSessionServerMsg.obj
 0002:000022b0       ??_C@_0CO@LKOBGKJI@INFO?3Server?5state?5change?5?8RESTAR@ 004fb2b0     Lib_Network:s_CSessionServerMsg.obj
 0002:000022e0       ??_C@_0CN@BMDOGLIK@INFO?3Server?5state?5change?5?8RESUME@ 004fb2e0     Lib_Network:s_CSessionServerMsg.obj
 0002:00002310       ??_C@_0CM@MKPFCAMF@INFO?3Server?5state?5change?5?8PAUSE?8@ 004fb310     Lib_Network:s_CSessionServerMsg.obj
 0002:0000233c       ??_C@_0CE@OPKJCLL@INFO?3Server?5state?5change?5command@ 004fb33c     Lib_Network:s_CSessionServerMsg.obj
 0002:00002360       ??_C@_0BI@CAGEDCME@ERROR?3Can?8t?5Find?5Server?$AA@ 004fb360     Lib_Network:s_CSessionServerMsg.obj
 0002:00002378       ??_C@_0P@OIAINKMF@Notice?5Message?$AA@ 004fb378     Lib_Network:s_CSessionServerMsg.obj
 0002:00002388       ??_C@_0BH@OIHOPJBL@INFO?3Can?8t?5Find?5Server?$AA@ 004fb388     Lib_Network:s_CSessionServerMsg.obj
 0002:000023a0       ??_C@_0BP@CIOFKCGE@INFO?3SetSvrInfo?5?$CFs?5?$CFd?5?$CFd?5?$CFd?5?$CFd?$AA@ 004fb3a0     Lib_Network:s_CSessionServerMsg.obj
 0002:000023c0       ??_C@_0N@EFLHFBCO@Chat?5message?$AA@ 004fb3c0     Lib_Network:s_CSessionServerMsg.obj
 0002:000023d0       ??_C@_0CG@CJEDOJIE@INFO?3Inform?5Agent?0?5Reconnect?5To?5@ 004fb3d0     Lib_Network:s_CSessionServerMsg.obj
 0002:000023f8       ??_7CDbAction@@6B@         004fb3f8     Lib_Network:s_CDbActionUser.obj
 0002:00002400       ??_7CAddLogServerState@@6B@ 004fb400     Lib_Network:s_CDbActionUser.obj
 0002:00002408       ??_7CUserLogoutSvr@@6B@    004fb408     Lib_Network:s_CDbActionUser.obj
 0002:00002410       ??_C@_0DN@ECBDGEPD@ERROR?3CSMsgManager?3?3AddMsg?5nSize@ 004fb410     Lib_Network:s_CSMsgList.obj
 0002:00002450       ??_7CSMsgManager@@6B@      004fb450     Lib_Network:s_CSMsgList.obj
 0002:00002454       ??_C@_0DC@KEHLILDD@ERROR?3CSMsgManager?3?3MsgQueueInse@ 004fb454     Lib_Network:s_CSMsgList.obj
 0002:00002488       ??_7CSMsgList@@6B@         004fb488     Lib_Network:s_CSMsgList.obj
 0002:0000248c       ??_7strstreambuf@std@@6B@  004fb48c     Lib_Network:s_COdbcUser.obj
 0002:000024c0       ??_7strstream@std@@6B@     004fb4c0     Lib_Network:s_COdbcUser.obj
 0002:000024c4       ??_8strstream@std@@7B?$basic_ostream@DU?$char_traits@D@std@@@1@@ 004fb4c4     Lib_Network:s_COdbcUser.obj
 0002:000024cc       ??_8strstream@std@@7B?$basic_istream@DU?$char_traits@D@std@@@1@@ 004fb4cc     Lib_Network:s_COdbcUser.obj
 0002:000024d4       ??_C@_0BP@CIHOIJNC@COdbcManager?3?3GetChatBlockTime?$AA@ 004fb4d4     Lib_Network:s_COdbcUser.obj
 0002:000024f4       ??_C@_0P@DPAMBJJI@sChatBlockDate?$AA@ 004fb4f4     Lib_Network:s_COdbcUser.obj
 0002:00002508       ??_C@_0EC@GNDKOAEI@SELECT?5ChatBlockDate?5FROM?5UserIn@ 004fb508     Lib_Network:s_COdbcUser.obj
 0002:00002550       ??_C@_0EE@GPGAKIKE@SELECT?5ChatBlockDate?5FROM?5GSUser@ 004fb550     Lib_Network:s_COdbcUser.obj
 0002:00002598       ??_C@_0EF@EFIBELK@SELECT?5ChatBlockDate?5FROM?5GspUse@ 004fb598     Lib_Network:s_COdbcUser.obj
 0002:000025e0       ??_C@_0EH@NBKBBAHC@SELECT?5ChatBlockDate?5FROM?5TerraU@ 004fb5e0     Lib_Network:s_COdbcUser.obj
 0002:00002628       ??_C@_0EH@FOBKJEHK@SELECT?5ChatBlockDate?5FROM?5JapanU@ 004fb628     Lib_Network:s_COdbcUser.obj
 0002:00002670       ??_C@_0EG@EDHIPLPJ@SELECT?5ChatBlockDate?5FROM?5DaumUs@ 004fb670     Lib_Network:s_COdbcUser.obj
 0002:000026b8       ??_C@_0EH@GNOPCIMK@UPDATE?5UserInfo?5WITH?5?$CIUPDLOCK?$CJ?5S@ 004fb6b8     Lib_Network:s_COdbcUser.obj
 0002:00002700       ??_C@_0EJ@LIAGFPCP@UPDATE?5GSUserInfo?5WITH?5?$CIUPDLOCK?$CJ@ 004fb700     Lib_Network:s_COdbcUser.obj
 0002:00002750       ??_C@_0EK@HMACLACC@UPDATE?5GspUserInfo?5WITH?5?$CIUPDLOCK@ 004fb750     Lib_Network:s_COdbcUser.obj
 0002:000027a0       ??_C@_0EM@ONKCKHIE@UPDATE?5TerraUserInfo?5WITH?5?$CIUPDLO@ 004fb7a0     Lib_Network:s_COdbcUser.obj
 0002:000027f0       ??_C@_0EM@KEHPAIEJ@UPDATE?5JapanUserInfo?5WITH?5?$CIUPDLO@ 004fb7f0     Lib_Network:s_COdbcUser.obj
 0002:00002840       ??_C@_0EL@LKJLMDMC@UPDATE?5DaumUserInfo?5WITH?5?$CIUPDLOC@ 004fb840     Lib_Network:s_COdbcUser.obj
 0002:0000288c       ??_C@_0BC@LGPAMIPH@?$CFY?9?$CFm?9?$CFd?5?$CFH?3?$CFM?3?$CFS?$AA@ 004fb88c     Lib_Network:s_COdbcUser.obj
 0002:000028a0       ??_C@_0DG@OMCFMJJA@UPDATE?5UserInfo?5SET?5PremiumDate?$DN@ 004fb8a0     Lib_Network:s_COdbcUser.obj
 0002:000028d8       ??_C@_0DI@HEFJIFBE@UPDATE?5GSUserInfo?5SET?5PremiumDat@ 004fb8d8     Lib_Network:s_COdbcUser.obj
 0002:00002910       ??_C@_0DJ@KABCJEGK@UPDATE?5GspUserInfo?5SET?5PremiumDa@ 004fb910     Lib_Network:s_COdbcUser.obj
 0002:0000294c       ??_C@_0DL@GIHBEAAK@UPDATE?5TerraUserInfo?5SET?5Premium@ 004fb94c     Lib_Network:s_COdbcUser.obj
 0002:00002988       ??_C@_0DL@MJCMHML@UPDATE?5JapanUserInfo?5SET?5Premium@ 004fb988     Lib_Network:s_COdbcUser.obj
 0002:000029c4       ??_C@_0DK@MKKHMPCC@UPDATE?5DaumUserInfo?5SET?5PremiumD@ 004fb9c4     Lib_Network:s_COdbcUser.obj
 0002:00002a00       ??_C@_0FH@KADBIPDM@UPDATE?5UserInfo?5SET?5UserLoginSta@ 004fba00     Lib_Network:s_COdbcUser.obj
 0002:00002a58       ??_C@_0FJ@DHLONJBB@UPDATE?5GSUserInfo?5SET?5UserLoginS@ 004fba58     Lib_Network:s_COdbcUser.obj
 0002:00002ab8       ??_C@_0FK@KCDHLMLM@UPDATE?5GspUserInfo?5SET?5UserLogin@ 004fbab8     Lib_Network:s_COdbcUser.obj
 0002:00002b18       ??_C@_0FM@OCOLBOPG@UPDATE?5TerraUserInfo?5SET?5UserLog@ 004fbb18     Lib_Network:s_COdbcUser.obj
 0002:00002b78       ??_C@_0FM@CCHCIFHO@UPDATE?5JapanUserInfo?5SET?5UserLog@ 004fbb78     Lib_Network:s_COdbcUser.obj
 0002:00002bd8       ??_C@_0FL@CGDPCLLF@UPDATE?5DaumUserInfo?5SET?5UserLogi@ 004fbbd8     Lib_Network:s_COdbcUser.obj
 0002:00002c34       ??_C@_0CD@MPMPAFJC@?$HLcall?5UpdateChaNumIncrease?$CI?$CFd?0?5?$DP@ 004fbc34     Lib_Network:s_COdbcUser.obj
 0002:00002c58       ??_C@_0CG@GBEFKMOM@?$HLcall?5GS_UpdateChaNumIncrease?$CI?$CFd@ 004fbc58     Lib_Network:s_COdbcUser.obj
 0002:00002c80       ??_C@_0CH@KMEOAJNF@?$HLcall?5Gsp_UpdateChaNumIncrease?$CI?$CF@ 004fbc80     Lib_Network:s_COdbcUser.obj
 0002:00002ca8       ??_C@_0CJ@IGMAINCO@?$HLcall?5Terra_UpdateChaNumIncrease@ 004fbca8     Lib_Network:s_COdbcUser.obj
 0002:00002cd4       ??_C@_0CJ@LLIKMNME@?$HLcall?5Japan_UpdateChaNumIncrease@ 004fbcd4     Lib_Network:s_COdbcUser.obj
 0002:00002d00       ??_C@_0CI@DMPFBJCJ@?$HLcall?5Daum_UpdateChaNumIncrease?$CI@ 004fbd00     Lib_Network:s_COdbcUser.obj
 0002:00002d28       ??_C@_0EL@BFIADEHF@UPDATE?5UserInfo?5WITH?5?$CIUPDLOCK?$CJ?5S@ 004fbd28     Lib_Network:s_COdbcUser.obj
 0002:00002d78       ??_C@_0EN@NMJKJFFE@UPDATE?5GSUserInfo?5WITH?5?$CIUPDLOCK?$CJ@ 004fbd78     Lib_Network:s_COdbcUser.obj
 0002:00002dc8       ??_C@_0EO@HECLBJLJ@UPDATE?5GspUserInfo?5WITH?5?$CIUPDLOCK@ 004fbdc8     Lib_Network:s_COdbcUser.obj
 0002:00002e18       ??_C@_0FA@CMENPFKO@UPDATE?5TerraUserInfo?5WITH?5?$CIUPDLO@ 004fbe18     Lib_Network:s_COdbcUser.obj
 0002:00002e68       ??_C@_0FA@EBNIJLEO@UPDATE?5JapanUserInfo?5WITH?5?$CIUPDLO@ 004fbe68     Lib_Network:s_COdbcUser.obj
 0002:00002eb8       ??_C@_0EP@CGGHNIFO@UPDATE?5DaumUserInfo?5WITH?5?$CIUPDLOC@ 004fbeb8     Lib_Network:s_COdbcUser.obj
 0002:00002f08       ??_7COverlapped@@6B@       004fbf08     Lib_Network:s_COverlapped.obj
 0002:00002f0c       ??_C@_0BE@MFOOFHLI@MultiCore?5Processor?$AA@ 004fbf0c     Lib_Network:s_CSystemInfo.obj
 0002:00002f20       ??_C@_0O@MCBHBMKD@x86?5Processor?$AA@ 004fbf20     Lib_Network:s_CSystemInfo.obj
 0002:00002f30       ??_C@_0BG@HBMHBNCB@Itanium?5x64?5Processor?$AA@ 004fbf30     Lib_Network:s_CSystemInfo.obj
 0002:00002f48       ??_C@_0O@KGODDONF@ARM?5Processor?$AA@ 004fbf48     Lib_Network:s_CSystemInfo.obj
 0002:00002f58       ??_C@_0O@NEMKIOIM@x64?5Processor?$AA@ 004fbf58     Lib_Network:s_CSystemInfo.obj
 0002:00002f68       ??_C@_0L@ODCKAACH@?$CFs?5?$CFs?5?$CI?$CFs?$CJ?$AA@ 004fbf68     Lib_Network:s_CSystemInfo.obj
 0002:00002f74       ??_C@_0L@EOFBAFEL@Unknown?5OS?$AA@ 004fbf74     Lib_Network:s_CSystemInfo.obj
 0002:00002f80       ??_7CLock@@6B@             004fbf80     Lib_Network:s_CLock.obj
 0002:00002f84       ??_C@_0O@BNNCBLEN@out?5of?5memory?$AA@ 004fbf84     Lib_Network:MinLzo.obj
 0002:00002f98       ??_C@_0KB@NLCAIBHJ@internal?5error?5?9?5lzo_init?$CI?$CJ?5fail@ 004fbf98     Lib_Network:MinLzo.obj
 0002:0000303c       ??_C@_0BP@IOFJCNNH@lzoDeCompress?5input?5data?5error?$AA@ 004fc03c     Lib_Network:MinLzo.obj
 0002:0000305c       ??_C@_0CB@MFLPHMNE@lzoDeCompress?5can?5not?5decompress@ 004fc05c     Lib_Network:MinLzo.obj
 0002:00003080       ??_C@_0BC@PIJGOKNA@?$CFY?5?$CFm?5?$CFd?5?$CFH?3?$CFM?3?$CFS?$AA@ 004fc080     Lib_Network:s_CLogSystem.obj
 0002:00003094       ??_C@_0BA@PACDEJJI@?$CFs?5?$CFs?5Started?5?6?$AA@ 004fc094     Lib_Network:s_CLogSystem.obj
 0002:000030a4       ??_C@_0BA@CKOIAEDN@_?$CFY?$CFm?$CFd?$CFH?$CFM?4log?$AA@ 004fc0a4     Lib_Network:s_CLogSystem.obj
 0002:000030b4       ??_C@_05FBGACEDE@?2log?2?$AA@ 004fc0b4     Lib_Network:s_CLogSystem.obj
 0002:000030bc       ??_C@_03GGEOLGBL@Log?$AA@  004fc0bc     Lib_Network:s_CLogSystem.obj
 0002:000030c0       __real@4082c00000000000    004fc0c0     Lib_Network:s_CLogSystem.obj
 0002:000030c8       ??_C@_03OFAPEBGM@?$CFs?6?$AA@ 004fc0c8     Lib_Network:s_CLogSystem.obj
 0002:000030cc       ??_C@_01MCMALHOG@a?$AA@    004fc0cc     Lib_Network:s_CLogSystem.obj
 0002:000030d0       ??_C@_0CM@DDIIDBLE@ERROR?3SQLAllocHandle?5SQL_HANDLE_@ 004fc0d0     Lib_Network:s_COdbcSupervisor.obj
 0002:000030fc       ??_C@_0BI@NGGLICJP@ERROR?3SQLConnect?5Failed?$AA@ 004fc0fc     Lib_Network:s_COdbcSupervisor.obj
 0002:00003114       ??_C@_0DB@LGGHCAKE@ERROR?3SQLSetConnectAttr?5SQL_LOGI@ 004fc114     Lib_Network:s_COdbcSupervisor.obj
 0002:00003148       ??_C@_0CL@GPPNGNFP@ERROR?3SQLAllocHandle?5SQL_HANDLE_@ 004fc148     Lib_Network:s_COdbcSupervisor.obj
 0002:00003174       ??_C@_0BH@JMEOMBBA@ERROR?3SQLBindParameter?$AA@ 004fc174     Lib_Network:s_COdbcSupervisor.obj
 0002:0000318c       ??_C@_0DK@NLMLJNKG@SELECT?5?$CFs?5FROM?5PetInfo?5where?5?$CIPe@ 004fc18c     Lib_Network:s_COdbcSupervisor.obj
 0002:000031c8       ??_C@_0EI@OKLNBELJ@SELECT?5?$CFs?5FROM?5VehicleInfo?5where@ 004fc1c8     Lib_Network:s_COdbcSupervisor.obj
 0002:00003210       ??_C@_0CO@BNABILLC@?$HLcall?5sp_InsertEquipmentPass?$CI?$CFd?0@ 004fc210     Lib_Network:s_COdbcGameChaEquipmentLock.obj
 0002:00003240       ??_C@_01GEODFPGF@?8?$AA@   004fc240     Lib_Network:s_COdbcGameChaEquipmentLock.obj
 0002:00003244       ??_C@_02OHHJMEON@?8?8?$AA@ 004fc244     Lib_Network:s_COdbcGameChaEquipmentLock.obj
 0002:00003248       ??_C@_0CN@LDMBLCFH@?$HLcall?5sp_CheckEquipmentPass?$CI?$CFd?0?8@ 004fc248     Lib_Network:s_COdbcGameChaEquipmentLock.obj
 0002:00003278       ??_C@_0DO@MMCPHMJL@ERROR?3EquipmentLockRecover?5RowCo@ 004fc278     Lib_Network:s_COdbcGameChaEquipmentLock.obj
 0002:000032b8       ??_C@_0EH@LAJLJGPJ@SELECT?5ChaEPass?5FROM?5ChaEquipmen@ 004fc2b8     Lib_Network:s_COdbcGameChaEquipmentLock.obj
 0002:00003300       ??_C@_0CO@JDNEFDLA@?$HLcall?5sp_ChangeEquipmentPass?$CI?$CFd?0@ 004fc300     Lib_Network:s_COdbcGameChaEquipmentLock.obj
 0002:00003330       ??_C@_0CJ@MGEIKPM@?$HLcall?5sp_DeleteEquipmentPass?$CI?$CFd?0@ 004fc330     Lib_Network:s_COdbcGameChaEquipmentLock.obj
 0002:0000335c       ??_C@_0CF@JDHLKGLM@?$HLcall?5InsertPartyMatch?$CI?$CFd?0?$CFd?0?$CFu?0@ 004fc35c     Lib_Network:s_COdbcGame.obj
 0002:00003384       ??_C@_0CA@HOEIKOLE@?$HLcall?5UpdateChaExp?$CI?$CFI64d?0?$CFd?0?$DP?$CJ?$HN?$AA@ 004fc384     Lib_Network:s_COdbcGame.obj
 0002:000033a4       ??_C@_0CL@FGKKENKO@SELECT?5ChaExp?5From?5ChaInfo?5WHERE@ 004fc3a4     Lib_Network:s_COdbcGame.obj
 0002:000033d0       ??_C@_0CO@BILJBEJD@?$HLcall?5UpdateChaLastCallPos?$CI?$CFu?0?$CFf@ 004fc3d0     Lib_Network:s_COdbcGame.obj
 0002:00003400       ??_C@_0IP@DHHILKMP@SELECT?5ChaNum?0?5ChaName?0?5ChaSchoo@ 004fc400     Lib_Network:s_COdbcGame.obj
 0002:00003490       ??_7basestream@@6B@        004fc490     Lib_Network:s_COdbcGameInven.obj
 0002:00003554       ??_C@_0DH@HAGNKEIO@Update?5UserInven?5Set?5ChaStorage2@ 004fc554     Lib_Network:s_COdbcGameInven.obj
 0002:0000358c       ??_C@_0DH@PBEIMBKJ@Update?5UserInven?5Set?5ChaStorage3@ 004fc58c     Lib_Network:s_COdbcGameInven.obj
 0002:000035c4       ??_C@_0DH@MAFAPGNO@Update?5UserInven?5Set?5ChaStorage4@ 004fc5c4     Lib_Network:s_COdbcGameInven.obj
 0002:000035fc       ??_C@_0DE@NMBHFBOK@Update?5ChaInfo?5Set?5ChaInvenLine?$DN@ 004fc5fc     Lib_Network:s_COdbcGameInven.obj
 0002:00003630       ??_C@_0BL@LHFIDCDD@?$HLcall?5GetInvenCount?$CI?$CFu?0?$DP?$CJ?$HN?$AA@ 004fc630     Lib_Network:s_COdbcGameInven.obj
 0002:0000364c       ??_C@_0BO@DHACDGHI@?$HLcall?5MakeUserInven?$CI?$CFd?0?$CFu?0?$DP?$CJ?$HN?$AA@ 004fc64c     Lib_Network:s_COdbcGameInven.obj
 0002:0000366c       ??_C@_0DG@JFOCGAA@UPDATE?5UserInven?5SET?5UserInven?5?$DN@ 004fc66c     Lib_Network:s_COdbcGameInven.obj
 0002:000036a4       ??_C@_0CB@HCHMNGKE@?$HLcall?5UpdateUserMoney?$CI?$CFu?0?$CFI64d?$CJ?$HN@ 004fc6a4     Lib_Network:s_COdbcGameInven.obj
 0002:000036c8       ??_C@_0CJ@OCACDLPB@?$HLcall?5sp_UpdateUserMoneyAdd?$CI?$CFu?0?$CF@ 004fc6c8     Lib_Network:s_COdbcGameInven.obj
 0002:000036f4       ??_C@_0CE@OJNIPPCD@Exec?5sp_InsertUserLastInfo?5?$CFu?0?5?8@ 004fc6f4     Lib_Network:s_COdbcGameInven.obj
 0002:00003718       ??_C@_05LLAMLEHD@?$CFI64d?$AA@ 004fc718     Lib_Network:s_COdbcGameInven.obj
 0002:00003720       ??_C@_02HAOIJKIC@?$CFc?$AA@ 004fc720     Lib_Network:s_COdbcGameInven.obj
 0002:00003724       ??_C@_0DE@NCCFJBNI@SELECT?5UserMoney?5FROM?5UserLastIn@ 004fc724     Lib_Network:s_COdbcGameInven.obj
 0002:00003758       ??_C@_07DLHCIBDH@default?$AA@ 004fc758     Lib_Network:s_COdbcGameInven.obj
 0002:00003760       ??_7CByteStream@@6B@       004fc760     Lib_Network:s_COdbcGameInven.obj
 0002:0000382c       ??_C@_0DN@JPLDJBAG@SELECT?5UserInven?4UserInven?5FROM?5@ 004fc82c     Lib_Network:s_COdbcGameInven.obj
 0002:0000386c       ??_C@_0O@HDJOECLO@sStorageDate4?$AA@ 004fc86c     Lib_Network:s_COdbcGameInven.obj
 0002:0000387c       ??_C@_0O@DMNPNEHJ@sStorageDate3?$AA@ 004fc87c     Lib_Network:s_COdbcGameInven.obj
 0002:0000388c       ??_C@_0BM@NDNHBONL@COdbcManager?3?3ReadUserInven?$AA@ 004fc88c     Lib_Network:s_COdbcGameInven.obj
 0002:000038a8       ??_C@_0O@CFMEOFDI@sStorageDate2?$AA@ 004fc8a8     Lib_Network:s_COdbcGameInven.obj
 0002:000038b8       ??_C@_0FI@MNFMLCBB@SELECT?5UserMoney?0?5ChaStorage2?0?5C@ 004fc8b8     Lib_Network:s_COdbcGameInven.obj
 0002:00003910       ??_C@_0CH@CENGGOAF@?$HLcall?5sp_InsertAttendLog?$CI?5?$CFd?0?$CFd?0@ 004fc910     Lib_Network:s_COdbcLogEvent.obj
 0002:00003938       ??_C@_0CF@FBPLABK@ERROR?3COdbcManager?3?3InsertUserAt@ 004fc938     Lib_Network:s_COdbcLogEvent.obj
 0002:00003960       ??_C@_0CI@BINOCEBG@?$HLcall?5sp_InsertItem?$CI?8?$CFs?8?0?8?$CFs?8?0?$CFd@ 004fc960     Lib_Network:s_COdbcLogEvent.obj
 0002:00003988       ??_C@_0BM@BGLGILPG@COdbcManager?3?3LogUserAttend?$AA@ 004fc988     Lib_Network:s_COdbcLogEvent.obj
 0002:000039a4       ??_C@_0M@JBAKNJLI@sAttendTime?$AA@ 004fc9a4     Lib_Network:s_COdbcLogEvent.obj
 0002:000039b0       ??_C@_0BJ@IOCBFACH@Exec?5sp_UserAttendLog?5?$CFd?$AA@ 004fc9b0     Lib_Network:s_COdbcLogEvent.obj
 0002:000039cc       ??_C@_0CE@GLJKNAJP@?$HLcall?5log_serverstate?$CI?$CFd?0?$CFd?0?$CFd?0?$CF@ 004fc9cc     Lib_Network:s_COdbcLog.obj
 0002:000039f0       ??_C@_0FC@EPKPIDMH@?$HLcall?5sp_LogItemRandom_Insert?$CI?$CFd@ 004fc9f0     Lib_Network:s_COdbcLog.obj
 0002:00003a44       ??_C@_0DA@OHGJGGIO@?$HLcall?5sp_LogPetAction_Insert?$CI?$CFd?0@ 004fca44     Lib_Network:s_COdbcLog.obj
 0002:00003a74       ??_C@_0DE@PIOJJEKP@?$HLcall?5sp_LogVehicleAction_Insert@ 004fca74     Lib_Network:s_COdbcLog.obj
 0002:00003aa8       ??_C@_0DH@BFCEHADL@?$HLcall?5sp_LogAction_Insert?$CI?$CFd?0?$CFd?0@ 004fcaa8     Lib_Network:s_COdbcLog.obj
 0002:00003ae0       ??_C@_0DO@EGJHLJAN@INSERT?5INTO?5LogAppeal?5?$CISGNum?0?5Ch@ 004fcae0     Lib_Network:s_COdbcLog.obj
 0002:00003b20       ??_C@_0DD@FHMCEIGI@?$HLcall?5InsertLogHackProgram?$CI?$CFd?0?$CFd@ 004fcb20     Lib_Network:s_COdbcLog.obj
 0002:00003b54       ??_C@_0CC@BMMPIALK@ERROR?3COdbcManager?3?3CreateVehicl@ 004fcb54     Lib_Network:s_OdbcGameVehicle.obj
 0002:00003b78       ??_C@_0CM@EKIHDKCI@?$HLcall?5sp_InsertVehicle?$CI?8?$CFs?8?0?$CFd?0?$CF@ 004fcb78     Lib_Network:s_OdbcGameVehicle.obj
 0002:00003ba4       ??_C@_0CL@FDMGHIHK@?$HLcall?5sp_UpdateVehicleBooster?$CI?$CFd@ 004fcba4     Lib_Network:s_OdbcGameVehicle.obj
 0002:00003bd0       ??_C@_0CG@LMMDPDDO@ERROR?3COdbcManager?3?3SetVehicleBo@ 004fcbd0     Lib_Network:s_OdbcGameVehicle.obj
 0002:00003bf8       ??_C@_0CF@PCNCEJMG@ERROR?3COdbcManager?3?3SetVehicleBt@ 004fcbf8     Lib_Network:s_OdbcGameVehicle.obj
 0002:00003c20       ??_C@_0CL@EHHIKLHE@?$HLcall?5sp_UpdateVehicleBattery?$CI?$CFd@ 004fcc20     Lib_Network:s_OdbcGameVehicle.obj
 0002:00003c4c       ??_C@_0CF@MFNLCPCF@?$HLcall?5sp_GetVehicleBattery?$CI?$CFd?0?$CFd@ 004fcc4c     Lib_Network:s_OdbcGameVehicle.obj
 0002:00003c74       ??_C@_0CC@HPOMPIGA@?$HLcall?5sp_DeleteVehicle?$CI?$CFd?0?5?$CFd?0?$DP?$CJ@ 004fcc74     Lib_Network:s_OdbcGameVehicle.obj
 0002:00003c98       ??_C@_0CC@JNAGMDOL@ERROR?3COdbcManager?3?3DeleteVehicl@ 004fcc98     Lib_Network:s_OdbcGameVehicle.obj
 0002:00003cbc       ??_C@_0DL@JHIJAFJE@ERROR?3GetVehicle?5RowCount?5?$DN?50?0?5V@ 004fccbc     Lib_Network:s_OdbcGameVehicle.obj
 0002:00003cf8       ??_C@_0BM@IGJMBOLB@Exec?5sp_SelectVehicle?5?$CFd?0?$CFd?$AA@ 004fccf8     Lib_Network:s_OdbcGameVehicle.obj
 0002:00003d14       ??_C@_0CO@BOABKKJA@ERROR?3COdbcManager?3?3GetVehicle?5p@ 004fcd14     Lib_Network:s_OdbcGameVehicle.obj
 0002:00003d44       ??_C@_0BE@HDLBPIDD@?5WHERE?5?$CIVehicleNum?$DN?$AA@ 004fcd44     Lib_Network:s_OdbcGameVehicle.obj
 0002:00003d58       ??_C@_0BG@GGECFGEL@?$CJ?5And?$CI?5VehicleChaNum?$DN?$AA@ 004fcd58     Lib_Network:s_OdbcGameVehicle.obj
 0002:00003d70       ??_C@_01PKGAHCOL@?$CJ?$AA@ 004fcd70     Lib_Network:s_OdbcGameVehicle.obj
 0002:00003d74       ??_C@_0DH@KLLHOGLM@UPDATE?5VehicleInfo?5SET?5VehicleIn@ 004fcd74     Lib_Network:s_OdbcGameVehicle.obj
 0002:00003dac       ??_C@_0CE@JFHJKLPN@ERROR?3COdbcManager?3?3SetVehicleIn@ 004fcdac     Lib_Network:s_OdbcGameVehicle.obj
 0002:00003dd0       ??_C@_0DC@HPOHDHMG@UPDATE?5VehicleInfo?5SET?5VehicleIn@ 004fcdd0     Lib_Network:s_OdbcGameVehicle.obj
 0002:00003e04       ??_C@_0CE@NNMGMOFL@ERROR?3COdbcManager?3?3SetVehicleCo@ 004fce04     Lib_Network:s_OdbcGameVehicle.obj
 0002:00003e28       ??_C@_0BO@GNBAOKPH@VehicleInfo?4VehiclePutOnItems?$AA@ 004fce28     Lib_Network:s_OdbcGameVehicle.obj
 0002:00003e48       ??_C@_0DD@CGDHHNOM@ERROR?3COdbcManager?3?3GetVehicleIn@ 004fce48     Lib_Network:s_OdbcGameVehicle.obj
 0002:00003e7c       ??_C@_0BJ@KGICEEHO@VehicleInfo?4VehicleColor?$AA@ 004fce7c     Lib_Network:s_OdbcGameVehicle.obj
 0002:00003e98       ??_C@_0CL@DPBLIIEJ@?$HLcall?5daum_user_passcheck?$CI?8?$CFs?8?0?8@ 004fce98     Lib_Network:s_COdbcUserCheck.obj
 0002:00003ec4       ??_C@_0CM@NKGEMKK@?$HLcall?5terra_user_passcheck?$CI?8?$CFs?8?0@ 004fcec4     Lib_Network:s_COdbcUserCheck.obj
 0002:00003ef0       ??_C@_0DC@LNAFNJJB@?$HLcall?5excite_user_passcheck?$CI?8?$CFs?8@ 004fcef0     Lib_Network:s_COdbcUserCheck.obj
 0002:00003f24       ??_C@_0CP@DJHCOMPC@SELECT?5CC_CLASS?5FROM?5TB_CC_IP?5WH@ 004fcf24     Lib_Network:s_COdbcUserCheck.obj
 0002:00003f54       ??_C@_0CO@KIFPNOPO@?$HLcall?5sp_LogSms_Insert?$CI?$CFd?0?8?8?0?$CFd?0@ 004fcf54     Lib_Network:s_COdbcSMS.obj
 0002:00003f84       ??_C@_0CF@BFPGPBKM@?$HLcall?5UpdateChaFriendSms?$CI?$CFd?0?8?$CFs?8@ 004fcf84     Lib_Network:s_COdbcSMS.obj
 0002:00003fac       ??_C@_0BO@BJOPGPGE@ERROR?3COdbcManager?3?3CreatePet?$AA@ 004fcfac     Lib_Network:s_COdbcGamePet.obj
 0002:00003fcc       ??_C@_0DE@CPBHCAND@?$HLcall?5sp_InsertPet?$CI?8?$CFs?8?0?$CFd?0?$CFd?0?$CFd@ 004fcfcc     Lib_Network:s_COdbcGamePet.obj
 0002:00004000       ??_C@_0CA@HFIPCBAN@ERROR?3COdbcManager?3?3ExchangePet?$AA@ 004fd000     Lib_Network:s_COdbcGamePet.obj
 0002:00004020       ??_C@_0CD@DMFDLCNA@?$HLcall?5sp_UpdatePetChaNum?$CI?$CFd?0?$CFd?0?$DP@ 004fd020     Lib_Network:s_COdbcGamePet.obj
 0002:00004044       ??_C@_0CF@FIEPKAJI@?$HLcall?5sp_UpdatePetColor?$CI?$CFd?0?$CFd?0?$CFd@ 004fd044     Lib_Network:s_COdbcGamePet.obj
 0002:0000406c       ??_C@_0CA@NDAKOPDE@ERROR?3COdbcManager?3?3SetPetColor?$AA@ 004fd06c     Lib_Network:s_COdbcGamePet.obj
 0002:0000408c       ??_C@_0CF@INCNOFLC@?$HLcall?5sp_UpdatePetStyle?$CI?$CFd?0?$CFd?0?$CFd@ 004fd08c     Lib_Network:s_COdbcGamePet.obj
 0002:000040b4       ??_C@_0CA@KHOONGFO@ERROR?3COdbcManager?3?3SetPetStyle?$AA@ 004fd0b4     Lib_Network:s_COdbcGamePet.obj
 0002:000040d4       ??_C@_0BP@LOHJLEDP@ERROR?3COdbcManager?3?3SetPetFull?$AA@ 004fd0d4     Lib_Network:s_COdbcGamePet.obj
 0002:000040f4       ??_C@_0CE@NOLEGOOM@?$HLcall?5sp_UpdatePetFull?$CI?$CFd?0?$CFd?0?$CFd?0@ 004fd0f4     Lib_Network:s_COdbcGamePet.obj
 0002:00004118       ??_C@_0BN@IAJHGBKB@?$HLcall?5sp_DeletePet?$CI?$CFd?0?$CFd?0?$DP?$CJ?$HN?$AA@ 004fd118     Lib_Network:s_COdbcGamePet.obj
 0002:00004138       ??_C@_0BO@NIJCGEJN@ERROR?3COdbcManager?3?3DeletePet?$AA@ 004fd138     Lib_Network:s_COdbcGamePet.obj
 0002:00004158       ??_C@_0DE@BGEFJODO@?$HLcall?5sp_UpdatePetInven?$CI?$CFd?0?$CFd?0?$CFd@ 004fd158     Lib_Network:s_COdbcGamePet.obj
 0002:0000418c       ??_C@_0CA@MEIFDKNL@ERROR?3COdbcManager?3?3SetPetSkill?$AA@ 004fd18c     Lib_Network:s_COdbcGamePet.obj
 0002:000041ac       ??_C@_0BO@PIECIOPN@?$HLcall?5sp_GetPetFull?$CI?$CFd?0?$CFu?0?$DP?$CJ?$HN?$AA@ 004fd1ac     Lib_Network:s_COdbcGamePet.obj
 0002:000041cc       ??_C@_0BO@GNCHBNEA@?$HLcall?5sp_RestorePet?$CI?$CFu?0?$CFd?0?$DP?$CJ?$HN?$AA@ 004fd1cc     Lib_Network:s_COdbcGamePet.obj
 0002:000041ec       ??_C@_0BP@IIMEHPMH@ERROR?3COdbcManager?3?3RestorePet?$AA@ 004fd1ec     Lib_Network:s_COdbcGamePet.obj
 0002:0000420c       ??_C@_0CC@CHFGML@ERROR?3COdbcManager?3?3UpdatePetSki@ 004fd20c     Lib_Network:s_COdbcGamePet.obj
 0002:00004230       ??_C@_0CN@KCJPEKMP@?$HLcall?5sp_UpdatePetSkin?$CI?$CFd?0?$CFu?0?$CFd?0@ 004fd230     Lib_Network:s_COdbcGamePet.obj
 0002:00004260       ??_C@_0CJ@LCOLAHLO@?$HLcall?5sp_UpdatePetDualSkill?$CI?$CFd?0?$CF@ 004fd260     Lib_Network:s_COdbcGamePet.obj
 0002:0000428c       ??_C@_0CE@KFKEHBPM@ERROR?3COdbcManager?3?3SetPetDualSk@ 004fd28c     Lib_Network:s_COdbcGamePet.obj
 0002:000042b0       ??_C@_0CC@HFGAGIII@?$HLcall?5sp_RenamePet?$CI?$CFd?0?$CFd?0?8?$CFs?8?0?$DP?$CJ@ 004fd2b0     Lib_Network:s_COdbcGamePet.obj
 0002:000042d4       ??_C@_0CO@KNBMCGMA@ERROR?3COdbcManager?3?3RenamePet?5sz@ 004fd2d4     Lib_Network:s_COdbcGamePet.obj
 0002:00004304       ??_C@_0DD@MKGOFILJ@ERROR?3GetPet?5RowCount?5?$DN?50?0?5PetID@ 004fd304     Lib_Network:s_COdbcGamePet.obj
 0002:00004338       ??_C@_0BF@ELFHCICH@COdbcManager?3?3GetPet?$AA@ 004fd338     Lib_Network:s_COdbcGamePet.obj
 0002:00004350       ??_C@_0BC@FGNOLKLA@sPetSkinStartDate?$AA@ 004fd350     Lib_Network:s_COdbcGamePet.obj
 0002:00004364       __real@3c23d70a            004fd364     Lib_Network:s_COdbcGamePet.obj
 0002:00004368       ??_C@_0OJ@JPPJINBJ@SELECT?5PetName?0?5PetChaNum?0?5PetTy@ 004fd368     Lib_Network:s_COdbcGamePet.obj
 0002:00004454       ??_C@_0CG@PMFGCHAI@ERROR?3COdbcManager?3?3GetPet?5pPet?$DN@ 004fd454     Lib_Network:s_COdbcGamePet.obj
 0002:0000447c       ??_C@_0BB@MOGOBHAF@list?$DMT?$DO?5too?5long?$AA@ 004fd47c     Lib_Network:s_COdbcGamePet.obj
 0002:00004490       ??_C@_0DK@KIGKCDAO@UPDATE?5PetInfo?5SET?5PetInfo?4PetPu@ 004fd490     Lib_Network:s_COdbcGamePet.obj
 0002:000044cc       ??_C@_0P@GFAINAOF@And?5PetChaNum?$DN?$AA@ 004fd4cc     Lib_Network:s_COdbcGamePet.obj
 0002:000044dc       ??_C@_0CA@JLLFIKJC@ERROR?3COdbcManager?3?3SetPetInven?$AA@ 004fd4dc     Lib_Network:s_COdbcGamePet.obj
 0002:000044fc       ??_C@_0BG@KBPFGJNH@PetInfo?4PetPutOnItems?$AA@ 004fd4fc     Lib_Network:s_COdbcGamePet.obj
 0002:00004514       ??_C@_0CL@CPIODCMB@ERROR?3COdbcManager?3?3GetPetInven?5@ 004fd514     Lib_Network:s_COdbcGamePet.obj
 0002:00004540       ??_C@_0IM@GCAMIDAF@SELECT?5PetInvenMID?0?5PetInvenSID?0@ 004fd540     Lib_Network:s_COdbcGamePet.obj
 0002:000045cc       ??_C@_0CL@KOEKLPCK@ERROR?3COdbcManager?3?3GetPetSkill?5@ 004fd5cc     Lib_Network:s_COdbcGamePet.obj
 0002:000045f8       ??_C@_0GJ@GJOJPDAN@SELECT?5PetNum?0?5PetName?0?5PetType?0@ 004fd5f8     Lib_Network:s_COdbcGamePet.obj
 0002:00004664       ??_C@_0DO@PCFFFBCE@SELECT?5UserPoint?0?5UserPoint2?5FRO@ 004fd664     Lib_Network:s_COdbcUserGetUserInfo.obj
 0002:000046a8       ??_C@_0ON@OPIKMKFM@UPDATE?5ChaInfo?5SET?5ChaStartMap?$DN?$CF@ 004fd6a8     Lib_Network:s_COdbcGameChaSave.obj
 0002:00004798       ??_C@_0DL@GJDLPMLN@UPDATE?5ChaInfo?5SET?5ChaInfo?4ChaAc@ 004fd798     Lib_Network:s_COdbcGameChaSave.obj
 0002:000047d4       ??_C@_0DL@LGMKGBGC@UPDATE?5ChaInfo?5SET?5ChaInfo?4ChaIt@ 004fd7d4     Lib_Network:s_COdbcGameChaSave.obj
 0002:00004810       ??_C@_0DL@LAECIKEC@UPDATE?5ChaInfo?5SET?5ChaInfo?4ChaCo@ 004fd810     Lib_Network:s_COdbcGameChaSave.obj
 0002:0000484c       ??_C@_0DI@GONBOHFC@UPDATE?5ChaInfo?5SET?5ChaInfo?4ChaQu@ 004fd84c     Lib_Network:s_COdbcGameChaSave.obj
 0002:00004884       ??_C@_0DI@CFHCBEPO@UPDATE?5ChaInfo?5SET?5ChaInfo?4ChaIn@ 004fd884     Lib_Network:s_COdbcGameChaSave.obj
 0002:000048bc       ??_C@_0DN@KCMJGAOC@UPDATE?5ChaInfo?5SET?5ChaInfo?4ChaPu@ 004fd8bc     Lib_Network:s_COdbcGameChaSave.obj
 0002:000048fc       ??_C@_0DN@BEHOAIGN@UPDATE?5ChaInfo?5SET?5ChaInfo?4ChaAc@ 004fd8fc     Lib_Network:s_COdbcGameChaSave.obj
 0002:0000493c       ??_C@_0DM@OHADNLBO@UPDATE?5ChaInfo?5SET?5ChaInfo?4ChaSk@ 004fd93c     Lib_Network:s_COdbcGameChaSave.obj
 0002:00004978       ??_C@_0DJ@KCMDCMCK@UPDATE?5ChaInfo?5SET?5ChaInfo?4ChaSk@ 004fd978     Lib_Network:s_COdbcGameChaSave.obj
 0002:000049b8       ??_C@_0DDL@CKBALICC@UPDATE?5ChaInfo?5SET?5ChaBright?$DN?$CFd?0@ 004fd9b8     Lib_Network:s_COdbcGameChaSave.obj
 0002:00004cf4       ??_C@_0CD@BMJGJNDF@?$HLcall?5UpdateChaHairColor?$CI?$CFu?0?$CFd?0?$DP@ 004fdcf4     Lib_Network:s_COdbcGameChaHair.obj
 0002:00004d18       ??_C@_0CD@EHHMKAKG@?$HLcall?5UpdateChaHairStyle?$CI?$CFu?0?$CFd?0?$DP@ 004fdd18     Lib_Network:s_COdbcGameChaHair.obj
 0002:00004d3c       ??_C@_0CD@HLMCMLHI@?$HLcall?5UpdateChaFaceStyle?$CI?$CFu?0?$CFd?0?$DP@ 004fdd3c     Lib_Network:s_COdbcGameChaHair.obj
 0002:00004d60       ??_C@_0CH@DLEILGM@ERROR?3COdbcManager?3?3SetChaGender@ 004fdd60     Lib_Network:s_COdbcGameChaHair.obj
 0002:00004d88       ??_C@_0CP@OGDGLCEJ@?$HLcall?5sp_UpdateChaGender?$CI?$CFu?0?$CFd?0?$CF@ 004fdd88     Lib_Network:s_COdbcGameChaHair.obj
 0002:00004db8       ??_C@_0CC@FINPDBAJ@?$HLcall?5RenameCharacter?$CI?$CFd?0?8?$CFs?8?0?$DP?$CJ@ 004fddb8     Lib_Network:s_COdbcGameChaRename.obj
 0002:00004ddc       ??_C@_0CC@KDICHHIL@?$HLcall?5sp_create_guild?$CI?$CFu?0?8?$CFs?8?0?$DP?$CJ@ 004fdddc     Lib_Network:s_COdbcGameClub.obj
 0002:00004e00       ??_C@_0CA@GFBDHNDA@?$HLcall?5sp_delete_guild?$CI?$CFu?0?$CFu?0?$DP?$CJ?$HN?$AA@ 004fde00     Lib_Network:s_COdbcGameClub.obj
 0002:00004e20       ??_C@_0CF@JBABNGHK@?$HLcall?5sp_update_guild_rank?$CI?$CFu?0?$CFu@ 004fde20     Lib_Network:s_COdbcGameClub.obj
 0002:00004e48       ??_C@_0DG@LPCCFPKH@UPDATE?5GuildInfo?5SET?5GuExpireTim@ 004fde48     Lib_Network:s_COdbcGameClub.obj
 0002:00004e80       ??_C@_0DH@EIAKAEGK@UPDATE?5GuildInfo?5SET?5GuAllianceS@ 004fde80     Lib_Network:s_COdbcGameClub.obj
 0002:00004eb8       ??_C@_0DH@KPGLOENE@UPDATE?5GuildInfo?5SET?5GuAllianceD@ 004fdeb8     Lib_Network:s_COdbcGameClub.obj
 0002:00004ef0       ??_C@_0DJ@NPIBFNIJ@UPDATE?5GuildInfo?5SET?5GuAuthority@ 004fdef0     Lib_Network:s_COdbcGameClub.obj
 0002:00004f2c       ??_C@_0CE@CABGADDI@?$HLcall?5sp_add_guild_member?$CI?$CFu?0?$CFu?0@ 004fdf2c     Lib_Network:s_COdbcGameClub.obj
 0002:00004f50       ??_C@_0CE@DOPNCBLO@?$HLcall?5sp_delete_guild_member?$CI?$CFu?0@ 004fdf50     Lib_Network:s_COdbcGameClub.obj
 0002:00004f74       ??_C@_0DC@KEBDAJLG@szClubNotice?5NULL?5or?5large?5than?5@ 004fdf74     Lib_Network:s_COdbcGameClub.obj
 0002:00004fa8       ??_C@_0DC@KIGIGCOL@UPDATE?5GuildInfo?5SET?5GuNotice?$DN?8?$CF@ 004fdfa8     Lib_Network:s_COdbcGameClub.obj
 0002:00004fdc       ??_C@_0DE@MGNGBNOA@UPDATE?5GuildInfo?5SET?5GuMarkImage@ 004fdfdc     Lib_Network:s_COdbcGameClub.obj
 0002:00005010       ??_C@_0DB@PKBGNNLD@UPDATE?5GuildInfo?5SET?5GuMarkVer?$DN?$CF@ 004fe010     Lib_Network:s_COdbcGameClub.obj
 0002:00005044       ??_C@_0DI@PLGCIIEO@Update?5GuildInfo?5Set?5GuIncomeMon@ 004fe044     Lib_Network:s_COdbcGameClub.obj
 0002:0000507c       ??_C@_0DD@CLIFCLEM@SetClubIncomeMoney?5llMoney?5Must?5@ 004fe07c     Lib_Network:s_COdbcGameClub.obj
 0002:000050b0       ??_C@_0DD@PJLLCEGJ@SELECT?5GuIncomeMoney?5From?5GuildI@ 004fe0b0     Lib_Network:s_COdbcGameClub.obj
 0002:000050e4       ??_C@_0DC@GJDDIPJF@GetClubIncomeMoney?5dwClub?5is?5mus@ 004fe0e4     Lib_Network:s_COdbcGameClub.obj
 0002:00005118       ??_C@_0DC@LHKNAGM@Update?5GuildInfo?5Set?5GuMoney?$DN?$CFI6@ 004fe118     Lib_Network:s_COdbcGameClub.obj
 0002:0000514c       ??_C@_0CN@MADCKHBJ@SetClubMoney?5llMoney?5Must?5be?5lar@ 004fe14c     Lib_Network:s_COdbcGameClub.obj
 0002:0000517c       ??_C@_0CN@GBHAGHFH@SELECT?5GuMoney?5From?5GuildInfo?5WH@ 004fe17c     Lib_Network:s_COdbcGameClub.obj
 0002:000051ac       ??_C@_0CM@OEECFHGB@GetClubMoney?5dwClub?5is?5must?5larg@ 004fe1ac     Lib_Network:s_COdbcGameClub.obj
 0002:000051d8       ??_C@_0DJ@DAIFBEGL@WriteClubStorage?5?$CIpData?0?5nSize?0?5@ 004fe1d8     Lib_Network:s_COdbcGameClub.obj
 0002:00005214       ??_C@_0DC@CAOLBPON@UPDATE?5GuildInfo?5SET?5GuStorage?$DN?$DP@ 004fe214     Lib_Network:s_COdbcGameClub.obj
 0002:00005248       ??_C@_0DO@GDBEECKK@UPDATE?5ChaInfo?5SET?5GuPosition?$DN?$CFu@ 004fe248     Lib_Network:s_COdbcGameClub.obj
 0002:00005288       ??_C@_0DP@JBOMJOGN@Update?5GuildInfo?5WITH?5?$CIUPDLOCK?$CJ?5@ 004fe288     Lib_Network:s_COdbcGameClub.obj
 0002:000052c8       ??_C@_0DN@NDNAAIMC@Update?5GuildInfo?5WITH?5?$CIUPDLOCK?$CJ?5@ 004fe2c8     Lib_Network:s_COdbcGameClub.obj
 0002:00005308       ??_C@_0CH@GGFNLON@?$HLcall?5sp_add_guild_region?$CI?$CFu?0?$CFu?0@ 004fe308     Lib_Network:s_COdbcGameClub.obj
 0002:00005330       ??_C@_0CH@PCCOBNDK@?$HLcall?5sp_delete_guild_region?$CI?$CFu?0@ 004fe330     Lib_Network:s_COdbcGameClub.obj
 0002:00005358       ??_C@_0CI@IKJAMGKP@ERROR?3SetClubAlliance?3Check?5Club@ 004fe358     Lib_Network:s_COdbcGameClub.obj
 0002:00005380       ??_C@_0CE@NCBOPDDH@?$HLcall?5InsertGuildAlliance?$CI?$CFu?0?$CFu?0@ 004fe380     Lib_Network:s_COdbcGameClub.obj
 0002:000053a4       ??_C@_0CI@KOOEDCDD@ERROR?3DelClubAlliance?3Check?5Club@ 004fe3a4     Lib_Network:s_COdbcGameClub.obj
 0002:000053cc       ??_C@_0CE@PMOEIMGK@?$HLcall?5DeleteGuildAlliance?$CI?$CFu?0?$CFu?0@ 004fe3cc     Lib_Network:s_COdbcGameClub.obj
 0002:000053f0       ??_C@_0CB@NBCOKCDM@ERROR?3?5ODBCManager?5SetClubBattle@ 004fe3f0     Lib_Network:s_COdbcGameClub.obj
 0002:00005414       ??_C@_0CJ@GLNNGDMN@?$HLcall?5sp_RequestGuBattle?$CI?$CFu?0?$CFu?0?$CF@ 004fe414     Lib_Network:s_COdbcGameClub.obj
 0002:00005440       ??_C@_0CB@KEIPIHLJ@ERROR?3?5ODBCManager?5EndClubBattle@ 004fe440     Lib_Network:s_COdbcGameClub.obj
 0002:00005464       ??_C@_0CI@IPBKNCH@?$HLcall?5sp_EndGuBattle?$CI?$CFu?0?$CFu?0?$CFu?0?$CFu@ 004fe464     Lib_Network:s_COdbcGameClub.obj
 0002:0000548c       ??_C@_0DA@HPBCNHMB@?$HLcall?5sp_EndGuAllianceBattle?$CI?$CFu?0@ 004fe48c     Lib_Network:s_COdbcGameClub.obj
 0002:000054bc       ??_C@_0CC@HBPCOBIE@ERROR?3?5ODBCManager?5SaveClubBattl@ 004fe4bc     Lib_Network:s_COdbcGameClub.obj
 0002:000054e0       ??_C@_0CG@HKDCJDEB@?$HLcall?5sp_SaveGuBattle?$CI?$CFu?0?$CFu?0?$CFu?0?$CF@ 004fe4e0     Lib_Network:s_COdbcGameClub.obj
 0002:00005508       ??_C@_0CE@EFLDKMKA@?$HLcall?5sp_ResetAllianceBattle?$CI?$CFu?0@ 004fe508     Lib_Network:s_COdbcGameClub.obj
 0002:0000552c       ??_C@_0CH@CDGBFDCG@ERROR?3?5ODBCManager?5ReSetAlliance@ 004fe52c     Lib_Network:s_COdbcGameClub.obj
 0002:00005554       ??_C@_0DN@NANOBNLC@SELECT?5GuildInfo?4GuMarkImage?5FRO@ 004fe554     Lib_Network:s_COdbcGameClub.obj
 0002:00005594       ??_C@_0DL@CFIIOBGN@SELECT?5GuildInfo?4GuStorage?5FROM?5@ 004fe594     Lib_Network:s_COdbcGameClub.obj
 0002:000055d0       ??_C@_0CP@FPPOJNNL@ReadClubStorage?5dwClub?5must?5be?5l@ 004fe5d0     Lib_Network:s_COdbcGameClub.obj
 0002:00005600       ??_C@_0EH@FPBOOOIN@SELECT?5GuNumP?0?5GuNumS?5FROM?5Guild@ 004fe600     Lib_Network:s_COdbcGameClub.obj
 0002:00005648       ??_C@_0FI@KOBPFHHK@SELECT?5ChaNum?0?5ChaName?0?5GuPositi@ 004fe648     Lib_Network:s_COdbcGameClub.obj
 0002:000056a0       ??_C@_0BA@BMKILDOE@sBattleLastTime?$AA@ 004fe6a0     Lib_Network:s_COdbcGameClub.obj
 0002:000056b0       ??_C@_0N@HCLOICPC@sAllianceDis?$AA@ 004fe6b0     Lib_Network:s_COdbcGameClub.obj
 0002:000056c0       ??_C@_0N@PMKIAGOB@sAllianceSec?$AA@ 004fe6c0     Lib_Network:s_COdbcGameClub.obj
 0002:000056d0       ??_C@_0P@FPBEOJDH@sAuthorityTime?$AA@ 004fe6d0     Lib_Network:s_COdbcGameClub.obj
 0002:000056e0       ??_C@_0M@FKIOCLOI@sExpireTime?$AA@ 004fe6e0     Lib_Network:s_COdbcGameClub.obj
 0002:000056ec       ??_C@_0BK@CFHFGALG@COdbcManager?3?3GetClubInfo?$AA@ 004fe6ec     Lib_Network:s_COdbcGameClub.obj
 0002:00005708       ??_C@_09DACHHNIC@sMakeTime?$AA@ 004fe708     Lib_Network:s_COdbcGameClub.obj
 0002:00005718       ??_C@_0BDN@DCMJJEGI@SELECT?5GuNum?0?5ChaNum?0?5GuDeputy?0?5@ 004fe718     Lib_Network:s_COdbcGameClub.obj
 0002:00005858       ??_C@_0FD@IFPFDHDO@SELECT?5RegionID?0?5GuNum?0?5RegionTa@ 004fe858     Lib_Network:s_COdbcGameClub.obj
 0002:000058ac       ??_C@_08JMNCJDLN@sEndDate?$AA@ 004fe8ac     Lib_Network:s_COdbcGameClub.obj
 0002:000058b8       ??_C@_0CA@HCABAKEJ@COdbcManager?3?3GetClubBattleInfo?$AA@ 004fe8b8     Lib_Network:s_COdbcGameClub.obj
 0002:000058d8       ??_C@_0L@JOEKMKAC@sStartDate?$AA@ 004fe8d8     Lib_Network:s_COdbcGameClub.obj
 0002:000058e8       ??_C@_0KA@LEIIPCNG@SELECT?5GuSNum?0?5GuFlag?0?5GuKillNum@ 004fe8e8     Lib_Network:s_COdbcGameClub.obj
 0002:00005988       ??_C@_0DL@HENPDFPK@UPDATE?5ChaInfo?5SET?5ChaInfo?4ChaAc@ 004fe988     Lib_Network:s_COdbcGameChaCreate.obj
 0002:000059c4       ??_C@_0DL@KLCOKICF@UPDATE?5ChaInfo?5SET?5ChaInfo?4ChaIt@ 004fe9c4     Lib_Network:s_COdbcGameChaCreate.obj
 0002:00005a00       ??_C@_0DI@HDDFCOBF@UPDATE?5ChaInfo?5SET?5ChaInfo?4ChaQu@ 004fea00     Lib_Network:s_COdbcGameChaCreate.obj
 0002:00005a38       ??_C@_0DI@DIJGNNLJ@UPDATE?5ChaInfo?5SET?5ChaInfo?4ChaIn@ 004fea38     Lib_Network:s_COdbcGameChaCreate.obj
 0002:00005a70       ??_C@_0DN@LPCNKJKF@UPDATE?5ChaInfo?5SET?5ChaInfo?4ChaPu@ 004fea70     Lib_Network:s_COdbcGameChaCreate.obj
 0002:00005ab0       ??_C@_0DN@JJKMBCK@UPDATE?5ChaInfo?5SET?5ChaInfo?4ChaAc@ 004feab0     Lib_Network:s_COdbcGameChaCreate.obj
 0002:00005af0       ??_C@_0DM@PKOHBCFJ@UPDATE?5ChaInfo?5SET?5ChaInfo?4ChaSk@ 004feaf0     Lib_Network:s_COdbcGameChaCreate.obj
 0002:00005b2c       ??_C@_0DJ@LPCHOFGN@UPDATE?5ChaInfo?5SET?5ChaInfo?4ChaSk@ 004feb2c     Lib_Network:s_COdbcGameChaCreate.obj
 0002:00005b68       ??_C@_0CF@GJFGDMO@SELECT?5cast?$CISCOPE_IDENTITY?$CI?$CJ?5as?5@ 004feb68     Lib_Network:s_COdbcGameChaCreate.obj
 0002:00005b90       ??_C@_0DAN@HPLECJG@INSERT?5INTO?5ChaInfo?$CIUserNum?0?5SGN@ 004feb90     Lib_Network:s_COdbcGameChaCreate.obj
 0002:00005ea0       ??_C@_0CF@BDGLLJFA@?$HLcall?5sp_InsertItem2Bank?$CI?8?$CFs?8?0?$CFd@ 004feea0     Lib_Network:s_COdbcShop.obj
 0002:00005ec8       ??_C@_0CL@FFMENCCE@?$HLcall?5sp_purchase_change_state?$CI?8@ 004feec8     Lib_Network:s_COdbcShop.obj
 0002:00005ef8       ??_C@_0FI@KNBJEMIJ@SELECT?5Purkey?0?5ItemMain?0?5ItemSub@ 004feef8     Lib_Network:s_COdbcShop.obj
 0002:00005f50       ??_C@_0JC@FOOGJEJA@SELECT?5ProductNum?0?5ItemMain?0?5Ite@ 004fef50     Lib_Network:s_COdbcShop.obj
 0002:00005fe8       ??_C@_0GM@MDCLLLJF@?$HLcall?5sp_logitemexchange_insert?$CI@ 004fefe8     Lib_Network:s_COdbcLogItem.obj
 0002:00006058       ??_C@_0GM@DKKBCGNK@?$HLcall?5sp_logitemexchange_insert?$CI@ 004ff058     Lib_Network:s_COdbcLogItem.obj
 0002:000060c8       ??_C@_0HC@DADFCJEA@SELECT?5MaxNum?0?5NIDMain?0?5NIDSub?0?5@ 004ff0c8     Lib_Network:s_COdbcLogItem.obj
 0002:0000613c       ??_C@_0CA@GMDLCMMK@?$HLcall?5DeleteChaFriend?$CI?$CFd?0?$CFd?0?$DP?$CJ?$HN?$AA@ 004ff13c     Lib_Network:s_COdbcGameFriend.obj
 0002:0000615c       ??_C@_0CA@NHMMKLNN@?$HLcall?5InsertChaFriend?$CI?$CFd?0?$CFd?0?$DP?$CJ?$HN?$AA@ 004ff15c     Lib_Network:s_COdbcGameFriend.obj
 0002:0000617c       ??_C@_0CD@HFLIPDNG@?$HLcall?5UpdateChaFriend?$CI?$CFd?0?$CFd?0?$CFd?0?$DP@ 004ff17c     Lib_Network:s_COdbcGameFriend.obj
 0002:000061a0       ??_C@_0BH@GDGPALBP@INFO?3SQLAllocHandle?5OK?$AA@ 004ff1a0     Lib_Network:s_COdbcEnv.obj
 0002:000061b8       ??_C@_0BM@GNFOBGPJ@ERROR?3SQLAllocHandle?5Failed?$AA@ 004ff1b8     Lib_Network:s_COdbcEnv.obj
 0002:000061d4       ??_C@_0CE@OHECHNLM@INFO?3SQL_ATTR_CONNECTION_POOLING@ 004ff1d4     Lib_Network:s_COdbcEnv.obj
 0002:000061f8       ??_C@_0CJ@KCODBJGK@ERROR?3SQL_ATTR_CONNECTION_POOLIN@ 004ff1f8     Lib_Network:s_COdbcEnv.obj
 0002:00006224       ??_C@_0BI@GKJCKNNF@ERROR?3?$CFd?5?$CFs?5Buffer?5Over?$AA@ 004ff224     Lib_Network:s_CNetUser.obj
 0002:0000623c       ??_C@_0BM@NLCCNBFH@ERROR?3?$CFd?5?$CFs?5Buffer?5Negative?$AA@ 004ff23c     Lib_Network:s_CNetUser.obj
 0002:00006258       ??_C@_0CG@HFDBBLPO@CNetUser?3?3InsertBuffer?5IsOnline?5@ 004ff258     Lib_Network:s_CNetUser.obj
 0002:00006280       ??_C@_0FO@MIFBOKID@CNetUser?3?3Client?5invalid?5Garbage@ 004ff280     Lib_Network:s_CNetUser.obj
 0002:000062e0       ??_C@_0CL@FJOGEIOB@GTRL?5MESSAGE?$CB?$CB?5GTRL_MSG?5NUM?5?$CFd?0?5@ 004ff2e0     Lib_Network:s_CNetUser.obj
 0002:0000630c       ??_C@_0CN@KCIJKJEM@LOBBY?5MESSAGE?$CB?$CB?5LOBBY_MSG?5NUM?5?$CFd@ 004ff30c     Lib_Network:s_CNetUser.obj
 0002:0000633c       ??_C@_0CN@ICPEJHOE@LOGIN?5MESSAGE?$CB?$CB?5LOGIN_MSG?5NUM?5?$CFd@ 004ff33c     Lib_Network:s_CNetUser.obj
 0002:0000636c       ??_7CNetUser@@6B@          004ff36c     Lib_Network:s_CNetUser.obj
 0002:00006370       ??_C@_0CL@HDDJGDBG@CNetUser?3?3SetAcceptedClient?5clos@ 004ff370     Lib_Network:s_CNetUser.obj
 0002:0000639c       ??_C@_0DH@MOJIAMEN@CNetUser?3?3SetAcceptedClient?5m_So@ 004ff39c     Lib_Network:s_CNetUser.obj
 0002:000063d4       ??_C@_0DF@BCEPNDFH@ERROR?3CNetUser?3?3CloseClient?5clie@ 004ff3d4     Lib_Network:s_CNetUser.obj
 0002:0000640c       ??_C@_0DJ@JILICDOB@ERROR?3CNetUser?3?3CloseClient?5clos@ 004ff40c     Lib_Network:s_CNetUser.obj
 0002:00006448       ??_C@_0DN@POJFNPFC@ERROR?3CNetUser?3?3CloseClient?5clos@ 004ff448     Lib_Network:s_CNetUser.obj
 0002:00006488       ??_C@_0DH@OHOIEIEE@ERROR?3CNetUser?3?3CloseClient?5clos@ 004ff488     Lib_Network:s_CNetUser.obj
 0002:000064c0       ??_C@_0DN@PHACHBH@ERROR?3CNetUser?3?3CloseClient?5clos@ 004ff4c0     Lib_Network:s_CNetUser.obj
 0002:00006500       ??_C@_0DK@OABGPKCI@ERROR?3CNetUser?3?3CloseClient?5clos@ 004ff500     Lib_Network:s_CNetUser.obj
 0002:0000653c       ??_C@_0DK@OEEIFAFP@ERROR?3CNetUser?3?3CloseClient?5clos@ 004ff53c     Lib_Network:s_CNetUser.obj
 0002:00006578       ??_C@_0EA@EBDJDMBC@ERROR?3CNetUser?3?3CloseClient?5clos@ 004ff578     Lib_Network:s_CNetUser.obj
 0002:000065b8       ??_C@_0DI@JELECCJN@ERROR?3CNetUser?3?3CloseClient?5clie@ 004ff5b8     Lib_Network:s_CNetUser.obj
 0002:000065f0       ??_C@_0EE@MMPJJBA@CNetUser?3?3Client?5invalid?5Msg?$CB?$CB?5C@ 004ff5f0     Lib_Network:s_CNetUser.obj
 0002:00006634       ??_C@_0CA@LPONPGAJ@CNetUser?3?3GetMsg?5IsOnline?5false?$AA@ 004ff634     Lib_Network:s_CNetUser.obj
 0002:00006654       ??_C@_0CB@EPCPAHKE@Session?5Server?5Connection?5Failed@ 004ff654     Lib_Network:s_CAgentServerSession.obj
 0002:00006678       ??_C@_0BM@PNJGGGNI@SendSession?5pBuffer?5?$DN?$DN?5NULL?$AA@ 004ff678     Lib_Network:s_CFieldServerSession.obj
 0002:00006694       ??_C@_02CPIDLAI@at?$AA@    004ff694     Lib_Network:s_CCsvFile.obj
 0002:00006698       ??_C@_01IHBHIGKO@?0?$AA@   004ff698     Lib_Network:s_CCsvFile.obj
 0002:000066a0       ??_7TiXmlDocument@@6B@     004ff6a0     Lib_Network:s_CWhiteRockXML.obj
 0002:000066ec       ??_C@_09PKLIECEJ@O5FDASEOT?$AA@ 004ff6ec     Lib_Network:RcvMsgBuffer.obj
 0002:000066f8       ??_C@_06JNBKLGDJ@N6GNET?$AA@ 004ff6f8     Lib_Network:RcvMsgBuffer.obj
 0002:00006700       ??_C@_06EHINGHJC@M7HSET?$AA@ 004ff700     Lib_Network:RcvMsgBuffer.obj
 0002:00006708       ??_C@_06HODPKDEM@L8IDUL?$AA@ 004ff708     Lib_Network:RcvMsgBuffer.obj
 0002:00006710       ??_C@_07CDMLLHFG@K9IHANA?$AA@ 004ff710     Lib_Network:RcvMsgBuffer.obj
 0002:00006718       ??_C@_01NEMOKFLO@?$DN?$AA@ 004ff718     Lib_Network:DaumGameAuth.obj
 0002:0000671c       ??_C@_01HIHLOKLC@1?$AA@    004ff71c     Lib_Network:s_CAgentServerApex.obj
 0002:00006720       ??_C@_0P@LNDMNGGE@GLAT_SKILLDASH?$AA@ 004ff720     Lib_Client:GLCharDefine.obj
 0002:00006730       ??_C@_08PECEPMGO@GLAT_DIE?$AA@ 004ff730     Lib_Client:GLCharDefine.obj
 0002:0000673c       ??_C@_0N@MEPJBOAC@GLAT_FALLING?$AA@ 004ff73c     Lib_Client:GLCharDefine.obj
 0002:0000674c       ??_C@_0P@KGFHJOMK@GLAT_CONFT_END?$AA@ 004ff74c     Lib_Client:GLCharDefine.obj
 0002:0000675c       ??_C@_09BDPGHKIP@GLAT_TALK?$AA@ 004ff75c     Lib_Client:GLCharDefine.obj
 0002:00006768       ??_C@_0P@ILNLEKGI@GLAT_GATHERING?$AA@ 004ff768     Lib_Client:GLCharDefine.obj
 0002:00006778       ??_C@_0P@ODJGHPIA@GLAT_SKILLMOVE?$AA@ 004ff778     Lib_Client:GLCharDefine.obj
 0002:00006788       ??_C@_0O@HJJHPIKM@GLAT_PUSHPULL?$AA@ 004ff788     Lib_Client:GLCharDefine.obj
 0002:00006798       ??_C@_0L@GCCKFCJK@GLAT_SHOCK?$AA@ 004ff798     Lib_Client:GLCharDefine.obj
 0002:000067a4       ??_C@_0L@EEPMKGGM@GLAT_SKILL?$AA@ 004ff7a4     Lib_Client:GLCharDefine.obj
 0002:000067b0       ??_C@_0M@DEEKLGGB@GLAT_ATTACK?$AA@ 004ff7b0     Lib_Client:GLCharDefine.obj
 0002:000067bc       ??_C@_09BBOLPDGH@GLAT_MOVE?$AA@ 004ff7bc     Lib_Client:GLCharDefine.obj
 0002:000067c8       ??_C@_09CCNLPEAA@GLAT_IDLE?$AA@ 004ff7c8     Lib_Client:GLCharDefine.obj
 0002:000067d4       ??_C@_06COGLIGFC@Dragon?$AA@ 004ff7d4     Lib_Client:GLCharDefine.obj
 0002:000067dc       ??_C@_05IJMHHDMI@Genie?$AA@ 004ff7dc     Lib_Client:GLCharDefine.obj
 0002:000067e4       ??_C@_05NMMICPNI@Fairy?$AA@ 004ff7e4     Lib_Client:GLCharDefine.obj
 0002:000067ec       ??_C@_05ELDMMFFP@Devil?$AA@ 004ff7ec     Lib_Client:GLCharDefine.obj
 0002:000067f4       ??_C@_05INJOKMGD@Angel?$AA@ 004ff7f4     Lib_Client:GLCharDefine.obj
 0002:000067fc       ??_C@_07GOHPBKOH@Monster?$AA@ 004ff7fc     Lib_Client:GLCharDefine.obj
 0002:00006804       ??_C@_05OHCDHBAC@Human?$AA@ 004ff804     Lib_Client:GLCharDefine.obj
 0002:0000680c       ??_C@_0P@JKBOFPCN@Water?5Movement?$AA@ 004ff80c     Lib_Client:GLCharDefine.obj
 0002:0000681c       ??_C@_0N@FJKPIMIC@Air?5Movement?$AA@ 004ff81c     Lib_Client:GLCharDefine.obj
 0002:0000682c       ??_C@_0BA@OIGPLPIG@Ground?5Movement?$AA@ 004ff82c     Lib_Client:GLCharDefine.obj
 0002:0000683c       ??_C@_0P@FNAEDKCB@Weapon?5Element?$AA@ 004ff83c     Lib_Client:GLCharDefine.obj
 0002:0000684c       ??_C@_0BD@OHJNAKPE@Malediction?$CICurse?$CJ?$AA@ 004ff84c     Lib_Client:GLCharDefine.obj
 0002:00006860       ??_C@_0P@JEIIMNPF@Fainting?$CIStun?$CJ?$AA@ 004ff860     Lib_Client:GLCharDefine.obj
 0002:00006870       ??_C@_0P@GJIOMMGN@Confusion?$CIMad?$CJ?$AA@ 004ff870     Lib_Client:GLCharDefine.obj
 0002:00006880       ??_C@_05PBPDPMJH@Stone?$AA@ 004ff880     Lib_Client:GLCharDefine.obj
 0002:00006888       ??_C@_06ONLJKEMD@Poison?$AA@ 004ff888     Lib_Client:GLCharDefine.obj
 0002:00006890       ??_C@_08JJOLOAII@Electric?$AA@ 004ff890     Lib_Client:GLCharDefine.obj
 0002:0000689c       ??_C@_03GKLMNNMP@Ice?$AA@  004ff89c     Lib_Client:GLCharDefine.obj
 0002:000068a0       ??_C@_04OHLPDOFO@Fire?$AA@ 004ff8a0     Lib_Client:GLCharDefine.obj
 0002:000068a8       ??_C@_0BF@KNDDKBPH@Vital?5Energy?$CISpirit?$CJ?$AA@ 004ff8a8     Lib_Client:GLCharDefine.obj
 0002:000068c0       ??_C@_0O@JDHKHMKK@Both?$CINeutral?$CJ?$AA@ 004ff8c0     Lib_Client:GLCharDefine.obj
 0002:000068d0       ??_C@_0L@JOIPAOD@Dark?$CIEvil?$CJ?$AA@ 004ff8d0     Lib_Client:GLCharDefine.obj
 0002:000068dc       ??_C@_0M@PLPAHOHC@Light?$CIGood?$CJ?$AA@ 004ff8dc     Lib_Client:GLCharDefine.obj
 0002:000068e8       ??_C@_0BA@EMPJHKKA@Magician?5Female?$AA@ 004ff8e8     Lib_Client:GLCharDefine.obj
 0002:000068f8       ??_C@_0O@MPLJEGM@Magician?5Male?$AA@ 004ff8f8     Lib_Client:GLCharDefine.obj
 0002:00006908       ??_C@_0BA@HBLENGOL@Assassin?5Female?$AA@ 004ff908     Lib_Client:GLCharDefine.obj
 0002:00006918       ??_C@_0O@IKCNHDKE@Assassin?5Male?$AA@ 004ff918     Lib_Client:GLCharDefine.obj
 0002:00006928       ??_C@_0O@LKFKAABB@Gunner?5Female?$AA@ 004ff928     Lib_Client:GLCharDefine.obj
 0002:00006938       ??_C@_0M@IKMFDMHI@Gunner?5Male?$AA@ 004ff938     Lib_Client:GLCharDefine.obj
 0002:00006944       ??_C@_0M@MALPMDP@Shaman?5Male?$AA@ 004ff944     Lib_Client:GLCharDefine.obj
 0002:00006950       ??_C@_0M@MKCHHOCB@Archer?5Male?$AA@ 004ff950     Lib_Client:GLCharDefine.obj
 0002:0000695c       ??_C@_0BB@IBAECMPO@Swordsman?5Female?$AA@ 004ff95c     Lib_Client:GLCharDefine.obj
 0002:00006970       ??_C@_0P@EMFJDIOE@Brawler?5Female?$AA@ 004ff970     Lib_Client:GLCharDefine.obj
 0002:00006980       ??_C@_0P@JENPNOHF@Extreme?5Female?$AA@ 004ff980     Lib_Client:GLCharDefine.obj
 0002:00006990       ??_C@_0N@DHKOKONG@Extreme?5Male?$AA@ 004ff990     Lib_Client:GLCharDefine.obj
 0002:000069a0       ??_C@_0O@JOAGJNKN@Shaman?5Female?$AA@ 004ff9a0     Lib_Client:GLCharDefine.obj
 0002:000069b0       ??_C@_0O@EJPBIGFC@Archer?5Female?$AA@ 004ff9b0     Lib_Client:GLCharDefine.obj
 0002:000069c0       ??_C@_0P@DDBNPFJH@Swordsman?5Male?$AA@ 004ff9c0     Lib_Client:GLCharDefine.obj
 0002:000069d0       ??_C@_0N@EEFNOMIM@Brawler?5Male?$AA@ 004ff9d0     Lib_Client:GLCharDefine.obj
 0002:000069e0       ??_C@_09JLJCILBL@All?5Class?$AA@ 004ff9e0     Lib_Client:GLCharDefine.obj
 0002:000069ec       ??_C@_08GBFHNBPH@Magician?$AA@ 004ff9ec     Lib_Client:GLCharDefine.obj
 0002:000069f8       ??_C@_08JHGIFPME@Assassin?$AA@ 004ff9f8     Lib_Client:GLCharDefine.obj
 0002:00006a04       ??_C@_06BGDOKMKH@Gunner?$AA@ 004ffa04     Lib_Client:GLCharDefine.obj
 0002:00006a0c       ??_C@_07GDPLEOIL@Extreme?$AA@ 004ffa0c     Lib_Client:GLCharDefine.obj
 0002:00006a14       ??_C@_06ELHMMIIB@Shaman?$AA@ 004ffa14     Lib_Client:GLCharDefine.obj
 0002:00006a1c       ??_C@_06LFBADCEI@Archer?$AA@ 004ffa1c     Lib_Client:GLCharDefine.obj
 0002:00006a24       ??_C@_09POJIGIHI@Swordsman?$AA@ 004ffa24     Lib_Client:GLCharDefine.obj
 0002:00006a30       ??_C@_07CACNJOCA@Brawler?$AA@ 004ffa30     Lib_Client:GLCharDefine.obj
 0002:00006a38       ??_C@_07KEMLBHAB@Phoenix?$AA@ 004ffa38     Lib_Client:GLCharDefine.obj
 0002:00006a40       ??_C@_0M@JGBJHMOF@Mystic?5Peak?$AA@ 004ffa40     Lib_Client:GLCharDefine.obj
 0002:00006a4c       ??_C@_0M@HIHFCEPK@Sacred?5Gate?$AA@ 004ffa4c     Lib_Client:GLCharDefine.obj
 0002:00006a58       ??_C@_04EDGDKJNK@Male?$AA@ 004ffa58     Lib_Client:GLCharDefine.obj
 0002:00006a60       ??_C@_06KGAOHABH@Female?$AA@ 004ffa60     Lib_Client:GLCharDefine.obj
 0002:00006a68       ??_C@_05HJMIGINN@Curse?$AA@ 004ffa68     Lib_Client:GLCharDefine.obj
 0002:00006a70       ??_C@_0L@EFCPOPON@Chaos?$CIMad?$CJ?$AA@ 004ffa70     Lib_Client:GLCharDefine.obj
 0002:00006a7c       ??_C@_06BPGEEBGA@Freeze?$AA@ 004ffa7c     Lib_Client:GLCharDefine.obj
 0002:00006a84       ??_C@_04OLAEKJHC@Burn?$AA@ 004ffa84     Lib_Client:GLCharDefine.obj
 0002:00006a8c       ??_C@_0BF@KLPBBBBG@Petrochemical?$CIStone?$CJ?$AA@ 004ffa8c     Lib_Client:GLCharDefine.obj
 0002:00006aa4       ??_C@_0M@HLJDOKFM@Faint?$CIStun?$CJ?$AA@ 004ffaa4     Lib_Client:GLCharDefine.obj
 0002:00006ab0       ??_C@_0BA@KBIBJIDN@Paralysis?$CINumb?$CJ?$AA@ 004ffab0     Lib_Client:GLCharDefine.obj
 0002:00006ac0       ??_C@_04OHJIHAFH@None?$AA@ 004ffac0     Lib_Client:GLCharDefine.obj
 0002:00006ac8       ??_C@_0P@IBEFKEPD@Movement?5Speed?$AA@ 004ffac8     Lib_Client:GLCharDefine.obj
 0002:00006ad8       ??_C@_0BA@BPAJAMIP@Damage?5Increase?$AA@ 004ffad8     Lib_Client:GLCharDefine.obj
 0002:00006ae8       ??_C@_0M@NBBHGGGN@HP?5Recovery?$AA@ 004ffae8     Lib_Client:GLCharDefine.obj
 0002:00006af4       ??_C@_09JBEDAJLH@DelayRate?$AA@ 004ffaf4     Lib_Client:GLCharDefine.obj
 0002:00006b00       ??_C@_0L@IEIBPLHC@CP?5Auto?5?$CL?9?$AA@ 004ffb00     Lib_Client:GLCharDefine.obj
 0002:00006b0c       ??_C@_0BG@POLHAFHN@CP?5recovery?5amount?5?$CL?9?$AA@ 004ffb0c     Lib_Client:GLCharDefine.obj
 0002:00006b24       ??_C@_0BG@FHEAEPDM@SP?5recovery?5amount?5?$CL?9?$AA@ 004ffb24     Lib_Client:GLCharDefine.obj
 0002:00006b3c       ??_C@_0BG@DFAFHJPN@MP?5recovery?5amount?5?$CL?9?$AA@ 004ffb3c     Lib_Client:GLCharDefine.obj
 0002:00006b54       ??_C@_0BG@HOIMIODN@HP?5recovery?5amount?5?$CL?9?$AA@ 004ffb54     Lib_Client:GLCharDefine.obj
 0002:00006b6c       ??_C@_0N@LNGKBOHC@Change?5Stats?$AA@ 004ffb6c     Lib_Client:GLCharDefine.obj
 0002:00006b7c       ??_C@_0L@OFGNBAHF@Resistance?$AA@ 004ffb7c     Lib_Client:GLCharDefine.obj
 0002:00006b88       ??_C@_0L@JHABMPMA@Maximum?5SP?$AA@ 004ffb88     Lib_Client:GLCharDefine.obj
 0002:00006b94       ??_C@_0L@IBLJEBLK@Maximum?5MP?$AA@ 004ffb94     Lib_Client:GLCharDefine.obj
 0002:00006ba0       ??_C@_0L@IHHCIDFB@Maximum?5HP?$AA@ 004ffba0     Lib_Client:GLCharDefine.obj
 0002:00006bac       ??_C@_06GFNPJLEF@Energy?$AA@ 004ffbac     Lib_Client:GLCharDefine.obj
 0002:00006bb4       ??_C@_07BKMGAOMD@Missile?$AA@ 004ffbb4     Lib_Client:GLCharDefine.obj
 0002:00006bbc       ??_C@_05ILEPGBEB@Melee?$AA@ 004ffbbc     Lib_Client:GLCharDefine.obj
 0002:00006bc4       ??_C@_0BD@NJCKHAJK@Defense?5Percentage?$AA@ 004ffbc4     Lib_Client:GLCharDefine.obj
 0002:00006bd8       ??_C@_0BC@NFEJKNLA@Attack?5Percentage?$AA@ 004ffbd8     Lib_Client:GLCharDefine.obj
 0002:00006bec       ??_C@_0BB@BJDDODKB@HP?$CLMP?$CLSP?5Recover?$AA@ 004ffbec     Lib_Client:GLCharDefine.obj
 0002:00006c00       ??_C@_0L@IAPBGLD@SP?5Recover?$AA@ 004ffc00     Lib_Client:GLCharDefine.obj
 0002:00006c0c       ??_C@_0L@PEIPPJHO@MP?5Recover?$AA@ 004ffc0c     Lib_Client:GLCharDefine.obj
 0002:00006c18       ??_C@_0L@IFNIFFDM@HP?5Recover?$AA@ 004ffc18     Lib_Client:GLCharDefine.obj
 0002:00006c24       ??_C@_07PEDPFCGC@Defense?$AA@ 004ffc24     Lib_Client:GLCharDefine.obj
 0002:00006c2c       ??_C@_06FDAMAAOH@Attack?$AA@ 004ffc2c     Lib_Client:GLCharDefine.obj
 0002:00006c34       ??_C@_0L@MGPJLGGF@Avoid?5Rate?$AA@ 004ffc34     Lib_Client:GLCharDefine.obj
 0002:00006c40       ??_C@_08CGKIFDHD@Hit?5Rate?$AA@ 004ffc40     Lib_Client:GLCharDefine.obj
 0002:00006c4c       ??_C@_09KMIKFCCO@Specified?$AA@ 004ffc4c     Lib_Client:GLCharDefine.obj
 0002:00006c58       ??_C@_0BC@JHLMFMHL@Specific?5Location?$AA@ 004ffc58     Lib_Client:GLCharDefine.obj
 0002:00006c6c       ??_C@_0BE@JGLGIFNM@From?5Self?5To?5Target?$AA@ 004ffc6c     Lib_Client:GLCharDefine.obj
 0002:00006c80       ??_C@_06FGANPIPG@Target?$AA@ 004ffc80     Lib_Client:GLCharDefine.obj
 0002:00006c88       ??_C@_04DIPMEEKN@Self?$AA@ 004ffc88     Lib_Client:GLCharDefine.obj
 0002:00006c90       ??_C@_0M@BEMJHEGH@Cone?5Target?$AA@ 004ffc90     Lib_Client:GLCharDefine.obj
 0002:00006c9c       ??_C@_0BB@MACKKILE@Keep?5Target?5Area?$AA@ 004ffc9c     Lib_Client:GLCharDefine.obj
 0002:00006cb0       ??_C@_0M@PBGMLNMB@Target?5Area?$AA@ 004ffcb0     Lib_Client:GLCharDefine.obj
 0002:00006cbc       ??_C@_0M@GGBCLLEN@Target?5Self?$AA@ 004ffcbc     Lib_Client:GLCharDefine.obj
 0002:00006cc8       ??_C@_0BA@JBCFDBOB@Target?5Everyone?$AA@ 004ffcc8     Lib_Client:GLCharDefine.obj
 0002:00006cd8       ??_C@_0N@CFPEJNNF@Target?5Enemy?$AA@ 004ffcd8     Lib_Client:GLCharDefine.obj
 0002:00006ce8       ??_C@_0O@HGNHNLDC@Target?5MySide?$AA@ 004ffce8     Lib_Client:GLCharDefine.obj
 0002:00006cf8       ??_C@_0L@HPHAPCJK@Skill?5Link?$AA@ 004ffcf8     Lib_Client:GLCharDefine.obj
 0002:00006d04       ??_C@_0BA@BMCLJHEI@Random?5EXP?5Rate?$AA@ 004ffd04     Lib_Client:GLCharDefine.obj
 0002:00006d14       ??_C@_08LIDDHONO@Dominate?$AA@ 004ffd14     Lib_Client:GLCharDefine.obj
 0002:00006d20       ??_C@_0L@PACCMKCL@Target?5Fix?$AA@ 004ffd20     Lib_Client:GLCharDefine.obj
 0002:00006d2c       ??_C@_0M@GHJICJBG@Hostile?5Off?$AA@ 004ffd2c     Lib_Client:GLCharDefine.obj
 0002:00006d38       ??_C@_07IDNGOJIN@Hostile?$AA@ 004ffd38     Lib_Client:GLCharDefine.obj
 0002:00006d40       ??_C@_08FMIOCJKG@Immunity?$AA@ 004ffd40     Lib_Client:GLCharDefine.obj
 0002:00006d4c       ??_C@_07PLINODBJ@Pet?5Off?$AA@ 004ffd4c     Lib_Client:GLCharDefine.obj
 0002:00006d54       ??_C@_0M@NPOKIOOA@Damage?5Loop?$AA@ 004ffd54     Lib_Client:GLCharDefine.obj
 0002:00006d60       ??_C@_0BA@DDBGNLGM@Effect?5Duration?$AA@ 004ffd60     Lib_Client:GLCharDefine.obj
 0002:00006d70       ??_C@_09MKLAHOHG@Transform?$AA@ 004ffd70     Lib_Client:GLCharDefine.obj
 0002:00006d7c       ??_C@_06OOCHEEGP@Stigma?$AA@ 004ffd7c     Lib_Client:GLCharDefine.obj
 0002:00006d84       ??_C@_0BA@POKHBFDB@Duration?5Change?$AA@ 004ffd84     Lib_Client:GLCharDefine.obj
 0002:00006d94       ??_C@_0M@HDBPIMIB@Vehicle?5Off?$AA@ 004ffd94     Lib_Client:GLCharDefine.obj
 0002:00006da0       ??_C@_08LLNDLJLI@Illusion?$AA@ 004ffda0     Lib_Client:GLCharDefine.obj
 0002:00006dac       ??_C@_0M@OECGABCA@Enhancement?$AA@ 004ffdac     Lib_Client:GLCharDefine.obj
 0002:00006db8       ??_C@_0P@DMIIILEE@Shift?5Position?$AA@ 004ffdb8     Lib_Client:GLCharDefine.obj
 0002:00006dc8       ??_C@_08DMNNOKNK@Teleport?$AA@ 004ffdc8     Lib_Client:GLCharDefine.obj
 0002:00006dd4       ??_C@_0BC@HCFOPGDG@Special?5Item?5Drop?$AA@ 004ffdd4     Lib_Client:GLCharDefine.obj
 0002:00006de8       ??_C@_0BF@DAFFCFKB@Special?5NPC?5Dialogue?$AA@ 004ffde8     Lib_Client:GLCharDefine.obj
 0002:00006e00       ??_C@_08KFHCPKEI@EXP?5Rate?$AA@ 004ffe00     Lib_Client:GLCharDefine.obj
 0002:00006e0c       ??_C@_0P@LLCOHAIF@Gold?5Drop?5Rate?$AA@ 004ffe0c     Lib_Client:GLCharDefine.obj
 0002:00006e1c       ??_C@_0P@GFOLFPAI@Item?5Drop?5Rate?$AA@ 004ffe1c     Lib_Client:GLCharDefine.obj
 0002:00006e2c       ??_C@_0BC@HENMGKAE@Damage?5Absorption?$AA@ 004ffe2c     Lib_Client:GLCharDefine.obj
 0002:00006e40       ??_C@_0BF@MBLDBCFM@Prohibit?5Using?5Skill?$AA@ 004ffe40     Lib_Client:GLCharDefine.obj
 0002:00006e58       ??_C@_0BG@JOPDKNDH@Prohibit?5Using?5Potion?$AA@ 004ffe58     Lib_Client:GLCharDefine.obj
 0002:00006e70       ??_C@_0BF@IMKBNAEG@Change?5Coverage?5Area?$AA@ 004ffe70     Lib_Client:GLCharDefine.obj
 0002:00006e88       ??_C@_0BE@DBMPJIIA@Change?5Attack?5Range?$AA@ 004ffe88     Lib_Client:GLCharDefine.obj
 0002:00006e9c       ??_C@_0BC@KFMODAMH@Continuous?5Damage?$AA@ 004ffe9c     Lib_Client:GLCharDefine.obj
 0002:00006eb0       ??_C@_04KGLMKACB@Push?$AA@ 004ffeb0     Lib_Client:GLCharDefine.obj
 0002:00006eb8       ??_C@_04NFKKIBGI@Pull?$AA@ 004ffeb8     Lib_Client:GLCharDefine.obj
 0002:00006ec0       ??_C@_0BC@EGCNLOM@Active?5Type?5Skill?$AA@ 004ffec0     Lib_Client:GLCharDefine.obj
 0002:00006ed4       ??_C@_04LHHGGKA@Stun?$AA@  004ffed4     Lib_Client:GLCharDefine.obj
 0002:00006edc       ??_C@_0M@GHBINIJL@Remove?5Buff?$AA@ 004ffedc     Lib_Client:GLCharDefine.obj
 0002:00006ee8       ??_C@_0BE@JHPMJCAC@Return?5Magic?5Damage?$AA@ 004ffee8     Lib_Client:GLCharDefine.obj
 0002:00006efc       ??_C@_0BH@KMIMEDFI@Return?5Physical?5Damage?$AA@ 004ffefc     Lib_Client:GLCharDefine.obj
 0002:00006f14       ??_C@_0BE@EJLADAPH@Magic?5Damage?5Absorb?$AA@ 004fff14     Lib_Client:GLCharDefine.obj
 0002:00006f28       ??_C@_0BH@NADLCFAF@Physical?5Damage?5Absorb?$AA@ 004fff28     Lib_Client:GLCharDefine.obj
 0002:00006f40       ??_C@_0BJ@LDBOAOEJ@Skill?5DelayCrushing?5Blow?$AA@ 004fff40     Lib_Client:GLCharDefine.obj
 0002:00006f5c       ??_C@_0N@NAGNAHDI@Attack?5Speed?$AA@ 004fff5c     Lib_Client:GLCharDefine.obj
 0002:00006f6c       ??_C@_0P@OIJIDCLA@Find?5Invisible?$AA@ 004fff6c     Lib_Client:GLCharDefine.obj
 0002:00006f7c       ??_C@_09EPJGIIIJ@Invisible?$AA@ 004fff7c     Lib_Client:GLCharDefine.obj
 0002:00006f88       ??_C@_04OMKHFBKL@Dash?$AA@ 004fff88     Lib_Client:GLCharDefine.obj
 0002:00006f90       ??_C@_0N@IFJGGHKN@Target?5Range?$AA@ 004fff90     Lib_Client:GLCharDefine.obj
 0002:00006fa0       ??_C@_06KMECONBF@Pierce?$AA@ 004fffa0     Lib_Client:GLCharDefine.obj
 0002:00006fa8       ??_C@_0BJ@GIANCDJN@Avoid?5Abnormal?5Condition?$AA@ 004fffa8     Lib_Client:GLCharDefine.obj
 0002:00006fc4       ??_C@_0BL@BLPJAACA@Prevent?5Abnormal?5Condition?$AA@ 004fffc4     Lib_Client:GLCharDefine.obj
 0002:00006fe0       ??_C@_08BPKNFMMJ@Share?5SP?$AA@ 004fffe0     Lib_Client:GLCharDefine.obj
 0002:00006fec       ??_C@_08JBFNCLD@Share?5MP?$AA@ 004fffec     Lib_Client:GLCharDefine.obj
 0002:00006ff8       ??_C@_08PNOBAFI@Share?5HP?$AA@ 004ffff8     Lib_Client:GLCharDefine.obj
 0002:00007004       ??_C@_08EIKEEOPK@Steal?5SP?$AA@ 00500004     Lib_Client:GLCharDefine.obj
 0002:00007010       ??_C@_08FOBMMAIA@Steal?5MP?$AA@ 00500010     Lib_Client:GLCharDefine.obj
 0002:0000701c       ??_C@_08FINHACGL@Steal?5HP?$AA@ 0050001c     Lib_Client:GLCharDefine.obj
 0002:00007028       ??_C@_06PGKKGABA@Revive?$AA@ 00500028     Lib_Client:GLCharDefine.obj
 0002:00007030       ??_C@_0O@IGJCFPC@Return?5Damage?$AA@ 00500030     Lib_Client:GLCharDefine.obj
 0002:00007040       ??_C@_0BC@FCMFNHOD@Distract?5Movement?$AA@ 00500040     Lib_Client:GLCharDefine.obj
 0002:00007054       ??_C@_04KOACHJEN@Type?$AA@ 00500054     Lib_Client:GLCharDefine.obj
 0002:0000705c       ??_C@_0N@GBMNGAKM@Transform?5ID?$AA@ 0050005c     Lib_Client:GLCharDefine.obj
 0002:0000706c       ??_C@_0BA@DCFHGHHA@Effect?5Distance?$AA@ 0050006c     Lib_Client:GLCharDefine.obj
 0002:0000707c       ??_C@_07EOIMDDAK@Change1?$AA@ 0050007c     Lib_Client:GLCharDefine.obj
 0002:00007084       ??_C@_0O@MGCMPENK@Increase?5Rate?$AA@ 00500084     Lib_Client:GLCharDefine.obj
 0002:00007094       ??_C@_09HKMAAMOC@Number?5of?$AA@ 00500094     Lib_Client:GLCharDefine.obj
 0002:000070a0       ??_C@_05CFMCGLCK@Range?$AA@ 005000a0     Lib_Client:GLCharDefine.obj
 0002:000070a8       ??_C@_0N@IHDGFJME@Reflect?5Rate?$AA@ 005000a8     Lib_Client:GLCharDefine.obj
 0002:000070b8       ??_C@_08DEOOAPOB@Duration?$AA@ 005000b8     Lib_Client:GLCharDefine.obj
 0002:000070c4       ??_C@_04LDOGFLEB@Rate?$AA@ 005000c4     Lib_Client:GLCharDefine.obj
 0002:000070cc       ??_C@_0M@IIBEJDMB@Return?5Rate?$AA@ 005000cc     Lib_Client:GLCharDefine.obj
 0002:000070d8       ??_C@_0M@GAGFOKCG@Skill?5Delay?$AA@ 005000d8     Lib_Client:GLCharDefine.obj
 0002:000070e4       ??_C@_06NOGHPGAE@Chance?$AA@ 005000e4     Lib_Client:GLCharDefine.obj
 0002:000070ec       ??_C@_0N@KOCNMPDN@Weapon?5Reach?$AA@ 005000ec     Lib_Client:GLCharDefine.obj
 0002:000070fc       ??_C@_0M@MGDLAAKM@Absorb?5Rate?$AA@ 005000fc     Lib_Client:GLCharDefine.obj
 0002:00007108       ??_C@_0N@LIGPCMHH@Evasion?5Rate?$AA@ 00500108     Lib_Client:GLCharDefine.obj
 0002:00007118       ??_C@_08DFKPLDPN@Distance?$AA@ 00500118     Lib_Client:GLCharDefine.obj
 0002:00007124       ??_C@_0O@OFNHBOPK@Damage?5Change?$AA@ 00500124     Lib_Client:GLCharDefine.obj
 0002:00007134       ??_C@_05OFLDGLCF@Type2?$AA@ 00500134     Lib_Client:GLCharDefine.obj
 0002:0000713c       ??_C@_0BC@NALDMBLP@Release?5Condition?$AA@ 0050013c     Lib_Client:GLCharDefine.obj
 0002:00007150       ??_C@_0M@NLDPOFFA@Emoticon?5ID?$AA@ 00500150     Lib_Client:GLCharDefine.obj
 0002:0000715c       ??_C@_05LPIJGKJ@Value?$AA@ 0050015c     Lib_Client:GLCharDefine.obj
 0002:00007164       ??_C@_07GFKBGAMJ@Change2?$AA@ 00500164     Lib_Client:GLCharDefine.obj
 0002:0000716c       ??_C@_08MOGHDHIG@Increase?$AA@ 0050016c     Lib_Client:GLCharDefine.obj
 0002:00007178       ??_C@_0L@BEBFOJAH@Absorption?$AA@ 00500178     Lib_Client:GLCharDefine.obj
 0002:00007184       ??_C@_06KGFFMMMJ@Damage?$AA@ 00500184     Lib_Client:GLCharDefine.obj
 0002:0000718c       ??_C@_0N@NKAGPMBM@Moving?5Speed?$AA@ 0050018c     Lib_Client:GLCharDefine.obj
 0002:0000719c       ??_C@_05HOIAGEJD@Speed?$AA@ 0050019c     Lib_Client:GLCharDefine.obj
 0002:000071a4       ??_C@_0BA@OGEMNCMP@Magician?9class4?$AA@ 005001a4     Lib_Client:GLCharDefine.obj
 0002:000071b4       ??_C@_0BA@KJANEEAI@Magician?9class3?$AA@ 005001b4     Lib_Client:GLCharDefine.obj
 0002:000071c4       ??_C@_0BA@LABGHFEJ@Magician?9class2?$AA@ 005001c4     Lib_Client:GLCharDefine.obj
 0002:000071d4       ??_C@_0BA@JLDLCGIK@Magician?9class1?$AA@ 005001d4     Lib_Client:GLCharDefine.obj
 0002:000071e4       ??_C@_0P@BOMIJKPK@Magician?9multi?$AA@ 005001e4     Lib_Client:GLCharDefine.obj
 0002:000071f4       ??_C@_04OFFCAMCD@Test?$AA@ 005001f4     Lib_Client:GLCharDefine.obj
 0002:000071fc       ??_C@_03MCJABCEG@ETC?$AA@  005001fc     Lib_Client:GLCharDefine.obj
 0002:00007200       ??_C@_05GCNIINAF@Event?$AA@ 00500200     Lib_Client:GLCharDefine.obj
 0002:00007208       ??_C@_0BA@KGMFLALB@CaptureTheField?$AA@ 00500208     Lib_Client:GLCharDefine.obj
 0002:00007218       ??_C@_0L@PDNJHIOB@ETC?9class4?$AA@ 00500218     Lib_Client:GLCharDefine.obj
 0002:00007224       ??_C@_0L@LMJIOOCG@ETC?9class3?$AA@ 00500224     Lib_Client:GLCharDefine.obj
 0002:00007230       ??_C@_0L@KFIDNPGH@ETC?9class2?$AA@ 00500230     Lib_Client:GLCharDefine.obj
 0002:0000723c       ??_C@_0L@IOKOIMKE@ETC?9class1?$AA@ 0050023c     Lib_Client:GLCharDefine.obj
 0002:00007248       ??_C@_0BA@NLABHOIE@Assassin?9class4?$AA@ 00500248     Lib_Client:GLCharDefine.obj
 0002:00007258       ??_C@_0BA@JEEAOIED@Assassin?9class3?$AA@ 00500258     Lib_Client:GLCharDefine.obj
 0002:00007268       ??_C@_0BA@INFLNJAC@Assassin?9class2?$AA@ 00500268     Lib_Client:GLCharDefine.obj
 0002:00007278       ??_C@_0BA@KGHGIKMB@Assassin?9class1?$AA@ 00500278     Lib_Client:GLCharDefine.obj
 0002:00007288       ??_C@_0BA@BONAJAFO@Magician?9Animal?$AA@ 00500288     Lib_Client:GLCharDefine.obj
 0002:00007298       ??_C@_06DLFKBJMP@Summon?$AA@ 00500298     Lib_Client:GLCharDefine.obj
 0002:000072a0       ??_C@_04MPDBGAOA@Food?$AA@ 005002a0     Lib_Client:GLCharDefine.obj
 0002:000072a8       ??_C@_0O@BAOPKIHO@Gunner?9class4?$AA@ 005002a8     Lib_Client:GLCharDefine.obj
 0002:000072b8       ??_C@_0O@FPKODOLJ@Gunner?9class3?$AA@ 005002b8     Lib_Client:GLCharDefine.obj
 0002:000072c8       ??_C@_0O@EGLFAPPI@Gunner?9class2?$AA@ 005002c8     Lib_Client:GLCharDefine.obj
 0002:000072d8       ??_C@_0O@GNJIFMDL@Gunner?9class1?$AA@ 005002d8     Lib_Client:GLCharDefine.obj
 0002:000072e8       ??_C@_06OLNBMDC@NPC_20?$AA@ 005002e8     Lib_Client:GLCharDefine.obj
 0002:000072f0       ??_C@_06NNDJBJCC@NPC_19?$AA@ 005002f0     Lib_Client:GLCharDefine.obj
 0002:000072f8       ??_C@_0P@DOGKHGBK@Extreme?9class4?$AA@ 005002f8     Lib_Client:GLCharDefine.obj
 0002:00007308       ??_C@_0P@HBCLOANN@Extreme?9class3?$AA@ 00500308     Lib_Client:GLCharDefine.obj
 0002:00007318       ??_C@_0P@GIDANBJM@Extreme?9class2?$AA@ 00500318     Lib_Client:GLCharDefine.obj
 0002:00007328       ??_C@_0P@EDBNICFP@Extreme?9class1?$AA@ 00500328     Lib_Client:GLCharDefine.obj
 0002:00007338       ??_C@_06GIJHGHGP@NPC_14?$AA@ 00500338     Lib_Client:GLCharDefine.obj
 0002:00007340       ??_C@_06CHNGPBKI@NPC_13?$AA@ 00500340     Lib_Client:GLCharDefine.obj
 0002:00007348       ??_C@_06DOMNMAOJ@NPC_12?$AA@ 00500348     Lib_Client:GLCharDefine.obj
 0002:00007350       ??_C@_0BC@NCENOMCJ@NPC_11?$CIPet?5SKill?$CJ?$AA@ 00500350     Lib_Client:GLCharDefine.obj
 0002:00007364       ??_C@_06MPLKCGL@NPC_10?$AA@ 00500364     Lib_Client:GLCharDefine.obj
 0002:0000736c       ??_C@_06NMPLHDBF@NPC_09?$AA@ 0050036c     Lib_Client:GLCharDefine.obj
 0002:00007374       ??_C@_06MFOAECFE@NPC_08?$AA@ 00500374     Lib_Client:GLCharDefine.obj
 0002:0000737c       ??_C@_06ECHIFOJL@NPC_07?$AA@ 0050037c     Lib_Client:GLCharDefine.obj
 0002:00007384       ??_C@_06FLGDGPNK@NPC_06?$AA@ 00500384     Lib_Client:GLCharDefine.obj
 0002:0000738c       ??_C@_06HAEODMBJ@NPC_05?$AA@ 0050038c     Lib_Client:GLCharDefine.obj
 0002:00007394       ??_C@_06GJFFANFI@NPC_04?$AA@ 00500394     Lib_Client:GLCharDefine.obj
 0002:0000739c       ??_C@_06CGBEJLJP@NPC_03?$AA@ 0050039c     Lib_Client:GLCharDefine.obj
 0002:000073a4       ??_C@_06DPAPKKNO@NPC_02?$AA@ 005003a4     Lib_Client:GLCharDefine.obj
 0002:000073ac       ??_C@_06BECCPJBN@NPC_01?$AA@ 005003ac     Lib_Client:GLCharDefine.obj
 0002:000073b4       ??_C@_0O@DELDDFMC@Shaman?9class4?$AA@ 005003b4     Lib_Client:GLCharDefine.obj
 0002:000073c4       ??_C@_0O@HLPCKDAF@Shaman?9class3?$AA@ 005003c4     Lib_Client:GLCharDefine.obj
 0002:000073d4       ??_C@_0O@GCOJJCEE@Shaman?9class2?$AA@ 005003d4     Lib_Client:GLCharDefine.obj
 0002:000073e4       ??_C@_0O@EJMEMBIH@Shaman?9class1?$AA@ 005003e4     Lib_Client:GLCharDefine.obj
 0002:000073f4       ??_C@_0O@ODEECODN@Archer?9class4?$AA@ 005003f4     Lib_Client:GLCharDefine.obj
 0002:00007404       ??_C@_0O@KMAFLIPK@Archer?9class3?$AA@ 00500404     Lib_Client:GLCharDefine.obj
 0002:00007414       ??_C@_0O@LFBOIJLL@Archer?9class2?$AA@ 00500414     Lib_Client:GLCharDefine.obj
 0002:00007424       ??_C@_0O@JODDNKHI@Archer?9class1?$AA@ 00500424     Lib_Client:GLCharDefine.obj
 0002:00007434       ??_C@_0BB@CLLBIEJB@Swordsman?9class4?$AA@ 00500434     Lib_Client:GLCharDefine.obj
 0002:00007448       ??_C@_0BB@GEPABCFG@Swordsman?9class3?$AA@ 00500448     Lib_Client:GLCharDefine.obj
 0002:0000745c       ??_C@_0BB@HNOLCDBH@Swordsman?9class2?$AA@ 0050045c     Lib_Client:GLCharDefine.obj
 0002:00007470       ??_C@_0BB@FGMGHANE@Swordsman?9class1?$AA@ 00500470     Lib_Client:GLCharDefine.obj
 0002:00007484       ??_C@_0P@OGOMJAIL@Brawler?9class4?$AA@ 00500484     Lib_Client:GLCharDefine.obj
 0002:00007494       ??_C@_0P@KJKNAGEM@Brawler?9class3?$AA@ 00500494     Lib_Client:GLCharDefine.obj
 0002:000074a4       ??_C@_0P@LALGDHAN@Brawler?9class2?$AA@ 005004a4     Lib_Client:GLCharDefine.obj
 0002:000074b4       ??_C@_0P@JLJLGEMO@Brawler?9class1?$AA@ 005004b4     Lib_Client:GLCharDefine.obj
 0002:000074c4       ??_C@_08LFBCJIAG@SafeZone?$AA@ 005004c4     Lib_Client:GLCharDefine.obj
 0002:000074d0       ??_C@_0BB@FFHGKNN@Remove?5All?5Buffs?$AA@ 005004d0     Lib_Client:GLCharDefine.obj
 0002:000074e4       ??_C@_0N@FAIGDDIF@Defense?5Rate?$AA@ 005004e4     Lib_Client:GLCharDefine.obj
 0002:000074f4       ??_C@_0M@IPOPLKKJ@Attack?5Rate?$AA@ 005004f4     Lib_Client:GLCharDefine.obj
 0002:00007500       __real@bc23d70a            00500500     Lib_Client:GLItem.obj
 0002:00007504       ??_C@_0BL@HGICHJEI@GLVEHICLE?3?3SETCOLORS_BYBUF?$AA@ 00500504     Lib_Client:GLVEHICLE.obj
 0002:00007520       ??_C@_0BI@BDIFJGHK@Type_C?$CICar?$CJType_D?$CICart?$CJ?$AA@ 00500520     Lib_Client:GLVEHICLE.obj
 0002:00007538       ??_C@_0N@EDHJKGIN@Type_B?$CIBike?$CJ?$AA@ 00500538     Lib_Client:GLVEHICLE.obj
 0002:00007548       ??_C@_0BE@LHCBICAA@Type_A?$CIHover?5Board?$CJ?$AA@ 00500548     Lib_Client:GLVEHICLE.obj
 0002:0000755c       ??_C@_0L@DENGPFMG@HoverBoard?$AA@ 0050055c     Lib_Client:GLVEHICLE.obj
 0002:00007568       ??_C@_0P@KBLNEGLB@Bike?5Type?5EV?91?$AA@ 00500568     Lib_Client:GLVEHICLE.obj
 0002:00007578       ??_C@_0P@HBENNICC@Bike?5Type?5BT?99?$AA@ 00500578     Lib_Client:GLVEHICLE.obj
 0002:00007588       ??_C@_0P@OPMOPFKM@Bike?5Type?5BT?97?$AA@ 00500588     Lib_Client:GLVEHICLE.obj
 0002:00007598       ??_C@_0P@NNPIJHCO@Bike?5Type?5BT?95?$AA@ 00500598     Lib_Client:GLVEHICLE.obj
 0002:000075a8       ??_C@_05HLGCLLID@Car?9A?$AA@ 005005a8     Lib_Client:GLVEHICLE.obj
 0002:000075b0       ??_C@_06GKGALMAJ@Cart?9A?$AA@ 005005b0     Lib_Client:GLVEHICLE.obj
 0002:000075b8       __real@41200000            005005b8     Lib_Client:GLClubMan.obj
 0002:000075bc       __real@44e10000            005005bc     Lib_Client:GLClubMan.obj
 0002:000075c0       __real@3dcccccd            005005c0     Lib_Client:GLClubMan.obj
 0002:000075c8       ??_7GLEmulatorDBMan@@6B@   005005c8     Lib_Client:GLAgentServer.obj
 0002:000077a8       __real@3f000000            005007a8     Lib_Client:GLGaeaServerMsg.obj
 0002:000077a8       __real@4@3ffe8000000000000000 005007a8     vorbisfile_static:vorbisfile.obj
 0002:000077ac       __real@38000100            005007ac     Lib_Client:GLogicEx.obj
 0002:000077b0       __real@41f0000000000000    005007b0     Lib_Client:GLogicEx.obj
 0002:000077b8       __real@4046800000000000    005007b8     Lib_Client:GLogicData.obj
 0002:000077c0       ??_C@_06OECIKMOI@?$LL?l?$MA?N?$LB?M?$AA@ 005007c0     Lib_Client:GLogicData.obj
 0002:000077c8       ??_C@_06CHDCDHFK@?$LL?l?$MA?N?$LI?$LG?$AA@ 005007c8     Lib_Client:GLogicData.obj
 0002:000077d0       ??_C@_06LEJICKBJ@?$LL?l?$MA?N?$MA?Z?$AA@ 005007d0     Lib_Client:GLogicData.obj
 0002:000077d8       ??_C@_08FDDINCNA@?$LK?R?$LH?$KO?G?P?$LL?$PN?$AA@ 005007d8     Lib_Client:GLogicData.obj
 0002:000077e4       ??_C@_08MICLLFD@?$MA?O?$LJ?$NN?G?P?$LL?$PN?$AA@ 005007e4     Lib_Client:GLogicData.obj
 0002:000077f0       ??_C@_04HIBGFPH@NULL?$AA@  005007f0     Lib_Client:GLogicData.obj
 0002:000077f8       ??_C@_0BA@DCONOAAD@class2F?4charset?$AA@ 005007f8     Lib_Client:GLogicData.obj
 0002:00007808       ??_C@_0BA@NJNKFLAA@class2E?4charset?$AA@ 00500808     Lib_Client:GLogicData.obj
 0002:00007818       ??_C@_0BA@DGBIDADO@class2D?4charset?$AA@ 00500818     Lib_Client:GLogicData.obj
 0002:00007828       ??_C@_0BA@NEMECLEH@class2C?4charset?$AA@ 00500828     Lib_Client:GLogicData.obj
 0002:00007838       ??_C@_0BA@DLAGEAHJ@class2B?4charset?$AA@ 00500838     Lib_Client:GLogicData.obj
 0002:00007848       ??_C@_0BA@NADBPLHK@class2A?4charset?$AA@ 00500848     Lib_Client:GLogicData.obj
 0002:00007858       ??_C@_0BA@DFKPDOBG@class29?4charset?$AA@ 00500858     Lib_Client:GLogicData.obj
 0002:00007868       ??_C@_0BA@NKGNFFCI@class28?4charset?$AA@ 00500868     Lib_Client:GLogicData.obj
 0002:00007878       ??_C@_0BA@CLGGAOKF@class27?4charset?$AA@ 00500878     Lib_Client:GLogicData.obj
 0002:00007888       ??_C@_0BA@MEKEGFJL@class26?4charset?$AA@ 00500888     Lib_Client:GLogicData.obj
 0002:00007898       ??_C@_0BA@CPJDNOJI@class25?4charset?$AA@ 00500898     Lib_Client:GLogicData.obj
 0002:000078a8       ??_C@_0BA@MAFBLFKG@class24?4charset?$AA@ 005008a8     Lib_Client:GLogicData.obj
 0002:000078b8       ??_C@_0BA@CCINKONP@class23?4charset?$AA@ 005008b8     Lib_Client:GLogicData.obj
 0002:000078c8       ??_C@_0BA@MNEPMFOB@class22?4charset?$AA@ 005008c8     Lib_Client:GLogicData.obj
 0002:000078d8       ??_C@_0BA@CGHIHOOC@class21?4charset?$AA@ 005008d8     Lib_Client:GLogicData.obj
 0002:000078e8       ??_C@_0BA@MJLKBFNM@class20?4charset?$AA@ 005008e8     Lib_Client:GLogicData.obj
 0002:000078f8       ??_C@_0BA@KLAPIGAC@class1F?4charset?$AA@ 005008f8     Lib_Client:GLogicData.obj
 0002:00007908       ??_C@_0BA@EADIDNAB@class1E?4charset?$AA@ 00500908     Lib_Client:GLogicData.obj
 0002:00007918       ??_C@_0BA@KPPKFGDP@class1D?4charset?$AA@ 00500918     Lib_Client:GLogicData.obj
 0002:00007928       ??_C@_0BA@ENCGENEG@class1C?4charset?$AA@ 00500928     Lib_Client:GLogicData.obj
 0002:00007938       ??_C@_0BA@KCOECGHI@class1B?4charset?$AA@ 00500938     Lib_Client:GLogicData.obj
 0002:00007948       ??_C@_0BA@EJNDJNHL@class1A?4charset?$AA@ 00500948     Lib_Client:GLogicData.obj
 0002:00007958       ??_C@_0BA@KMENFIBH@class19?4charset?$AA@ 00500958     Lib_Client:GLogicData.obj
 0002:00007968       ??_C@_0BA@EDIPDDCJ@class18?4charset?$AA@ 00500968     Lib_Client:GLogicData.obj
 0002:00007978       ??_C@_0BA@LCIEGIKE@class17?4charset?$AA@ 00500978     Lib_Client:GLogicData.obj
 0002:00007988       ??_C@_0BA@FNEGADJK@class16?4charset?$AA@ 00500988     Lib_Client:GLogicData.obj
 0002:00007998       ??_C@_0BA@LGHBLIJJ@class15?4charset?$AA@ 00500998     Lib_Client:GLogicData.obj
 0002:000079a8       ??_C@_0BA@FJLDNDKH@class14?4charset?$AA@ 005009a8     Lib_Client:GLogicData.obj
 0002:000079b8       ??_C@_0BA@LLGPMINO@class13?4charset?$AA@ 005009b8     Lib_Client:GLogicData.obj
 0002:000079c8       ??_C@_0BA@FEKNKDOA@class12?4charset?$AA@ 005009c8     Lib_Client:GLogicData.obj
 0002:000079d8       ??_C@_0BA@LPJKBIOD@class11?4charset?$AA@ 005009d8     Lib_Client:GLogicData.obj
 0002:000079e8       ??_C@_0BA@FAFIHDNN@class10?4charset?$AA@ 005009e8     Lib_Client:GLogicData.obj
 0002:000079f8       ??_C@_0BA@GKIBFJMC@class0F?4charset?$AA@ 005009f8     Lib_Client:GLogicData.obj
 0002:00007a08       ??_C@_0BA@IBLGOCMB@class0E?4charset?$AA@ 00500a08     Lib_Client:GLogicData.obj
 0002:00007a18       ??_C@_0BA@GOHEIJPP@class0D?4charset?$AA@ 00500a18     Lib_Client:GLogicData.obj
 0002:00007a28       ??_C@_0BA@IMKIJCIG@class0C?4charset?$AA@ 00500a28     Lib_Client:GLogicData.obj
 0002:00007a38       ??_C@_0BA@GDGKPJLI@class0B?4charset?$AA@ 00500a38     Lib_Client:GLogicData.obj
 0002:00007a48       ??_C@_0BA@IIFNECLL@class0A?4charset?$AA@ 00500a48     Lib_Client:GLogicData.obj
 0002:00007a58       ??_C@_0BA@GNMDIHNH@class09?4charset?$AA@ 00500a58     Lib_Client:GLogicData.obj
 0002:00007a68       ??_C@_0BA@ICABOMOJ@class08?4charset?$AA@ 00500a68     Lib_Client:GLogicData.obj
 0002:00007a78       ??_C@_0BA@HDAKLHGE@class07?4charset?$AA@ 00500a78     Lib_Client:GLogicData.obj
 0002:00007a88       ??_C@_0BA@JMMINMFK@class06?4charset?$AA@ 00500a88     Lib_Client:GLogicData.obj
 0002:00007a98       ??_C@_0BA@HHPPGHFJ@class05?4charset?$AA@ 00500a98     Lib_Client:GLogicData.obj
 0002:00007aa8       ??_C@_0BA@JIDNAMGH@class04?4charset?$AA@ 00500aa8     Lib_Client:GLogicData.obj
 0002:00007ab8       ??_C@_0BA@HKOBBHBO@class03?4charset?$AA@ 00500ab8     Lib_Client:GLogicData.obj
 0002:00007ac8       ??_C@_0BA@JFCDHMCA@class02?4charset?$AA@ 00500ac8     Lib_Client:GLogicData.obj
 0002:00007ad8       ??_C@_0BA@HOBEMHCD@class01?4charset?$AA@ 00500ad8     Lib_Client:GLogicData.obj
 0002:00007ae8       ??_C@_0BA@JBNGKMBN@class00?4charset?$AA@ 00500ae8     Lib_Client:GLogicData.obj
 0002:00007af8       ??_C@_0BO@JHLHMDFO@GLInventory?3?3SETITEM_BYBUFFER?$AA@ 00500af8     Lib_Client:GLInventory.obj
 0002:00007b18       ??_C@_0DM@CNHPBGGO@inventory?5save?5byte?5stream?5?C?$LD?$LI?$KO?5@ 00500b18     Lib_Client:GLInventory.obj
 0002:00007b54       __real@3e99999a            00500b54     Lib_Client:GLogixExPC.obj
 0002:00007b58       __real@40400000            00500b58     Lib_Client:GLogixExPC.obj
 0002:00007b5c       ??_C@_0BB@IIHAJBDG@ItemStrTable?4txt?$AA@ 00500b5c     Lib_Client:GLItemMan.obj
 0002:00007b70       ??_C@_0BE@GONBCHDI@_ItemData_Synce?4txt?$AA@ 00500b70     Lib_Client:GLItemMan.obj
 0002:00007b84       ??_C@_06LJKPHNMP@GLITEM?$AA@ 00500b84     Lib_Client:GLItemMan.obj
 0002:00007b8c       ??_C@_09NMEFGLMN@Money_3?4X?$AA@ 00500b8c     Lib_Client:GLItemMan.obj
 0002:00007b98       ??_C@_09GEPJAMKI@Money_2?4X?$AA@ 00500b98     Lib_Client:GLItemMan.obj
 0002:00007ba4       ??_C@_09HGEMKDEG@Money_1?4X?$AA@ 00500ba4     Lib_Client:GLItemMan.obj
 0002:00007bb0       ??_C@_01GBGANLPD@0?$AA@    00500bb0     Lib_Client:GLItemPetSkin.obj
 0002:00007bb4       ??_C@_0BA@KCIJDEGL@Vehicle?5Parts?9F?$AA@ 00500bb4     Lib_Client:GLItemVehicle.obj
 0002:00007bc4       ??_C@_0BA@IJKEGHKI@Vehicle?5Parts?9E?$AA@ 00500bc4     Lib_Client:GLItemVehicle.obj
 0002:00007bd4       ??_C@_0BA@JALPFGOJ@Vehicle?5Parts?9D?$AA@ 00500bd4     Lib_Client:GLItemVehicle.obj
 0002:00007be4       ??_C@_0BA@NPPOMACO@Vehicle?5Parts?9C?$AA@ 00500be4     Lib_Client:GLItemVehicle.obj
 0002:00007bf4       ??_C@_0BA@MGOFPBGP@Vehicle?5Parts?9B?$AA@ 00500bf4     Lib_Client:GLItemVehicle.obj
 0002:00007c04       ??_C@_0BA@ONMIKCKM@Vehicle?5Parts?9A?$AA@ 00500c04     Lib_Client:GLItemVehicle.obj
 0002:00007c14       ??_C@_0N@DNJEAPHA@Vehicle?5Skin?$AA@ 00500c14     Lib_Client:GLItemVehicle.obj
 0002:00007c24       ??_C@_0P@HHPJNDJL@Part?5F?5Color?52?$AA@ 00500c24     Lib_Client:GLItemVehicle.obj
 0002:00007c34       ??_C@_0P@FMNEIAFI@Part?5F?5Color?51?$AA@ 00500c34     Lib_Client:GLItemVehicle.obj
 0002:00007c44       ??_C@_0P@JMMOGIJI@Part?5E?5Color?52?$AA@ 00500c44     Lib_Client:GLItemVehicle.obj
 0002:00007c54       ??_C@_0P@LHODDLFL@Part?5E?5Color?51?$AA@ 00500c54     Lib_Client:GLItemVehicle.obj
 0002:00007c64       ??_C@_0P@HDAMADKG@Part?5D?5Color?52?$AA@ 00500c64     Lib_Client:GLItemVehicle.obj
 0002:00007c74       ??_C@_0P@FICBFAGF@Part?5D?5Color?51?$AA@ 00500c74     Lib_Client:GLItemVehicle.obj
 0002:00007c84       ??_C@_0P@JBNABINP@Part?5C?5Color?52?$AA@ 00500c84     Lib_Client:GLItemVehicle.obj
 0002:00007c94       ??_C@_0P@LKPNELBM@Part?5C?5Color?51?$AA@ 00500c94     Lib_Client:GLItemVehicle.obj
 0002:00007ca4       ??_C@_0P@HOBCHDOB@Part?5B?5Color?52?$AA@ 00500ca4     Lib_Client:GLItemVehicle.obj
 0002:00007cb4       ??_C@_0P@FFDPCACC@Part?5B?5Color?51?$AA@ 00500cb4     Lib_Client:GLItemVehicle.obj
 0002:00007cc4       ??_C@_0P@JFCFMIOC@Part?5A?5Color?52?$AA@ 00500cc4     Lib_Client:GLItemVehicle.obj
 0002:00007cd4       ??_C@_0P@LOAIJLCB@Part?5A?5Color?51?$AA@ 00500cd4     Lib_Client:GLItemVehicle.obj
 0002:00007ce4       ??_C@_0L@OHAHCMLH@Pet?5Slot?5B?$AA@ 00500ce4     Lib_Client:GLItemPet.obj
 0002:00007cf0       ??_C@_0L@MMCKHPHE@Pet?5Slot?5A?$AA@ 00500cf0     Lib_Client:GLItemPet.obj
 0002:00007cfc       ??_C@_01EKENIIDA@3?$AA@    00500cfc     Lib_Client:GLItemSuit.obj
 0002:00007d00       ??_C@_01FDFGLJHB@2?$AA@    00500d00     Lib_Client:GLItemSuit.obj
 0002:00007d04       ??_C@_0L@CPDIKMLG@GLACTIVITY?$AA@ 00500d04     Lib_Client:GLActivity.obj
 0002:00007d10       ??_C@_0M@MPNPGHBL@GLMAPS_LIST?$AA@ 00500d10     Lib_Client:GLMapList.obj
 0002:00007d1c       ??_C@_05KIGIAMMN@glmap?$AA@ 00500d1c     Lib_Client:GLLevelFile.obj
 0002:00007d24       __real@3e4ccccd            00500d24     Lib_Client:GLPVPCaptureTheFlagAgent.obj
 0002:00007d28       ??_C@_0BC@KGKDHGDP@SkillStrTable?4txt?$AA@ 00500d28     Lib_Client:GLSkill.obj
 0002:00007d3c       ??_C@_0BE@DNAANLCC@_CrowData_Synce?4txt?$AA@ 00500d3c     Lib_Client:GLSkill.obj
 0002:00007d50       ??_C@_07FMEHIEHE@GLSKILL?$AA@ 00500d50     Lib_Client:GLSkill.obj
 0002:00007d58       __real@41700000            00500d58     Lib_Client:GLChar.obj
 0002:00007d5c       __real@bf800000            00500d5c     Lib_Client:GLLandMan.obj
 0002:00007d60       ??_C@_0O@DOHLFGDA@Type_N?$CISnake?$CJ?$AA@ 00500d60     Lib_Client:GLPet.obj
 0002:00007d70       ??_C@_0BB@GGBCFKK@Type_M?$CIDinosaur?$CJ?$AA@ 00500d70     Lib_Client:GLPet.obj
 0002:00007d84       ??_C@_0BA@PAALIPAP@Type_L?$CILeopard?$CJ?$AA@ 00500d84     Lib_Client:GLPet.obj
 0002:00007d94       ??_C@_0M@FFCCNOOL@Type_K?$CIFox?$CJ?$AA@ 00500d94     Lib_Client:GLPet.obj
 0002:00007da0       ??_C@_0O@KPHKAPEA@Type_J?$CIFairy?$CJ?$AA@ 00500da0     Lib_Client:GLPet.obj
 0002:00007db0       ??_C@_0P@NCNBHLKA@Type_I?$CIMonkey?$CJ?$AA@ 00500db0     Lib_Client:GLPet.obj
 0002:00007dc0       ??_C@_0BE@OMEMOPNL@Type_H?$CIWooden?5Doll?$CJ?$AA@ 00500dc0     Lib_Client:GLPet.obj
 0002:00007dd4       ??_C@_0BD@FMMHLKGB@Type_G?$CIRani?5Stone?$CJ?$AA@ 00500dd4     Lib_Client:GLPet.obj
 0002:00007de8       ??_C@_0P@OKNKDLKO@Type_F?$CIParrot?$CJ?$AA@ 00500de8     Lib_Client:GLPet.obj
 0002:00007df8       ??_C@_0M@IGIPLDBL@Type_E?$CIOwl?$CJ?$AA@ 00500df8     Lib_Client:GLPet.obj
 0002:00007e04       ??_C@_0BC@LHINNDDL@Type_D?$CIRani?5Bear?$CJ?$AA@ 00500e04     Lib_Client:GLPet.obj
 0002:00007e18       ??_C@_0BJ@HBKOLBAP@Type_C?$CIWhite?5Baby?5Tiger?$CJ?$AA@ 00500e18     Lib_Client:GLPet.obj
 0002:00007e34       ??_C@_0P@HEPLLOPK@Type_B?$CITurtle?$CJ?$AA@ 00500e34     Lib_Client:GLPet.obj
 0002:00007e44       ??_C@_0BH@BKJMJBHB@Type_A?$CISiberian?5Husky?$CJ?$AA@ 00500e44     Lib_Client:GLPet.obj
 0002:00007e5c       ??_C@_0BB@DKEHLMGK@CrowStrTable?4txt?$AA@ 00500e5c     Lib_Client:GLCrowData.obj
 0002:00007e70       ??_C@_06GLMOEFLP@GLCROW?$AA@ 00500e70     Lib_Client:GLCrowData.obj
 0002:00007e78       ??_C@_04NEEIJHPO@Shop?$AA@ 00500e78     Lib_Client:GLCrowData.obj
 0002:00007e80       ??_C@_01PJKLJHI@?$HO?$AA@  00500e80     Lib_Client:GLLevelRequire.obj
 0002:00007e84       ??_C@_03EBKHDLCO@Any?$AA@  00500e84     Lib_Client:GLLevelRequire.obj
 0002:00007e88       ??_C@_02EHCHHCKH@?$DM?$DN?$AA@ 00500e88     Lib_Client:GLLevelRequire.obj
 0002:00007e8c       ??_C@_02EEKDKGMJ@?$DO?$DN?$AA@ 00500e8c     Lib_Client:GLLevelRequire.obj
 0002:00007e90       ??_C@_01MNNFJEPP@?$DM?$AA@ 00500e90     Lib_Client:GLLevelRequire.obj
 0002:00007e94       ??_C@_01PPODPGHN@?$DO?$AA@ 00500e94     Lib_Client:GLLevelRequire.obj
 0002:00007e98       ??_C@_0O@NIDLBHKA@EMSIGN_FROMTO?$AA@ 00500e98     Lib_Client:GLLevelRequire.obj
 0002:00007ea8       ??_C@_0O@NAKJOHDA@EMSIGN_ALWAYS?$AA@ 00500ea8     Lib_Client:GLLevelRequire.obj
 0002:00007eb8       ??_C@_0BB@PHDIKBI@EMSIGN_SAMELOWER?$AA@ 00500eb8     Lib_Client:GLLevelRequire.obj
 0002:00007ecc       ??_C@_0BC@DCBLOJKO@EMSIGN_SAMEHIGHER?$AA@ 00500ecc     Lib_Client:GLLevelRequire.obj
 0002:00007ee0       ??_C@_0N@CEFANPLC@EMSIGN_LOWER?$AA@ 00500ee0     Lib_Client:GLLevelRequire.obj
 0002:00007ef0       ??_C@_0O@EDDIAAN@EMSIGN_HIGHER?$AA@ 00500ef0     Lib_Client:GLLevelRequire.obj
 0002:00007f00       ??_C@_0M@HCMHHFON@EMSIGN_SAME?$AA@ 00500f00     Lib_Client:GLLevelRequire.obj
 0002:00007f0c       ??_C@_0P@ILNCOAPF@GLTAXI_STATION?$AA@ 00500f0c     Lib_Client:GLTaxiStation.obj
 0002:00007f1c       ??_C@_0L@DHDBBHLE@GLITEM_MIX?$AA@ 00500f1c     Lib_Client:GLItemMixMan.obj
 0002:00007f28       ??_C@_0CA@FLJMEDMA@MovetoStartMovetoSpecifiedPlace?$AA@ 00500f28     Lib_Client:GLQuest.obj
 0002:00007f48       ??_C@_09FBKIGILD@CharDeath?$AA@ 00500f48     Lib_Client:GLQuest.obj
 0002:00007f54       ??_C@_07PHNBBPBM@NoEvent?$AA@ 00500f54     Lib_Client:GLQuest.obj
 0002:00007f5c       ??_C@_0BH@MOKOJCJA@Lost?5City?9Chaos?5Island?$AA@ 00500f5c     Lib_Client:GLQuest.obj
 0002:00007f74       ??_C@_0BC@GKLPMD@Saint?5power?5plant?$AA@ 00500f74     Lib_Client:GLQuest.obj
 0002:00007f88       ??_C@_0P@FHJOODFE@Disabled?5Quest?$AA@ 00500f88     Lib_Client:GLQuest.obj
 0002:00007f98       ??_C@_0BG@FFOLNDHK@Level?5Achieving?5Quest?$AA@ 00500f98     Lib_Client:GLQuest.obj
 0002:00007fb0       ??_C@_0P@CICJFEPF@Regional?5Quest?$AA@ 00500fb0     Lib_Client:GLQuest.obj
 0002:00007fc0       ??_C@_0M@JJEJILBD@Event?5Quest?$AA@ 00500fc0     Lib_Client:GLQuest.obj
 0002:00007fcc       ??_C@_0BA@IGGPLPNN@Map?5Entry?5Quest?$AA@ 00500fcc     Lib_Client:GLQuest.obj
 0002:00007fdc       ??_C@_0O@MFBGDMEI@LeonineCampus?$AA@ 00500fdc     Lib_Client:GLQuest.obj
 0002:00007fec       ??_C@_0BA@JEEFBLLI@LeonineCampus1F?$AA@ 00500fec     Lib_Client:GLQuest.obj
 0002:00007ffc       ??_C@_09GDJLJLHA@MP_Campus?$AA@ 00500ffc     Lib_Client:GLQuest.obj
 0002:00008008       ??_C@_0P@JMPBAKHJ@MysticPeakHole?$AA@ 00501008     Lib_Client:GLQuest.obj
 0002:00008018       ??_C@_0M@JGNHDOAL@MarketPlace?$AA@ 00501018     Lib_Client:GLQuest.obj
 0002:00008024       ??_C@_0N@HLBIPFBH@WharfPassage?$AA@ 00501024     Lib_Client:GLQuest.obj
 0002:00008034       ??_C@_0M@NDBLNJGK@Middle?5Hole?$AA@ 00501034     Lib_Client:GLQuest.obj
 0002:00008040       ??_C@_0P@MGFLPNMA@PracticingYard?$AA@ 00501040     Lib_Client:GLQuest.obj
 0002:00008050       ??_C@_0BB@PJOAKHBA@Complex?5Basement?$AA@ 00501050     Lib_Client:GLQuest.obj
 0002:00008064       ??_C@_0BH@JGDHBFEG@Saint?5Research?5Complex?$AA@ 00501064     Lib_Client:GLQuest.obj
 0002:0000807c       ??_C@_06FCPBLFIG@Prison?$AA@ 0050107c     Lib_Client:GLQuest.obj
 0002:00008084       ??_C@_09JCFNAFJD@SG_Campus?$AA@ 00501084     Lib_Client:GLQuest.obj
 0002:00008090       ??_C@_0P@JAPANGMG@SacredGateHole?$AA@ 00501090     Lib_Client:GLQuest.obj
 0002:000080a0       ??_C@_0BA@BEHKGDFF@Trading4Passage?$AA@ 005010a0     Lib_Client:GLQuest.obj
 0002:000080b0       ??_C@_0M@HBOOOGIG@TradingHole?$AA@ 005010b0     Lib_Client:GLQuest.obj
 0002:000080bc       ??_C@_0O@IMFPCEHJ@PhoenixCampus?$AA@ 005010bc     Lib_Client:GLQuest.obj
 0002:000080cc       ??_C@_0M@KOBOCJP@PhoenixHole?$AA@ 005010cc     Lib_Client:GLQuest.obj
 0002:000080d8       ??_C@_0M@CPHCGMD@Head?4B?5Area?$AA@ 005010d8     Lib_Client:GLQuest.obj
 0002:000080e4       ??_C@_09GGIPJFOL@Root?5Hole?$AA@ 005010e4     Lib_Client:GLQuest.obj
 0002:000080f0       ??_C@_08HGBMKDPC@Tutorial?$AA@ 005010f0     Lib_Client:GLQuest.obj
 0002:000080fc       ??_C@_09OFIOEEKH@Dormitory?$AA@ 005010fc     Lib_Client:GLQuest.obj
 0002:00008108       ??_C@_0BC@IFKHHGEE@SG?5MP?5PH?5GateHole?$AA@ 00501108     Lib_Client:GLQuest.obj
 0002:0000811c       ??_C@_0BA@OBNLIFHJ@SG?5MP?5PH?5Campus?$AA@ 0050111c     Lib_Client:GLQuest.obj
 0002:0000812c       ??_C@_0O@LEGJMBMG@Process?5Quest?$AA@ 0050112c     Lib_Client:NpcTalk.obj
 0002:0000813c       ??_C@_0M@GBBPGLNB@Start?5Quest?$AA@ 0050113c     Lib_Client:NpcTalk.obj
 0002:00008148       ??_C@_08PHKOHANG@Function?$AA@ 00501148     Lib_Client:NpcTalk.obj
 0002:00008154       ??_C@_09EFHACLA@Next?5Page?$AA@ 00501154     Lib_Client:NpcTalk.obj
 0002:00008160       ??_C@_07MMBOBMNN@Nothing?$AA@ 00501160     Lib_Client:NpcTalk.obj
 0002:00008168       ??_C@_0O@EAPKNAME@Item?5Exchange?$AA@ 00501168     Lib_Client:NpcTalk.obj
 0002:00008178       ??_C@_07OBEGPOCA@NPCShop?$AA@ 00501178     Lib_Client:NpcTalk.obj
 0002:00008180       ??_C@_09FKFOCGJI@Reserve09?$AA@ 00501180     Lib_Client:NpcTalk.obj
 0002:0000818c       ??_C@_09EDEFBHNJ@Reserve08?$AA@ 0050118c     Lib_Client:NpcTalk.obj
 0002:00008198       ??_C@_09MENNALBG@Reserve07?$AA@ 00501198     Lib_Client:NpcTalk.obj
 0002:000081a4       ??_C@_09NNMGDKFH@Reserve06?$AA@ 005011a4     Lib_Client:NpcTalk.obj
 0002:000081b0       ??_C@_09PGOLGJJE@Reserve05?$AA@ 005011b0     Lib_Client:NpcTalk.obj
 0002:000081bc       ??_C@_09OPPAFINF@Reserve04?$AA@ 005011bc     Lib_Client:NpcTalk.obj
 0002:000081c8       ??_C@_09KALBMOBC@Reserve03?$AA@ 005011c8     Lib_Client:NpcTalk.obj
 0002:000081d4       ??_C@_09LJKKPPFD@Reserve02?$AA@ 005011d4     Lib_Client:NpcTalk.obj
 0002:000081e0       ??_C@_09JCIHKMJA@Reserve01?$AA@ 005011e0     Lib_Client:NpcTalk.obj
 0002:000081ec       ??_C@_09ILJMJNNB@Reserve00?$AA@ 005011ec     Lib_Client:NpcTalk.obj
 0002:000081f8       ??_C@_08CGGGBCBE@Item?5Mix?$AA@ 005011f8     Lib_Client:NpcTalk.obj
 0002:00008204       ??_C@_0BE@JPJEFEPC@Attendance?5Function?$AA@ 00501204     Lib_Client:NpcTalk.obj
 0002:00008218       ??_C@_0M@MMFKJBOO@Item?5Search?$AA@ 00501218     Lib_Client:NpcTalk.obj
 0002:00008224       ??_C@_0P@LKKHBBAP@Random?5NPCTalk?$AA@ 00501224     Lib_Client:NpcTalk.obj
 0002:00008234       ??_C@_0N@JAMCJME@EXP?5Recovery?$AA@ 00501234     Lib_Client:NpcTalk.obj
 0002:00008244       ??_C@_0O@HLAAHDEE@Simple?5Gamble?$AA@ 00501244     Lib_Client:NpcTalk.obj
 0002:00008254       ??_C@_0N@NGEFNNNF@Item?5Rebuild?$AA@ 00501254     Lib_Client:NpcTalk.obj
 0002:00008264       ??_C@_0BA@JAHMJCEJ@Use?5Club?5Locker?$AA@ 00501264     Lib_Client:NpcTalk.obj
 0002:00008274       ??_C@_0BA@CPHJADNM@Change?5Tax?5Rate?$AA@ 00501274     Lib_Client:NpcTalk.obj
 0002:00008284       ??_C@_0L@ONPJFKJ@CD?5Certify?$AA@ 00501284     Lib_Client:NpcTalk.obj
 0002:00008290       ??_C@_0N@OBPOPOJL@Upgrade?5Club?$AA@ 00501290     Lib_Client:NpcTalk.obj
 0002:000082a0       ??_C@_0M@IECFNNND@Create?5Club?$AA@ 005012a0     Lib_Client:NpcTalk.obj
 0002:000082ac       ??_C@_0M@LKCHLKCG@Bus?5Station?$AA@ 005012ac     Lib_Client:NpcTalk.obj
 0002:000082b8       ??_C@_0L@EAMJPJBA@Trade?5Item?$AA@ 005012b8     Lib_Client:NpcTalk.obj
 0002:000082c4       ??_C@_0BC@GOPCFOJM@Reset?5Stats?1Skill?$AA@ 005012c4     Lib_Client:NpcTalk.obj
 0002:000082d8       ??_C@_0O@HIIJCFOM@Save?5Position?$AA@ 005012d8     Lib_Client:NpcTalk.obj
 0002:000082e8       ??_C@_04NNPLJJOH@Heal?$AA@ 005012e8     Lib_Client:NpcTalk.obj
 0002:000082f0       ??_C@_0M@HJEPHJBE@Open?5Locker?$AA@ 005012f0     Lib_Client:NpcTalk.obj
 0002:000082fc       ?m_fSPHERE_S1@GLMobSchedule@@2MB 005012fc     Lib_Client:GLMobSchedule.obj
 0002:00008300       ?m_fSPHERE_S2@GLMobSchedule@@2MB 00501300     Lib_Client:GLMobSchedule.obj
 0002:00008304       ?m_fSPHERE_S3@GLMobSchedule@@2MB 00501304     Lib_Client:GLMobSchedule.obj
 0002:00008308       ??_C@_0BB@NMPDAOEP@EMACTION_ACTSTAY?$AA@ 00501308     Lib_Client:GLMobSchedule.obj
 0002:0000831c       ??_C@_0O@KICHKAPI@EMACTION_MOVE?$AA@ 0050131c     Lib_Client:GLMobSchedule.obj
 0002:0000832c       ??_C@_0M@MPFJDAGE@Summon?5Time?$AA@ 0050132c     Lib_Client:GLSkillApply.obj
 0002:00008338       ??_C@_0BF@FMHCPKJI@Pet?5Prevent?5ItemDrop?$AA@ 00501338     Lib_Client:GLSkillApply.obj
 0002:00008350       ??_C@_0BC@LBPIBLGE@Pet?5AutoUsePotion?$AA@ 00501350     Lib_Client:GLSkillApply.obj
 0002:00008364       ??_C@_0BJ@KKKIBLPK@Pet?5Master?5Defense?5Value?$AA@ 00501364     Lib_Client:GLSkillApply.obj
 0002:00008380       ??_C@_0BI@MHGLLAGH@Pet?5Master?5Attack?5Value?$AA@ 00501380     Lib_Client:GLSkillApply.obj
 0002:00008398       ??_C@_0BM@HBJKPPLH@Pet?5Master?5HP?$CLMP?$CLSP?5Recover?$AA@ 00501398     Lib_Client:GLSkillApply.obj
 0002:000083b4       ??_C@_0BG@GBGCHNFO@Pet?5Master?5HP?5Recover?$AA@ 005013b4     Lib_Client:GLSkillApply.obj
 0002:000083cc       ??_C@_0BD@NANMAEMP@Pet?5Pickup?5Refines?$AA@ 005013cc     Lib_Client:GLSkillApply.obj
 0002:000083e0       ??_C@_0BB@DIHOJHOH@Pet?5Pickup?5Money?$AA@ 005013e0     Lib_Client:GLSkillApply.obj
 0002:000083f4       ??_C@_0BD@MMHOHHOI@Pet?5Pickup?5Potions?$AA@ 005013f4     Lib_Client:GLSkillApply.obj
 0002:00008408       ??_C@_0BG@EAANEOBA@Pet?5Pickup?5Rare?5Items?$AA@ 00501408     Lib_Client:GLSkillApply.obj
 0002:00008420       ??_C@_0BF@BNCAIOCP@Pet?5Pickup?5All?5Items?$AA@ 00501420     Lib_Client:GLSkillApply.obj
 0002:00008438       ??_C@_0N@KFBFPFAC@Attack?5Value?$AA@ 00501438     Lib_Client:GLSkillApply.obj
 0002:00008448       ??_C@_09OAAPOEIG@AvoidRate?$AA@ 00501448     Lib_Client:GLSkillApply.obj
 0002:00008454       ??_C@_07GEADOMIM@HitRate?$AA@ 00501454     Lib_Client:GLSkillApply.obj
 0002:0000845c       ??_C@_08NOCNDIJI@Detoxify?$AA@ 0050145c     Lib_Client:GLSkillApply.obj
 0002:00008468       ??_C@_0O@JHBCPAGI@Defense?5Value?$AA@ 00501468     Lib_Client:GLSkillApply.obj
 0002:00008478       ??_C@_02NEPPOLFA@SP?$AA@   00501478     Lib_Client:GLSkillApply.obj
 0002:0000847c       ??_C@_02MCEHGFCK@MP?$AA@   0050147c     Lib_Client:GLSkillApply.obj
 0002:00008480       ??_C@_02MEIMKHMB@HP?$AA@   00501480     Lib_Client:GLSkillApply.obj
 0002:00008484       ??_C@_0P@BMCEKGHG@Transform?$CICPS?$CJ?$AA@ 00501484     Lib_Client:GLSkillSpecial.obj
 0002:00008494       ??_C@_0BG@PIGEJFLN@When?5Effect?5Activated?$AA@ 00501494     Lib_Client:GLSkillExData.obj
 0002:000084ac       ??_C@_07NPCGECPI@Passive?$AA@ 005014ac     Lib_Client:GLSkillExData.obj
 0002:000084b4       ??_C@_0N@BCFDFDAD@After?5Strike?$AA@ 005014b4     Lib_Client:GLSkillExData.obj
 0002:000084c4       ??_C@_0O@CHICDAJD@During?5Strike?$AA@ 005014c4     Lib_Client:GLSkillExData.obj
 0002:000084d4       ??_C@_0O@JPIIIINP@Before?5Strike?$AA@ 005014d4     Lib_Client:GLSkillExData.obj
 0002:000084e4       ??_C@_0BA@LAOHHCPG@Strike?5Position?$AA@ 005014e4     Lib_Client:GLSkillExData.obj
 0002:000084f4       ??_C@_0BA@GNDCPNL@Ground?5Position?$AA@ 005014f4     Lib_Client:GLSkillExData.obj
 0002:00008504       ??_C@_06MAFFGDO@Active?$AA@ 00501504     Lib_Client:GLSkillBasic.obj
 0002:0000850c       ??_C@_05PGIOBOGC@Magic?$AA@ 0050150c     Lib_Client:GLSkillBasic.obj
 0002:00008514       ??_C@_0BH@OMMNKMPB@No?5Weapon?5Requirements?$AA@ 00501514     Lib_Client:GLSkillBasic.obj
 0002:0000852c       ??_C@_08GEPKFEHG@Shuriken?$AA@ 0050152c     Lib_Client:GLSkillBasic.obj
 0002:00008538       ??_C@_09EKGLBHLJ@DualSpear?$AA@ 00501538     Lib_Client:GLSkillBasic.obj
 0002:00008544       ??_C@_06LABPBOFA@Scythe?$AA@ 00501544     Lib_Client:GLSkillBasic.obj
 0002:0000854c       ??_C@_0BE@FHLJGGNE@Rail?9gun?1Portal?9gun?$AA@ 0050154c     Lib_Client:GLSkillBasic.obj
 0002:00008560       ??_C@_07DGIAOJJ@Shotgun?$AA@ 00501560     Lib_Client:GLSkillBasic.obj
 0002:00008568       ??_C@_0L@GNEJDJB@Portal?5Gun?$AA@ 00501568     Lib_Client:GLSkillBasic.obj
 0002:00008574       ??_C@_08FGENEHIB@Rail?5Gun?$AA@ 00501574     Lib_Client:GLSkillBasic.obj
 0002:00008580       ??_C@_03HBDMKMPF@Gun?$AA@  00501580     Lib_Client:GLSkillBasic.obj
 0002:00008584       ??_C@_05JCKDCDAK@Throw?$AA@ 00501584     Lib_Client:GLSkillBasic.obj
 0002:0000858c       ??_C@_03MMFDNDHJ@Bow?$AA@  0050158c     Lib_Client:GLSkillBasic.obj
 0002:00008590       ??_C@_05KNMJDAAD@Gaunt?$AA@ 00501590     Lib_Client:GLSkillBasic.obj
 0002:00008598       ??_C@_05ECMDBNJG@Stick?$AA@ 00501598     Lib_Client:GLSkillBasic.obj
 0002:000085a0       ??_C@_05GFBBHJJI@Spear?$AA@ 005015a0     Lib_Client:GLSkillBasic.obj
 0002:000085a8       ??_C@_06MPIJNLEM@Dagger?$AA@ 005015a8     Lib_Client:GLSkillBasic.obj
 0002:000085b0       ??_C@_0M@EBKHPINF@Sword?1Blade?$AA@ 005015b0     Lib_Client:GLSkillBasic.obj
 0002:000085bc       ??_C@_05IEKBADAP@Blade?$AA@ 005015bc     Lib_Client:GLSkillBasic.obj
 0002:000085c4       ??_C@_05LKHEONBC@Sword?$AA@ 005015c4     Lib_Client:GLSkillBasic.obj
 0002:000085cc       ??_C@_0L@IPAELHED@Limit?5Type?$AA@ 005015cc     Lib_Client:GLSkillBasic.obj
 0002:000085d8       ??_C@_0M@JHHLHJMI@Debuff?5Type?$AA@ 005015d8     Lib_Client:GLSkillBasic.obj
 0002:000085e4       ??_C@_09FCJPGCPE@Buff?5Type?$AA@ 005015e4     Lib_Client:GLSkillBasic.obj
 0002:000085f0       ??_C@_0M@BOAPOPL@Normal?5Type?$AA@ 005015f0     Lib_Client:GLSkillBasic.obj
 0002:000085fc       __real@3ecccccd            005015fc     Lib_Client:GLCrowReAction.obj
 0002:00008600       ??_C@_0BC@LAIFNHEO@SkillTarget?5Enemy?$AA@ 00501600     Lib_Client:GLCrowDataAttack.obj
 0002:00008614       ??_C@_0BA@DAEGAEI@SkillTarget?5Our?$AA@ 00501614     Lib_Client:GLCrowDataAttack.obj
 0002:00008624       ??_C@_0BE@FAEHCHPA@Run?5Away?5From?5Enemy?$AA@ 00501624     Lib_Client:GLCrowDataAction.obj
 0002:00008638       ??_C@_0BF@MDNCOKAC@Attack?5Running?5Enemy?$AA@ 00501638     Lib_Client:GLCrowDataAction.obj
 0002:00008650       ??_C@_0BJ@JLNDNDAA@Attack?5Enemy?5With?5Weapon?$AA@ 00501650     Lib_Client:GLCrowDataAction.obj
 0002:0000866c       ??_C@_0CB@DBOKPPID@Attack?5Enemy?5With?5Abnormal?5State@ 0050166c     Lib_Client:GLCrowDataAction.obj
 0002:00008690       ??_C@_0BI@IFALEOCN@Attack?5Low?5BrightPoints?$AA@ 00501690     Lib_Client:GLCrowDataAction.obj
 0002:000086a8       ??_C@_0BJ@INMNJNLH@Attack?5High?5BrightPoints?$AA@ 005016a8     Lib_Client:GLCrowDataAction.obj
 0002:000086c4       ??_C@_0BA@PLDJFACK@Attack?5Lower?5HP?$AA@ 005016c4     Lib_Client:GLCrowDataAction.obj
 0002:000086d4       ??_C@_0BD@OLDELBFB@Attack?5Lower?5Level?$AA@ 005016d4     Lib_Client:GLCrowDataAction.obj
 0002:000086e8       ??_C@_0BF@FIGNFLIE@Attack?5Nearest?5Enemy?$AA@ 005016e8     Lib_Client:GLCrowDataAction.obj
 0002:00008700       ??_C@_07LNBDIIPN@Standby?$AA@ 00501700     Lib_Client:GLCrowDataAction.obj
 0002:00008708       ??_C@_0BC@GEMGNGGD@Look?5For?5Lower?5HP?$AA@ 00501708     Lib_Client:GLCrowDataAction.obj
 0002:0000871c       ??_C@_09HIDPLLDC@No?5Action?$AA@ 0050171c     Lib_Client:GLCrowDataAction.obj
 0002:00008728       ?m_fELAPS_MOVE@GLCharacter@@1MB 00501728     Lib_Client:GLCharacter.obj
 0002:0000872c       ??_C@_04MLLLIHIP@null?$AA@ 0050172c     Lib_Client:GLCharacter.obj
 0002:00008734       ??_C@_0L@LGNMCOML@REACT_NULL?$AA@ 00501734     Lib_Client:GLCharacter.obj
 0002:00008740       ??_C@_0BA@DPGCBJOO@REACT_SWAP_ARMS?$AA@ 00501740     Lib_Client:GLCharacter.obj
 0002:00008750       ??_C@_0BF@JOFPEJFH@REACT_TOGGLE_VEHICLE?$AA@ 00501750     Lib_Client:GLCharacter.obj
 0002:00008768       ??_C@_0BA@IAGKJLFM@REACT_GATHERING?$AA@ 00501768     Lib_Client:GLCharacter.obj
 0002:00008778       ??_C@_0M@HIKAPIL@REACT_SKILL?$AA@ 00501778     Lib_Client:GLCharacter.obj
 0002:00008784       ??_C@_0L@KKIKJPHA@REACT_ITEM?$AA@ 00501784     Lib_Client:GLCharacter.obj
 0002:00008790       ??_C@_09JBJODICM@REACT_PVP?$AA@ 00501790     Lib_Client:GLCharacter.obj
 0002:0000879c       ??_C@_09NOEAFLNA@REACT_P2P?$AA@ 0050179c     Lib_Client:GLCharacter.obj
 0002:000087a8       ??_C@_09EEDKCFKA@REACT_NPC?$AA@ 005017a8     Lib_Client:GLCharacter.obj
 0002:000087b4       ??_C@_09FIOOFPEC@REACT_MOB?$AA@ 005017b4     Lib_Client:GLCharacter.obj
 0002:000087c0       ??_C@_07MFLBHHML@Costume?$AA@ 005017c0     Lib_Client:GLProductDefine.obj
 0002:000087c8       ??_C@_08BHIDPIGP@Box?5Item?$AA@ 005017c8     Lib_Client:GLProductDefine.obj
 0002:000087d4       ??_C@_0P@PLHGJIOL@Ring?1Accessory?$AA@ 005017d4     Lib_Client:GLProductDefine.obj
 0002:000087e4       ??_C@_0O@PBOAHONL@Bracelet?1Belt?$AA@ 005017e4     Lib_Client:GLProductDefine.obj
 0002:000087f4       ??_C@_0BC@DGBABLII@Necklace?1Earrings?$AA@ 005017f4     Lib_Client:GLProductDefine.obj
 0002:00008808       ??_C@_06KLEAFNAE@Weapon?$AA@ 00501808     Lib_Client:GLProductDefine.obj
 0002:00008810       ??_C@_05EECONMCC@Shoes?$AA@ 00501810     Lib_Client:GLProductDefine.obj
 0002:00008818       ??_C@_06IDDBJIHF@Gloves?$AA@ 00501818     Lib_Client:GLProductDefine.obj
 0002:00008820       ??_C@_0M@HKLNIOGF@Skirt?1Pants?$AA@ 00501820     Lib_Client:GLProductDefine.obj
 0002:0000882c       ??_C@_0L@OBDDAENK@Shirt?1Vest?$AA@ 0050182c     Lib_Client:GLProductDefine.obj
 0002:00008838       ??_C@_08DPDGMBIF@Hat?1Hair?$AA@ 00501838     Lib_Client:GLProductDefine.obj
 0002:00008844       ??_C@_09IEEJAPMA@AllServer?$AA@ 00501844     Lib_Client:GLActivityDefine.obj
 0002:00008850       ??_C@_06MCFOAKDN@Around?$AA@ 00501850     Lib_Client:GLActivityDefine.obj
 0002:00008858       ??_C@_0M@PJFNAONN@Obtain?5QBox?$AA@ 00501858     Lib_Client:GLActivityDefine.obj
 0002:00008864       ??_C@_0O@KANGKAJG@Collect?5Point?$AA@ 00501864     Lib_Client:GLActivityDefine.obj
 0002:00008874       ??_C@_0P@DEHDPKGB@Complete?5Quest?$AA@ 00501874     Lib_Client:GLActivityDefine.obj
 0002:00008884       ??_C@_0BC@IKFBKNBC@Complete?5Activity?$AA@ 00501884     Lib_Client:GLActivityDefine.obj
 0002:00008898       ??_C@_0N@LFNPHAJC@Consume?5Item?$AA@ 00501898     Lib_Client:GLActivityDefine.obj
 0002:000088a8       ??_C@_0N@EDPFNEAP@Collect?5Item?$AA@ 005018a8     Lib_Client:GLActivityDefine.obj
 0002:000088b8       ??_C@_09DLENAJHI@Reach?5Map?$AA@ 005018b8     Lib_Client:GLActivityDefine.obj
 0002:000088c4       ??_C@_0O@FEOOHOAO@Defeat?5Player?$AA@ 005018c4     Lib_Client:GLActivityDefine.obj
 0002:000088d4       ??_C@_0P@GGJJMJBB@Defeat?5Monster?$AA@ 005018d4     Lib_Client:GLActivityDefine.obj
 0002:000088e4       ??_C@_0BC@CKAJLFNB@Level?5Achievement?$AA@ 005018e4     Lib_Client:GLActivityDefine.obj
 0002:000088f8       ??_C@_0O@EPBLODHC@Summon?5Type_D?$AA@ 005018f8     Lib_Client:GLSummonDef.obj
 0002:00008908       ??_C@_0O@FKHFLF@Summon?5Type_C?$AA@ 00501908     Lib_Client:GLSummonDef.obj
 0002:00008918       ??_C@_0O@BJEBEEPE@Summon?5Type_B?$AA@ 00501918     Lib_Client:GLSummonDef.obj
 0002:00008928       ??_C@_0O@DCGMBHDH@Summon?5Type_A?$AA@ 00501928     Lib_Client:GLSummonDef.obj
 0002:00008938       ??_C@_07OKNHKCAG@Level09?$AA@ 00501938     Lib_Client:GLSkillDefine.obj
 0002:00008940       ??_C@_07PDMMJDEH@Level08?$AA@ 00501940     Lib_Client:GLSkillDefine.obj
 0002:00008948       ??_C@_07HEFEIPII@Level07?$AA@ 00501948     Lib_Client:GLSkillDefine.obj
 0002:00008950       ??_C@_07GNEPLOMJ@Level06?$AA@ 00501950     Lib_Client:GLSkillDefine.obj
 0002:00008958       ??_C@_07EGGCONAK@Level05?$AA@ 00501958     Lib_Client:GLSkillDefine.obj
 0002:00008960       ??_C@_07FPHJNMEL@Level04?$AA@ 00501960     Lib_Client:GLSkillDefine.obj
 0002:00008968       ??_C@_07BADIEKIM@Level03?$AA@ 00501968     Lib_Client:GLSkillDefine.obj
 0002:00008970       ??_C@_07JCDHLMN@Level02?$AA@ 00501970     Lib_Client:GLSkillDefine.obj
 0002:00008978       ??_C@_07CCAOCIAO@Level01?$AA@ 00501978     Lib_Client:GLSkillDefine.obj
 0002:00008980       ??_C@_0BA@EDEJNNKD@Special?5Ability?$AA@ 00501980     Lib_Client:GLSkillDefine.obj
 0002:00008990       ??_C@_0P@JEPMDLHI@Special?5Effect?$AA@ 00501990     Lib_Client:GLSkillDefine.obj
 0002:000089a0       ??_C@_0M@OOBKI@Side?5Effect?$AA@ 005019a0     Lib_Client:GLSkillDefine.obj
 0002:000089ac       ??_C@_05GHJMOCPE@Limit?$AA@ 005019ac     Lib_Client:GLSkillDefine.obj
 0002:000089b4       ??_C@_06EKAAOADC@Debuff?$AA@ 005019b4     Lib_Client:GLSkillDefine.obj
 0002:000089bc       ??_C@_04DIPCCING@Buff?$AA@ 005019bc     Lib_Client:GLSkillDefine.obj
 0002:000089c4       ??_C@_0N@IPPHFGAH@Skill?5Attack?$AA@ 005019c4     Lib_Client:GLSkillDefine.obj
 0002:000089d4       ??_C@_0O@JCEPLALI@Normal?5Attack?$AA@ 005019d4     Lib_Client:GLSkillDefine.obj
 0002:000089e4       ??_C@_0N@FKKMMBAF@Force?5Action?$AA@ 005019e4     Lib_Client:GLSkillDefine.obj
 0002:000089f4       ??_C@_05OCBIINAK@Fixed?$AA@ 005019f4     Lib_Client:GLSkillDefine.obj
 0002:000089fc       ??_C@_06BEOPDEGP@Random?$AA@ 005019fc     Lib_Client:GLSkillDefine.obj
 0002:00008a04       ??_C@_06NNOCCMPB@Caster?$AA@ 00501a04     Lib_Client:GLSkillDefine.obj
 0002:00008a0c       ??_C@_06KLICALHK@Myself?$AA@ 00501a0c     Lib_Client:GLSkillDefine.obj
 0002:00008a14       ??_C@_05CLADCAAM@After?$AA@ 00501a14     Lib_Client:GLSkillDefine.obj
 0002:00008a1c       ??_C@_06NDPGJMFM@Before?$AA@ 00501a1c     Lib_Client:GLSkillDefine.obj
 0002:00008a24       ??_C@_08GCECMMIH@Decrease?$AA@ 00501a24     Lib_Client:GLSkillDefine.obj
 0002:00008a30       ??_C@_0BJ@OODIOJEB@Use?5during?5combat?5status?$AA@ 00501a30     Lib_Client:GLSkillDefine.obj
 0002:00008a4c       ??_C@_07JKJCPGE@Running?$AA@ 00501a4c     Lib_Client:GLSkillDefine.obj
 0002:00008a54       ??_C@_07FHPALHKG@Walking?$AA@ 00501a54     Lib_Client:GLSkillDefine.obj
 0002:00008a5c       ??_C@_03HFJGAJFE@All?$AA@  00501a5c     Lib_Client:GLSkillDefine.obj
 0002:00008a60       ??_C@_04MLCHLHIM@Epic?$AA@ 00501a60     Lib_Client:GLItemDef.obj
 0002:00008a68       ??_C@_08KEBCLIFP@Infinity?$AA@ 00501a68     Lib_Client:GLItemDef.obj
 0002:00008a74       ??_C@_06CMJBGPCH@Unique?$AA@ 00501a74     Lib_Client:GLItemDef.obj
 0002:00008a7c       ??_C@_04LHGLCHPD@Rare?$AA@ 00501a7c     Lib_Client:GLItemDef.obj
 0002:00008a84       ??_C@_06POMJKEPM@Common?$AA@ 00501a84     Lib_Client:GLItemDef.obj
 0002:00008a8c       ??_C@_0M@EAENPFJF@Sealed?5Card?$AA@ 00501a8c     Lib_Client:GLItemDef.obj
 0002:00008a98       ??_C@_0BF@FGBOBFHA@Vehicle?5Booster?5Card?$AA@ 00501a98     Lib_Client:GLItemDef.obj
 0002:00008ab0       ??_C@_0BG@GHBCBFML@Car?5Color?5Change?5Card?$AA@ 00501ab0     Lib_Client:GLItemDef.obj
 0002:00008ac8       ??_C@_0BD@CNJFCMF@Item?5Transfer?5Card?$AA@ 00501ac8     Lib_Client:GLItemDef.obj
 0002:00008adc       ??_C@_0BH@HHHPOGCO@Equipment?5Lock?5Recover?$AA@ 00501adc     Lib_Client:GLItemDef.obj
 0002:00008af4       ??_C@_0BG@JHHIFHIJ@Equipment?5Lock?5Enable?$AA@ 00501af4     Lib_Client:GLItemDef.obj
 0002:00008b0c       ??_C@_0BD@PPOJHOIC@Change?5School?5Card?$AA@ 00501b0c     Lib_Client:GLItemDef.obj
 0002:00008b20       ??_C@_0M@MDIEFDPD@Wrapper?5Box?$AA@ 00501b20     Lib_Client:GLItemDef.obj
 0002:00008b2c       ??_C@_07LMJJJFFI@Wrapper?$AA@ 00501b2c     Lib_Client:GLItemDef.obj
 0002:00008b34       ??_C@_0BC@IEFMLBKP@Change?5Scale?5Card?$AA@ 00501b34     Lib_Client:GLItemDef.obj
 0002:00008b48       ??_C@_0BO@OPKKECFD@Personal?5Store?5Searching?5Card?$AA@ 00501b48     Lib_Client:GLItemDef.obj
 0002:00008b68       ??_C@_0BC@NOJIFNPH@Reset?5Compounding?$AA@ 00501b68     Lib_Client:GLItemDef.obj
 0002:00008b7c       ??_C@_0N@IOKCOBMA@NonDrop?5Card?$AA@ 00501b7c     Lib_Client:GLItemDef.obj
 0002:00008b8c       ??_C@_0CC@NOLKJMGI@Item?5Mix?5ScrollRandom?5Option?5Car@ 00501b8c     Lib_Client:GLItemDef.obj
 0002:00008bb0       ??_C@_0BK@CAGJIMED@Point?5Card?$CINo?5Refundable?$CJ?$AA@ 00501bb0     Lib_Client:GLItemDef.obj
 0002:00008bcc       ??_C@_0BH@JPEIBFP@Point?5Card?$CIRefundable?$CJ?$AA@ 00501bcc     Lib_Client:GLItemDef.obj
 0002:00008be4       ??_C@_0BB@IMDMNAMB@Item?5Food?5Unlock?$AA@ 00501be4     Lib_Client:GLItemDef.obj
 0002:00008bf8       ??_C@_0N@DAMHAEKB@Mailbox?5Card?$AA@ 00501bf8     Lib_Client:GLItemDef.obj
 0002:00008c08       ??_C@_0BK@CDGMEICM@Costume?5Color?5Change?5Card?$AA@ 00501c08     Lib_Client:GLItemDef.obj
 0002:00008c24       ??_C@_0BF@IFDHOBOA@Oblivion?5Potion?$CINew?$CJ?$AA@ 00501c24     Lib_Client:GLItemDef.obj
 0002:00008c3c       ??_C@_0BA@JMLFEFHH@Bike?5Boost?5Card?$AA@ 00501c3c     Lib_Client:GLItemDef.obj
 0002:00008c4c       ??_C@_0BH@IKPPDCEI@Bike?5Color?5Change?5Card?$AA@ 00501c4c     Lib_Client:GLItemDef.obj
 0002:00008c64       ??_C@_0BC@FOJJJDII@Mitigation?5Rosary?$AA@ 00501c64     Lib_Client:GLItemDef.obj
 0002:00008c78       ??_C@_0BF@FBLMJJCO@Reinforcement?5Rosary?$AA@ 00501c78     Lib_Client:GLItemDef.obj
 0002:00008c90       ??_C@_0BE@PAAHEEEH@Pet?5Dual?5Skill?5Card?$AA@ 00501c90     Lib_Client:GLItemDef.obj
 0002:00008ca4       ??_C@_0M@EGPPKIAF@Food?$CILunch?$CJ?$AA@ 00501ca4     Lib_Client:GLItemDef.obj
 0002:00008cb0       ??_C@_0P@DIEAGHEI@NeutronBullets?$AA@ 00501cb0     Lib_Client:GLItemDef.obj
 0002:00008cc0       ??_C@_0O@FEMLOGJK@NPC?5Call?5Card?$AA@ 00501cc0     Lib_Client:GLItemDef.obj
 0002:00008cd0       ??_C@_0O@HHNLHCLC@Material?5Item?$AA@ 00501cd0     Lib_Client:GLItemDef.obj
 0002:00008ce0       ??_C@_0M@JLONKEO@Taxi?5Ticket?$AA@ 00501ce0     Lib_Client:GLItemDef.obj
 0002:00008cec       ??_C@_0BK@CEEEHIEA@Character?5Face?5Style?5Card?$AA@ 00501cec     Lib_Client:GLItemDef.obj
 0002:00008d08       ??_C@_0O@FDMGCCCA@Pet?5Skin?5Pack?$AA@ 00501d08     Lib_Client:GLItemDef.obj
 0002:00008d18       ??_C@_0BC@BNMCKEKH@Map?5Teleport?5Card?$AA@ 00501d18     Lib_Client:GLItemDef.obj
 0002:00008d2c       ??_C@_0N@HFOHMLMF@Garbage?5Card?$AA@ 00501d2c     Lib_Client:GLItemDef.obj
 0002:00008d3c       ??_C@_0BN@BGEDLEMO@Character?5Change?5Gender?5Card?$AA@ 00501d3c     Lib_Client:GLItemDef.obj
 0002:00008d5c       ??_C@_07OFCINPPA@ExpCard?$AA@ 00501d5c     Lib_Client:GLItemDef.obj
 0002:00008d64       ??_C@_08OEBEBOMD@ItemCard?$AA@ 00501d64     Lib_Client:GLItemDef.obj
 0002:00008d70       ??_C@_0BE@BOOMLMPM@Vehicle?5Battery?9Oil?$AA@ 00501d70     Lib_Client:GLItemDef.obj
 0002:00008d84       ??_C@_07NAELNENF@Vehicle?$AA@ 00501d84     Lib_Client:GLItemDef.obj
 0002:00008d8c       ??_C@_0N@DICBIJHJ@Item?5Remodel?$AA@ 00501d8c     Lib_Client:GLItemDef.obj
 0002:00008d9c       ??_C@_0BJ@CINHFPHA@Item?5Protection?5Necklace?$AA@ 00501d9c     Lib_Client:GLItemDef.obj
 0002:00008db8       ??_C@_0L@BLAIOMBN@Pet?5Revive?$AA@ 00501db8     Lib_Client:GLItemDef.obj
 0002:00008dc4       ??_C@_0O@HBDIBIAL@SMS?5Send?5Card?$AA@ 00501dc4     Lib_Client:GLItemDef.obj
 0002:00008dd4       ??_C@_0BB@MEDHGGJK@Pet?5Skill?5Scroll?$AA@ 00501dd4     Lib_Client:GLItemDef.obj
